
t186ref/build-t186/user_tasks/nvidia-sample/luks-srv/luks-srv.syms.elf:     file format elf32-littlearm


Disassembly of section .text:

00008000 <exit>:
/* HACK: needed temporarily until the syscalls file gets the
 * __NO_RETURN annotation */
__NO_RETURN long exit_group (void);

__NO_RETURN void exit(int status)
{
    8000:	e92d4010 	push	{r4, lr}
	__cxa_finalize();
    8004:	eb000380 	bl	8e0c <__cxa_finalize>
	exit_group();
    8008:	eb000c87 	bl	b22c <exit_group>

0000800c <main>:
int main(void)
{
	int rc = NO_ERROR;
	uevent_t event;

	TLOGI("luks-srv is running!!\n");
    800c:	e30f2f68 	movw	r2, #65384	; 0xff68
    8010:	e30014b4 	movw	r1, #1204	; 0x4b4
{
    8014:	e92d4070 	push	{r4, r5, r6, lr}
	TLOGI("luks-srv is running!!\n");
    8018:	e3402000 	movt	r2, #0
{
    801c:	e24dd018 	sub	sp, sp, #24
	TLOGI("luks-srv is running!!\n");
    8020:	e3401001 	movt	r1, #1
    8024:	e3a03028 	mov	r3, #40	; 0x28
    8028:	e59f00e0 	ldr	r0, [pc, #224]	; 8110 <main+0x104>
    802c:	eb001df5 	bl	f808 <fprintf>

	rc = luks_srv_key_mgnt_processing();
    8030:	eb0002d4 	bl	8b88 <luks_srv_key_mgnt_processing>
	if (rc != NO_ERROR) {
    8034:	e2504000 	subs	r4, r0, #0
    8038:	1a00001b 	bne	80ac <main+0xa0>
		TLOGE("%s: Failed to set up LUKS keys (%d).\n", __func__, rc);
		return rc;
	}

	/* Initialize IPC service */
	rc = init_luks_srv_ipc();
    803c:	eb0001dc 	bl	87b4 <init_luks_srv_ipc>
	if (rc != NO_ERROR ) {
    8040:	e3500000 	cmp	r0, #0
    8044:	1a000026 	bne	80e4 <main+0xd8>
		event.event  = 0;
		event.cookie = NULL;

		rc = wait_any(&event, -1);
		if (rc < 0) {
			TLOGI("wait_any failed (%d)", rc);
    8048:	e59f60c0 	ldr	r6, [pc, #192]	; 8110 <main+0x104>
    804c:	e30f5f68 	movw	r5, #65384	; 0xff68
    8050:	e300452c 	movw	r4, #1324	; 0x52c
    8054:	e3405000 	movt	r5, #0
    8058:	e3404001 	movt	r4, #1
		event.handle = INVALID_IPC_HANDLE;
    805c:	e3e02000 	mvn	r2, #0
		event.event  = 0;
    8060:	e3a03000 	mov	r3, #0
		rc = wait_any(&event, -1);
    8064:	e1a01002 	mov	r1, r2
    8068:	e28d000c 	add	r0, sp, #12
		event.event  = 0;
    806c:	e1cd20fc 	strd	r2, [sp, #12]
		event.cookie = NULL;
    8070:	e58d3014 	str	r3, [sp, #20]
		rc = wait_any(&event, -1);
    8074:	eb000c81 	bl	b280 <wait_any>
		if (rc < 0) {
    8078:	e3500000 	cmp	r0, #0
    807c:	ba000003 	blt	8090 <main+0x84>
			continue;
		}

		if (rc == NO_ERROR) { /* Got an event */
    8080:	1afffff5 	bne	805c <main+0x50>
			dispatch_luks_srv_ipc_event(&event);
    8084:	e28d000c 	add	r0, sp, #12
    8088:	eb0001f6 	bl	8868 <dispatch_luks_srv_ipc_event>
    808c:	eafffff2 	b	805c <main+0x50>
			TLOGI("wait_any failed (%d)", rc);
    8090:	e58d0000 	str	r0, [sp]
    8094:	e3a03040 	mov	r3, #64	; 0x40
    8098:	e1a02005 	mov	r2, r5
    809c:	e1a01004 	mov	r1, r4
    80a0:	e1a00006 	mov	r0, r6
    80a4:	eb001dd7 	bl	f808 <fprintf>
			continue;
    80a8:	eaffffeb 	b	805c <main+0x50>
		TLOGE("%s: Failed to set up LUKS keys (%d).\n", __func__, rc);
    80ac:	e30034ac 	movw	r3, #1196	; 0x4ac
    80b0:	e30f2f68 	movw	r2, #65384	; 0xff68
    80b4:	e3403001 	movt	r3, #1
    80b8:	e30014d4 	movw	r1, #1236	; 0x4d4
    80bc:	e58d3000 	str	r3, [sp]
    80c0:	e3402000 	movt	r2, #0
    80c4:	e58d4004 	str	r4, [sp, #4]
    80c8:	e3401001 	movt	r1, #1
    80cc:	e3a0302c 	mov	r3, #44	; 0x2c
    80d0:	e59f0038 	ldr	r0, [pc, #56]	; 8110 <main+0x104>
    80d4:	eb001dcb 	bl	f808 <fprintf>
		}
	} while(1);

	return rc;
}
    80d8:	e1a00004 	mov	r0, r4
    80dc:	e28dd018 	add	sp, sp, #24
    80e0:	e8bd8070 	pop	{r4, r5, r6, pc}
		TLOGI("Failed (%d) to init IPC service", rc);
    80e4:	e30f2f68 	movw	r2, #65384	; 0xff68
    80e8:	e3001504 	movw	r1, #1284	; 0x504
    80ec:	e58d0000 	str	r0, [sp]
    80f0:	e3402000 	movt	r2, #0
    80f4:	e3401001 	movt	r1, #1
    80f8:	e3a03033 	mov	r3, #51	; 0x33
    80fc:	e59f000c 	ldr	r0, [pc, #12]	; 8110 <main+0x104>
		return -1;
    8100:	e3e04000 	mvn	r4, #0
		TLOGI("Failed (%d) to init IPC service", rc);
    8104:	eb001dbf 	bl	f808 <fprintf>
		kill_luks_srv_ipc();
    8108:	eb0001c9 	bl	8834 <kill_luks_srv_ipc>
		return -1;
    810c:	eafffff1 	b	80d8 <main+0xcc>
    8110:	0001305c 	.word	0x0001305c

00008114 <__guard_setup>:

#include <rand.h>

unsigned int __stack_chk_guard = 0xaff;

static void __attribute__((constructor)) __guard_setup (void){
    8114:	e92d4010 	push	{r4, lr}
        /* 
         * included for future use. rand.h must be seeded and -fstack_protector must be disabled in
         * stack contexts preceeding this call.
         */
  	if ( __stack_chk_guard == 0U )
    8118:	e30340a0 	movw	r4, #12448	; 0x30a0
    811c:	e3404001 	movt	r4, #1
    8120:	e5943000 	ldr	r3, [r4]
    8124:	e3530000 	cmp	r3, #0
    8128:	18bd8010 	popne	{r4, pc}
  		__stack_chk_guard = rand();
    812c:	eb001da8 	bl	f7d4 <rand>
    8130:	e5840000 	str	r0, [r4]
}
    8134:	e8bd8010 	pop	{r4, pc}

00008138 <get_key_srv_open>:
	return rc;
}

handle_t get_key_srv_open(void)
{
	return connect(GET_KEY_SRV_PORT, IPC_CONNECT_WAIT_FOR_PORT);
    8138:	e30f0f4c 	movw	r0, #65356	; 0xff4c
    813c:	e3a01001 	mov	r1, #1
    8140:	e3400000 	movt	r0, #0
    8144:	ea000c3e 	b	b244 <connect>

00008148 <get_key_srv_query_ekb_key>:
}

int get_key_srv_query_ekb_key(handle_t session, get_key_srv_cmd_msg_t *msg)
{
    8148:	e92d4070 	push	{r4, r5, r6, lr}
    814c:	e1a02001 	mov	r2, r1
    8150:	e24dd038 	sub	sp, sp, #56	; 0x38
	msg->cmd = GET_KEY_SRV_QUERY_EKB_KEY;
    8154:	e3a03001 	mov	r3, #1
	iovec_t iov = {
    8158:	e3a0c024 	mov	ip, #36	; 0x24
{
    815c:	e1a05000 	mov	r5, r0
	msg->cmd = GET_KEY_SRV_QUERY_EKB_KEY;
    8160:	e5813000 	str	r3, [r1]
	rc = send_msg(session, &ipc_msg);
    8164:	e28d1028 	add	r1, sp, #40	; 0x28
	iovec_t iov = {
    8168:	e58d200c 	str	r2, [sp, #12]
	ipc_msg_t ipc_msg = {
    816c:	e28d200c 	add	r2, sp, #12
    8170:	e58d3028 	str	r3, [sp, #40]	; 0x28
    8174:	e3a03000 	mov	r3, #0
	iovec_t iov = {
    8178:	e58dc010 	str	ip, [sp, #16]
	ipc_msg_t ipc_msg = {
    817c:	e58d3034 	str	r3, [sp, #52]	; 0x34
    8180:	e1cd22fc 	strd	r2, [sp, #44]	; 0x2c
	rc = send_msg(session, &ipc_msg);
    8184:	eb000c49 	bl	b2b0 <send_msg>
	if (rc < 0)
    8188:	e2504000 	subs	r4, r0, #0
    818c:	ba000002 	blt	819c <get_key_srv_query_ekb_key+0x54>
	if ((size_t)rc != sizeof(*msg)) {
    8190:	e3540024 	cmp	r4, #36	; 0x24
    8194:	0a00000e 	beq	81d4 <get_key_srv_query_ekb_key+0x8c>
		rc = ERR_IO;
    8198:	e3e04013 	mvn	r4, #19
	TLOGE("%s: failed (%d)\n", __func__, rc);
    819c:	e30f3f2c 	movw	r3, #65324	; 0xff2c
    81a0:	e30f2f68 	movw	r2, #65384	; 0xff68
    81a4:	e3403000 	movt	r3, #0
    81a8:	e30f1f74 	movw	r1, #65396	; 0xff74
    81ac:	e58d3000 	str	r3, [sp]
    81b0:	e3402000 	movt	r2, #0
    81b4:	e58d4004 	str	r4, [sp, #4]
    81b8:	e3401000 	movt	r1, #0
    81bc:	e3a0304c 	mov	r3, #76	; 0x4c
    81c0:	e59f0078 	ldr	r0, [pc, #120]	; 8240 <get_key_srv_query_ekb_key+0xf8>
    81c4:	eb001d8f 	bl	f808 <fprintf>
	return transceive_get_key_srv_cmd_msg(session, msg);
}
    81c8:	e1a00004 	mov	r0, r4
    81cc:	e28dd038 	add	sp, sp, #56	; 0x38
    81d0:	e8bd8070 	pop	{r4, r5, r6, pc}
	rc = wait(session, &uevt, INFINITE_TIME);
    81d4:	e3e02000 	mvn	r2, #0
    81d8:	e28d101c 	add	r1, sp, #28
    81dc:	e1a00005 	mov	r0, r5
    81e0:	eb000c23 	bl	b274 <wait>
	if (rc != NO_ERROR)
    81e4:	e2504000 	subs	r4, r0, #0
    81e8:	1affffeb 	bne	819c <get_key_srv_query_ekb_key+0x54>
	rc = get_msg(session, &ipc_info);
    81ec:	e28d1014 	add	r1, sp, #20
    81f0:	e1a00005 	mov	r0, r5
    81f4:	eb000c24 	bl	b28c <get_msg>
	if (rc != NO_ERROR)
    81f8:	e2504000 	subs	r4, r0, #0
    81fc:	1affffe6 	bne	819c <get_key_srv_query_ekb_key+0x54>
	rc = read_msg(session, ipc_info.id, 0, &ipc_msg);
    8200:	e28d3028 	add	r3, sp, #40	; 0x28
    8204:	e1a02004 	mov	r2, r4
    8208:	e59d1018 	ldr	r1, [sp, #24]
    820c:	e1a00005 	mov	r0, r5
    8210:	eb000c20 	bl	b298 <read_msg>
	put_msg(session, ipc_info.id);
    8214:	e59d1018 	ldr	r1, [sp, #24]
	rc = read_msg(session, ipc_info.id, 0, &ipc_msg);
    8218:	e1a06000 	mov	r6, r0
	put_msg(session, ipc_info.id);
    821c:	e1a00005 	mov	r0, r5
    8220:	eb000c1f 	bl	b2a4 <put_msg>
	if (rc < 0)
    8224:	e3560000 	cmp	r6, #0
    8228:	ba000002 	blt	8238 <get_key_srv_query_ekb_key+0xf0>
	if ((size_t)rc != sizeof(*msg)) {
    822c:	e3560024 	cmp	r6, #36	; 0x24
    8230:	1affffd8 	bne	8198 <get_key_srv_query_ekb_key+0x50>
    8234:	eaffffe3 	b	81c8 <get_key_srv_query_ekb_key+0x80>
	if (rc < 0)
    8238:	e1a04006 	mov	r4, r6
    823c:	eaffffd6 	b	819c <get_key_srv_query_ekb_key+0x54>
    8240:	0001305c 	.word	0x0001305c

00008244 <get_key_srv_close>:

void get_key_srv_close(handle_t session)
{
	close(session);
    8244:	ea000c04 	b	b25c <close>

00008248 <_destroy_service>:
{
	return containerof(ev->cookie, struct tipc_srv_state, handler);
}

static void _destroy_service(struct tipc_srv_state *state)
{
    8248:	e92d4010 	push	{r4, lr}
	if (!state) {
    824c:	e2504000 	subs	r4, r0, #0
{
    8250:	e24dd008 	sub	sp, sp, #8
	if (!state) {
    8254:	0a00000f 	beq	8298 <_destroy_service+0x50>
		TLOGI("non-null state expected\n");
		return;
	}

	/* Close port */
	if (state->port != INVALID_IPC_HANDLE) {
    8258:	e5940004 	ldr	r0, [r4, #4]
    825c:	e3700001 	cmn	r0, #1
    8260:	1a000006 	bne	8280 <_destroy_service+0x38>
		}
		state->port = INVALID_IPC_HANDLE;
	}

	/* Reset handler */
	state->service = NULL;
    8264:	e3a03000 	mov	r3, #0
    8268:	e5843000 	str	r3, [r4]
	state->handler.proc = NULL;
    826c:	e584300c 	str	r3, [r4, #12]
	state->handler.priv = NULL;
    8270:	e5843010 	str	r3, [r4, #16]
	state->priv = NULL;
    8274:	e5843008 	str	r3, [r4, #8]
}
    8278:	e28dd008 	add	sp, sp, #8
    827c:	e8bd8010 	pop	{r4, pc}
		int rc = close(state->port);
    8280:	eb000bf5 	bl	b25c <close>
		if (rc != NO_ERROR) {
    8284:	e3500000 	cmp	r0, #0
    8288:	1a00000b 	bne	82bc <_destroy_service+0x74>
		state->port = INVALID_IPC_HANDLE;
    828c:	e3e03000 	mvn	r3, #0
    8290:	e5843004 	str	r3, [r4, #4]
    8294:	eafffff2 	b	8264 <_destroy_service+0x1c>
		TLOGI("non-null state expected\n");
    8298:	e30f2f68 	movw	r2, #65384	; 0xff68
    829c:	e3001024 	movw	r1, #36	; 0x24
    82a0:	e3402000 	movt	r2, #0
    82a4:	e3401001 	movt	r1, #1
    82a8:	e3a0305d 	mov	r3, #93	; 0x5d
    82ac:	e59f0034 	ldr	r0, [pc, #52]	; 82e8 <_destroy_service+0xa0>
}
    82b0:	e28dd008 	add	sp, sp, #8
    82b4:	e8bd4010 	pop	{r4, lr}
		TLOGI("non-null state expected\n");
    82b8:	ea001d52 	b	f808 <fprintf>
			TLOGI("Failed (%d) to close port %d\n",
    82bc:	e5943004 	ldr	r3, [r4, #4]
    82c0:	e30f2f68 	movw	r2, #65384	; 0xff68
    82c4:	e3001048 	movw	r1, #72	; 0x48
    82c8:	e58d0000 	str	r0, [sp]
    82cc:	e3402000 	movt	r2, #0
    82d0:	e3401001 	movt	r1, #1
    82d4:	e58d3004 	str	r3, [sp, #4]
    82d8:	e3a03066 	mov	r3, #102	; 0x66
    82dc:	e59f0004 	ldr	r0, [pc, #4]	; 82e8 <_destroy_service+0xa0>
    82e0:	eb001d48 	bl	f808 <fprintf>
    82e4:	eaffffe8 	b	828c <_destroy_service+0x44>
    82e8:	0001305c 	.word	0x0001305c

000082ec <_create_service>:
 *  Create service
 */
static int _create_service(const struct tipc_srv *srv,
                           struct tipc_srv_state *state)
{
	if (!srv || !state) {
    82ec:	e16f3f11 	clz	r3, r1
    82f0:	e3500000 	cmp	r0, #0
    82f4:	e1a032a3 	lsr	r3, r3, #5
{
    82f8:	e92d40f0 	push	{r4, r5, r6, r7, lr}
	if (!srv || !state) {
    82fc:	03a05001 	moveq	r5, #1
    8300:	11a05003 	movne	r5, r3
{
    8304:	e24dd00c 	sub	sp, sp, #12
	if (!srv || !state) {
    8308:	e3550000 	cmp	r5, #0
    830c:	1a00002e 	bne	83cc <_create_service+0xe0>
		TLOGI("null services specified\n");
		return ERR_INVALID_ARGS;
	}

	/* Create port */
	int rc = port_create(srv->name, srv->msg_num, srv->msg_size,
    8310:	e1c020d8 	ldrd	r2, [r0, #8]
    8314:	e1a04000 	mov	r4, r0
    8318:	e1a06001 	mov	r6, r1
    831c:	e1c000d0 	ldrd	r0, [r0]
    8320:	eb000bc4 	bl	b238 <port_create>
			     srv->port_flags);
	if (rc < 0) {
    8324:	e2507000 	subs	r7, r0, #0
    8328:	ba00000d 	blt	8364 <_create_service+0x78>
		return rc;
	}

	/* Setup port state  */
	state->port = (handle_t)rc;
	state->handler.proc = srv->port_handler;
    832c:	e5943010 	ldr	r3, [r4, #16]
	state->handler.priv = state;
	state->service = srv;
	state->priv = NULL;

	/* Attach handler to port handle */
	rc = set_cookie(state->port, &state->handler);
    8330:	e286100c 	add	r1, r6, #12
	state->port = (handle_t)rc;
    8334:	e5867004 	str	r7, [r6, #4]
	state->handler.priv = state;
    8338:	e5866010 	str	r6, [r6, #16]
	state->handler.proc = srv->port_handler;
    833c:	e586300c 	str	r3, [r6, #12]
	state->service = srv;
    8340:	e5864000 	str	r4, [r6]
	state->priv = NULL;
    8344:	e5865008 	str	r5, [r6, #8]
	rc = set_cookie(state->port, &state->handler);
    8348:	eb000bc6 	bl	b268 <set_cookie>
	if (rc < 0) {
    834c:	e2507000 	subs	r7, r0, #0
		TLOGI("Failed (%d) to set cookie on port %d\n",
		      rc, state->port);
		goto err_set_cookie;
	}

	return NO_ERROR;
    8350:	a1a07005 	movge	r7, r5
	if (rc < 0) {
    8354:	ba00000d 	blt	8390 <_create_service+0xa4>

err_set_cookie:
	_destroy_service(state);
	return rc;
}
    8358:	e1a00007 	mov	r0, r7
    835c:	e28dd00c 	add	sp, sp, #12
    8360:	e8bd80f0 	pop	{r4, r5, r6, r7, pc}
		TLOGI("Failed (%d) to create port\n", rc);
    8364:	e30f2f68 	movw	r2, #65384	; 0xff68
    8368:	e30f1fd0 	movw	r1, #65488	; 0xffd0
    836c:	e58d7000 	str	r7, [sp]
    8370:	e3402000 	movt	r2, #0
    8374:	e3401000 	movt	r1, #0
    8378:	e3a03081 	mov	r3, #129	; 0x81
    837c:	e59f006c 	ldr	r0, [pc, #108]	; 83f0 <_create_service+0x104>
    8380:	eb001d20 	bl	f808 <fprintf>
}
    8384:	e1a00007 	mov	r0, r7
    8388:	e28dd00c 	add	sp, sp, #12
    838c:	e8bd80f0 	pop	{r4, r5, r6, r7, pc}
		TLOGI("Failed (%d) to set cookie on port %d\n",
    8390:	e5963004 	ldr	r3, [r6, #4]
    8394:	e30f2f68 	movw	r2, #65384	; 0xff68
    8398:	e30f1ff4 	movw	r1, #65524	; 0xfff4
    839c:	e3402000 	movt	r2, #0
    83a0:	e3401000 	movt	r1, #0
    83a4:	e58d7000 	str	r7, [sp]
    83a8:	e58d3004 	str	r3, [sp, #4]
    83ac:	e3a03090 	mov	r3, #144	; 0x90
    83b0:	e59f0038 	ldr	r0, [pc, #56]	; 83f0 <_create_service+0x104>
    83b4:	eb001d13 	bl	f808 <fprintf>
	_destroy_service(state);
    83b8:	e1a00006 	mov	r0, r6
    83bc:	ebffffa1 	bl	8248 <_destroy_service>
}
    83c0:	e1a00007 	mov	r0, r7
    83c4:	e28dd00c 	add	sp, sp, #12
    83c8:	e8bd80f0 	pop	{r4, r5, r6, r7, pc}
		TLOGI("null services specified\n");
    83cc:	e30f2f68 	movw	r2, #65384	; 0xff68
    83d0:	e30f1fac 	movw	r1, #65452	; 0xffac
    83d4:	e3402000 	movt	r2, #0
    83d8:	e3401000 	movt	r1, #0
    83dc:	e3a03079 	mov	r3, #121	; 0x79
    83e0:	e59f0008 	ldr	r0, [pc, #8]	; 83f0 <_create_service+0x104>
    83e4:	eb001d07 	bl	f808 <fprintf>
		return ERR_INVALID_ARGS;
    83e8:	e3e07007 	mvn	r7, #7
    83ec:	eaffffd9 	b	8358 <_create_service+0x6c>
    83f0:	0001305c 	.word	0x0001305c

000083f4 <common_port_handler>:
 */
static bool handle_port_errors(const uevent_t *evt)
{
	if ((evt->event & IPC_HANDLE_POLL_ERROR) ||
	    (evt->event & IPC_HANDLE_POLL_HUP) ||
	    (evt->event & IPC_HANDLE_POLL_MSG) ||
    83f4:	e5903004 	ldr	r3, [r0, #4]

/*
 *   Service port event handler
 */
static void common_port_handler(const uevent_t *evt)
{
    83f8:	e92d4070 	push	{r4, r5, r6, lr}
    83fc:	e1a04000 	mov	r4, r0
    8400:	e24dd018 	sub	sp, sp, #24
	if ((evt->event & IPC_HANDLE_POLL_ERROR) ||
    8404:	e313001e 	tst	r3, #30
    8408:	1a000003 	bne	841c <common_port_handler+0x28>
	const struct tipc_srv *srv = get_srv_state(evt)->service;

	if (handle_port_errors(evt))
		return;

	if (evt->event & IPC_HANDLE_POLL_READY) {
    840c:	e3130001 	tst	r3, #1
    8410:	1a000017 	bne	8474 <common_port_handler+0x80>
			free(chan_st);
			close(chan);
			return;
		}
	}
}
    8414:	e28dd018 	add	sp, sp, #24
    8418:	e8bd8070 	pop	{r4, r5, r6, pc}
		TLOGI("error event (0x%x) for port (%d)\n",
    841c:	e5900000 	ldr	r0, [r0]
    8420:	e30f2f68 	movw	r2, #65384	; 0xff68
    8424:	e3001088 	movw	r1, #136	; 0x88
    8428:	e58d3000 	str	r3, [sp]
    842c:	e3402000 	movt	r2, #0
    8430:	e300313d 	movw	r3, #317	; 0x13d
    8434:	e58d0004 	str	r0, [sp, #4]
    8438:	e3401001 	movt	r1, #1
    843c:	e59f0130 	ldr	r0, [pc, #304]	; 8574 <common_port_handler+0x180>
    8440:	eb001cf0 	bl	f808 <fprintf>
		restart_service(get_srv_state(evt));
    8444:	e5943008 	ldr	r3, [r4, #8]
	if (!state) {
    8448:	e353000c 	cmp	r3, #12
	return containerof(ev->cookie, struct tipc_srv_state, handler);
    844c:	e243400c 	sub	r4, r3, #12
	if (!state) {
    8450:	0a00003f 	beq	8554 <common_port_handler+0x160>
	const struct tipc_srv *srv = state->service;
    8454:	e513500c 	ldr	r5, [r3, #-12]
	_destroy_service(state);
    8458:	e1a00004 	mov	r0, r4
    845c:	ebffff79 	bl	8248 <_destroy_service>
	return _create_service(srv, state);
    8460:	e1a01004 	mov	r1, r4
    8464:	e1a00005 	mov	r0, r5
    8468:	ebffff9f 	bl	82ec <_create_service>
}
    846c:	e28dd018 	add	sp, sp, #24
    8470:	e8bd8070 	pop	{r4, r5, r6, pc}
	const struct tipc_srv *srv = get_srv_state(evt)->service;
    8474:	e5903008 	ldr	r3, [r0, #8]
		int rc = accept(evt->handle, &peer_uuid);
    8478:	e28d1008 	add	r1, sp, #8
    847c:	e5900000 	ldr	r0, [r0]
	const struct tipc_srv *srv = get_srv_state(evt)->service;
    8480:	e513600c 	ldr	r6, [r3, #-12]
		int rc = accept(evt->handle, &peer_uuid);
    8484:	eb000b71 	bl	b250 <accept>
		if (rc < 0) {
    8488:	e2505000 	subs	r5, r0, #0
    848c:	ba000019 	blt	84f8 <common_port_handler+0x104>
		chan_st = malloc(sizeof(struct chan_state));
    8490:	e3a00008 	mov	r0, #8
    8494:	eb00031c 	bl	910c <malloc>
		if (!chan_st) {
    8498:	e2504000 	subs	r4, r0, #0
    849c:	0a000020 	beq	8524 <common_port_handler+0x130>
		chan_st->handler.proc = srv->chan_handler;
    84a0:	e5963014 	ldr	r3, [r6, #20]
		rc = set_cookie(chan, &chan_st->handler);
    84a4:	e1a01004 	mov	r1, r4
		chan_st->handler.priv = chan_st;
    84a8:	e5844004 	str	r4, [r4, #4]
		rc = set_cookie(chan, &chan_st->handler);
    84ac:	e1a00005 	mov	r0, r5
		chan_st->handler.proc = srv->chan_handler;
    84b0:	e5843000 	str	r3, [r4]
		rc = set_cookie(chan, &chan_st->handler);
    84b4:	eb000b6b 	bl	b268 <set_cookie>
		if (rc) {
    84b8:	e3500000 	cmp	r0, #0
    84bc:	0affffd4 	beq	8414 <common_port_handler+0x20>
			TLOGI("failed (%d) to set_cookie on chan %d\n",
    84c0:	e30f2f68 	movw	r2, #65384	; 0xff68
    84c4:	e3001114 	movw	r1, #276	; 0x114
    84c8:	e3402000 	movt	r2, #0
    84cc:	e58d0000 	str	r0, [sp]
    84d0:	e3401001 	movt	r1, #1
    84d4:	e300316f 	movw	r3, #367	; 0x16f
    84d8:	e58d5004 	str	r5, [sp, #4]
    84dc:	e59f0090 	ldr	r0, [pc, #144]	; 8574 <common_port_handler+0x180>
    84e0:	eb001cc8 	bl	f808 <fprintf>
			free(chan_st);
    84e4:	e1a00004 	mov	r0, r4
    84e8:	eb0008dd 	bl	a864 <free>
			close(chan);
    84ec:	e1a00005 	mov	r0, r5
    84f0:	eb000b59 	bl	b25c <close>
			return;
    84f4:	eaffffc6 	b	8414 <common_port_handler+0x20>
			TLOGI("failed (%d) to accept on port %d\n",
    84f8:	e5943000 	ldr	r3, [r4]
    84fc:	e30f2f68 	movw	r2, #65384	; 0xff68
    8500:	e30010b4 	movw	r1, #180	; 0xb4
    8504:	e58d5000 	str	r5, [sp]
    8508:	e3402000 	movt	r2, #0
    850c:	e3401001 	movt	r1, #1
    8510:	e58d3004 	str	r3, [sp, #4]
    8514:	e300315a 	movw	r3, #346	; 0x15a
    8518:	e59f0054 	ldr	r0, [pc, #84]	; 8574 <common_port_handler+0x180>
    851c:	eb001cb9 	bl	f808 <fprintf>
			return;
    8520:	eaffffbb 	b	8414 <common_port_handler+0x20>
			TLOGI("failed (%d) to callocate state for chan %d\n",
    8524:	e30f2f68 	movw	r2, #65384	; 0xff68
    8528:	e30010e0 	movw	r1, #224	; 0xe0
    852c:	e58d5004 	str	r5, [sp, #4]
    8530:	e3402000 	movt	r2, #0
    8534:	e58d5000 	str	r5, [sp]
    8538:	e3401001 	movt	r1, #1
    853c:	e3003162 	movw	r3, #354	; 0x162
    8540:	e59f002c 	ldr	r0, [pc, #44]	; 8574 <common_port_handler+0x180>
    8544:	eb001caf 	bl	f808 <fprintf>
			close(chan);
    8548:	e1a00005 	mov	r0, r5
    854c:	eb000b42 	bl	b25c <close>
			return;
    8550:	eaffffaf 	b	8414 <common_port_handler+0x20>
		TLOGI("non-null state expected\n");
    8554:	e30f2f68 	movw	r2, #65384	; 0xff68
    8558:	e3001024 	movw	r1, #36	; 0x24
    855c:	e3402000 	movt	r2, #0
    8560:	e3401001 	movt	r1, #1
    8564:	e3a03f4a 	mov	r3, #296	; 0x128
    8568:	e59f0004 	ldr	r0, [pc, #4]	; 8574 <common_port_handler+0x180>
    856c:	eb001ca5 	bl	f808 <fprintf>
    8570:	eaffffa7 	b	8414 <common_port_handler+0x20>
    8574:	0001305c 	.word	0x0001305c

00008578 <luks_srv_chan_handler>:
	    || (evt->event & IPC_HANDLE_POLL_HUP))
    8578:	e5903004 	ldr	r3, [r0, #4]
{
    857c:	e92d40f0 	push	{r4, r5, r6, r7, lr}
    8580:	e1a04000 	mov	r4, r0
    8584:	e24dd074 	sub	sp, sp, #116	; 0x74
	if ((evt->event & IPC_HANDLE_POLL_ERROR)
    8588:	e3130006 	tst	r3, #6
    858c:	1a000040 	bne	8694 <luks_srv_chan_handler+0x11c>
	if (evt->event & (IPC_HANDLE_POLL_MSG)) {
    8590:	e3130008 	tst	r3, #8
    8594:	1a000001 	bne	85a0 <luks_srv_chan_handler+0x28>
}
    8598:	e28dd074 	add	sp, sp, #116	; 0x74
    859c:	e8bd80f0 	pop	{r4, r5, r6, r7, pc}
	rc = get_msg(evt->handle, &msg_info);
    85a0:	e28d1008 	add	r1, sp, #8
    85a4:	e5900000 	ldr	r0, [r0]
    85a8:	eb000b37 	bl	b28c <get_msg>
	if (rc == ERR_NO_MSG)
    85ac:	e3700004 	cmn	r0, #4
	rc = get_msg(evt->handle, &msg_info);
    85b0:	e1a05000 	mov	r5, r0
	if (rc == ERR_NO_MSG)
    85b4:	0a00002b 	beq	8668 <luks_srv_chan_handler+0xf0>
	if (rc != NO_ERROR) {
    85b8:	e3500000 	cmp	r0, #0
    85bc:	e5940000 	ldr	r0, [r4]
    85c0:	1a000039 	bne	86ac <luks_srv_chan_handler+0x134>
	iovec_t iov = {
    85c4:	e28d2034 	add	r2, sp, #52	; 0x34
	msg.num_iov = 1;
    85c8:	e3a01001 	mov	r1, #1
	iovec_t iov = {
    85cc:	e3a0e03c 	mov	lr, #60	; 0x3c
	msg.iov = &iov;
    85d0:	e28dc010 	add	ip, sp, #16
	iovec_t iov = {
    85d4:	e58d2010 	str	r2, [sp, #16]
	rc = read_msg(evt->handle, msg_info.id, 0, &msg);
    85d8:	e28d3024 	add	r3, sp, #36	; 0x24
	msg.num_iov = 1;
    85dc:	e58d1024 	str	r1, [sp, #36]	; 0x24
	rc = read_msg(evt->handle, msg_info.id, 0, &msg);
    85e0:	e1a02005 	mov	r2, r5
    85e4:	e59d100c 	ldr	r1, [sp, #12]
	msg.num_handles = 0;
    85e8:	e58d502c 	str	r5, [sp, #44]	; 0x2c
	msg.handles  = NULL;
    85ec:	e58d5030 	str	r5, [sp, #48]	; 0x30
	iovec_t iov = {
    85f0:	e58de014 	str	lr, [sp, #20]
	msg.iov = &iov;
    85f4:	e58dc028 	str	ip, [sp, #40]	; 0x28
	rc = read_msg(evt->handle, msg_info.id, 0, &msg);
    85f8:	eb000b26 	bl	b298 <read_msg>
	if (rc < 0) {
    85fc:	e3500000 	cmp	r0, #0
    8600:	ba000052 	blt	8750 <luks_srv_chan_handler+0x1d8>
	luks_srv_process_req(msg.iov);
    8604:	e59d0028 	ldr	r0, [sp, #40]	; 0x28
    8608:	eb000196 	bl	8c68 <luks_srv_process_req>
	rc = send_msg(evt->handle, &msg);
    860c:	e28d1024 	add	r1, sp, #36	; 0x24
    8610:	e5940000 	ldr	r0, [r4]
    8614:	eb000b25 	bl	b2b0 <send_msg>
	if (rc == ERR_NOT_ENOUGH_BUFFER)
    8618:	e3700009 	cmn	r0, #9
	rc = send_msg(evt->handle, &msg);
    861c:	e1a06000 	mov	r6, r0
	if (rc == ERR_NOT_ENOUGH_BUFFER)
    8620:	0a00002b 	beq	86d4 <luks_srv_chan_handler+0x15c>
	if (rc < 0) {
    8624:	e3560000 	cmp	r6, #0
    8628:	e5940000 	ldr	r0, [r4]
    862c:	ba00003d 	blt	8728 <luks_srv_chan_handler+0x1b0>
	rc = put_msg(evt->handle, msg_info.id);
    8630:	e59d100c 	ldr	r1, [sp, #12]
    8634:	eb000b1a 	bl	b2a4 <put_msg>
	if (rc != NO_ERROR) {
    8638:	e3500000 	cmp	r0, #0
    863c:	0affffd5 	beq	8598 <luks_srv_chan_handler+0x20>
		TLOGI("failed (%d) to put_msg for chan (%d)\n",
    8640:	e5943000 	ldr	r3, [r4]
    8644:	e30f2f68 	movw	r2, #65384	; 0xff68
    8648:	e3001358 	movw	r1, #856	; 0x358
    864c:	e58d0000 	str	r0, [sp]
    8650:	e3402000 	movt	r2, #0
    8654:	e3401001 	movt	r1, #1
    8658:	e58d3004 	str	r3, [sp, #4]
    865c:	e3003103 	movw	r3, #259	; 0x103
    8660:	e59f0148 	ldr	r0, [pc, #328]	; 87b0 <luks_srv_chan_handler+0x238>
    8664:	eb001c67 	bl	f808 <fprintf>
			TLOGI("error event (0x%x) for chan (%d)\n",
    8668:	e5943000 	ldr	r3, [r4]
    866c:	e30f2f68 	movw	r2, #65384	; 0xff68
    8670:	e5940004 	ldr	r0, [r4, #4]
    8674:	e3001388 	movw	r1, #904	; 0x388
    8678:	e3402000 	movt	r2, #0
    867c:	e3401001 	movt	r1, #1
    8680:	e58d3004 	str	r3, [sp, #4]
    8684:	e3a03f46 	mov	r3, #280	; 0x118
    8688:	e58d0000 	str	r0, [sp]
    868c:	e59f011c 	ldr	r0, [pc, #284]	; 87b0 <luks_srv_chan_handler+0x238>
    8690:	eb001c5c 	bl	f808 <fprintf>
	free(chan_st);
    8694:	e5940008 	ldr	r0, [r4, #8]
    8698:	eb000871 	bl	a864 <free>
	close(evt->handle);
    869c:	e5940000 	ldr	r0, [r4]
    86a0:	eb000aed 	bl	b25c <close>
}
    86a4:	e28dd074 	add	sp, sp, #116	; 0x74
    86a8:	e8bd80f0 	pop	{r4, r5, r6, r7, pc}
		TLOGI("failed (%d) to get_msg for chan (%d)\n",
    86ac:	e30f2f68 	movw	r2, #65384	; 0xff68
    86b0:	e3001290 	movw	r1, #656	; 0x290
    86b4:	e58d0004 	str	r0, [sp, #4]
    86b8:	e3402000 	movt	r2, #0
    86bc:	e58d5000 	str	r5, [sp]
    86c0:	e3401001 	movt	r1, #1
    86c4:	e3a030d8 	mov	r3, #216	; 0xd8
    86c8:	e59f00e0 	ldr	r0, [pc, #224]	; 87b0 <luks_srv_chan_handler+0x238>
    86cc:	eb001c4d 	bl	f808 <fprintf>
    86d0:	eaffffe4 	b	8668 <luks_srv_chan_handler+0xf0>
		rc = wait_to_send(evt->handle, &msg);
    86d4:	e5947000 	ldr	r7, [r4]
	rc = wait(session, &evt, INFINITE_TIME);
    86d8:	e3e02000 	mvn	r2, #0
    86dc:	e28d1018 	add	r1, sp, #24
	struct uevent evt = UEVENT_INITIAL_VALUE(evt);
    86e0:	e58d5018 	str	r5, [sp, #24]
    86e4:	e58d501c 	str	r5, [sp, #28]
	rc = wait(session, &evt, INFINITE_TIME);
    86e8:	e1a00007 	mov	r0, r7
	struct uevent evt = UEVENT_INITIAL_VALUE(evt);
    86ec:	e58d5020 	str	r5, [sp, #32]
	rc = wait(session, &evt, INFINITE_TIME);
    86f0:	eb000adf 	bl	b274 <wait>
	if (rc < 0) {
    86f4:	e2506000 	subs	r6, r0, #0
    86f8:	ba000024 	blt	8790 <luks_srv_chan_handler+0x218>
	if (evt.event & IPC_HANDLE_POLL_SEND_UNBLOCKED)
    86fc:	e59d301c 	ldr	r3, [sp, #28]
    8700:	e3130010 	tst	r3, #16
    8704:	1a00001c 	bne	877c <luks_srv_chan_handler+0x204>
	if (evt.event & IPC_HANDLE_POLL_MSG)
    8708:	e3130008 	tst	r3, #8
    870c:	15940000 	ldrne	r0, [r4]
		return ERR_BUSY;
    8710:	13e06020 	mvnne	r6, #32
	if (evt.event & IPC_HANDLE_POLL_MSG)
    8714:	1a000003 	bne	8728 <luks_srv_chan_handler+0x1b0>
	if (evt.event & IPC_HANDLE_POLL_HUP)
    8718:	e3130004 	tst	r3, #4
    871c:	15940000 	ldrne	r0, [r4]
		return ERR_CHANNEL_CLOSED;
    8720:	13e0600e 	mvnne	r6, #14
	if (evt.event & IPC_HANDLE_POLL_HUP)
    8724:	0affffbe 	beq	8624 <luks_srv_chan_handler+0xac>
		TLOGI("failed (%d) to send_msg for chan (%d)\n",
    8728:	e30f2f68 	movw	r2, #65384	; 0xff68
    872c:	e3001328 	movw	r1, #808	; 0x328
    8730:	e58d0004 	str	r0, [sp, #4]
    8734:	e3402000 	movt	r2, #0
    8738:	e58d6000 	str	r6, [sp]
    873c:	e3401001 	movt	r1, #1
    8740:	e3a030fb 	mov	r3, #251	; 0xfb
    8744:	e59f0064 	ldr	r0, [pc, #100]	; 87b0 <luks_srv_chan_handler+0x238>
    8748:	eb001c2e 	bl	f808 <fprintf>
    874c:	eaffffc5 	b	8668 <luks_srv_chan_handler+0xf0>
		TLOGI("failed (%d) to read_msg for chan (%d)\n",
    8750:	e5943000 	ldr	r3, [r4]
    8754:	e30f2f68 	movw	r2, #65384	; 0xff68
    8758:	e30012c0 	movw	r1, #704	; 0x2c0
    875c:	e58d0000 	str	r0, [sp]
    8760:	e3402000 	movt	r2, #0
    8764:	e3401001 	movt	r1, #1
    8768:	e58d3004 	str	r3, [sp, #4]
    876c:	e3a030ee 	mov	r3, #238	; 0xee
    8770:	e59f0038 	ldr	r0, [pc, #56]	; 87b0 <luks_srv_chan_handler+0x238>
    8774:	eb001c23 	bl	f808 <fprintf>
    8778:	eaffffba 	b	8668 <luks_srv_chan_handler+0xf0>
		return send_msg(session, msg);
    877c:	e28d1024 	add	r1, sp, #36	; 0x24
    8780:	e1a00007 	mov	r0, r7
    8784:	eb000ac9 	bl	b2b0 <send_msg>
    8788:	e1a06000 	mov	r6, r0
    878c:	eaffffa4 	b	8624 <luks_srv_chan_handler+0xac>
		TLOGE("failed to wait for outgoing queue to free up\n");
    8790:	e30f2f68 	movw	r2, #65384	; 0xff68
    8794:	e30012f0 	movw	r1, #752	; 0x2f0
    8798:	e3402000 	movt	r2, #0
    879c:	e3401001 	movt	r1, #1
    87a0:	e3a030bb 	mov	r3, #187	; 0xbb
    87a4:	e59f0004 	ldr	r0, [pc, #4]	; 87b0 <luks_srv_chan_handler+0x238>
    87a8:	eb001c16 	bl	f808 <fprintf>
    87ac:	eaffff9c 	b	8624 <luks_srv_chan_handler+0xac>
    87b0:	0001305c 	.word	0x0001305c

000087b4 <init_luks_srv_ipc>:
	TLOGI ("Init luks-srv IPC services!!\n");
    87b4:	e30f2f68 	movw	r2, #65384	; 0xff68
    87b8:	e30011f4 	movw	r1, #500	; 0x1f4
{
    87bc:	e92d4010 	push	{r4, lr}
	TLOGI ("Init luks-srv IPC services!!\n");
    87c0:	e3402000 	movt	r2, #0
{
    87c4:	e24dd008 	sub	sp, sp, #8
	TLOGI ("Init luks-srv IPC services!!\n");
    87c8:	e3401001 	movt	r1, #1
    87cc:	e3a0309d 	mov	r3, #157	; 0x9d
    87d0:	e59f0058 	ldr	r0, [pc, #88]	; 8830 <init_luks_srv_ipc+0x7c>
    87d4:	eb001c0b 	bl	f808 <fprintf>
		int rc = _create_service(&_services[i], &_srv_states[i]);
    87d8:	e303101c 	movw	r1, #12316	; 0x301c
    87dc:	e3000070 	movw	r0, #112	; 0x70
    87e0:	e3401001 	movt	r1, #1
    87e4:	e3400001 	movt	r0, #1
    87e8:	ebfffebf 	bl	82ec <_create_service>
		if (rc < 0) {
    87ec:	e2504000 	subs	r4, r0, #0
	return 0;
    87f0:	a3a04000 	movge	r4, #0
		if (rc < 0) {
    87f4:	aa00000a 	bge	8824 <init_luks_srv_ipc+0x70>
			TLOGI("Failed (%d) to create service %s\n",
    87f8:	e3003248 	movw	r3, #584	; 0x248
    87fc:	e30f2f68 	movw	r2, #65384	; 0xff68
    8800:	e3403001 	movt	r3, #1
    8804:	e300121c 	movw	r1, #540	; 0x21c
    8808:	e58d3004 	str	r3, [sp, #4]
    880c:	e3402000 	movt	r2, #0
    8810:	e58d4000 	str	r4, [sp]
    8814:	e3401001 	movt	r1, #1
    8818:	e3a030a3 	mov	r3, #163	; 0xa3
    881c:	e59f000c 	ldr	r0, [pc, #12]	; 8830 <init_luks_srv_ipc+0x7c>
    8820:	eb001bf8 	bl	f808 <fprintf>
}
    8824:	e1a00004 	mov	r0, r4
    8828:	e28dd008 	add	sp, sp, #8
    882c:	e8bd8010 	pop	{r4, pc}
    8830:	0001305c 	.word	0x0001305c

00008834 <kill_luks_srv_ipc>:
	TLOGI ("Terminating luks-srv IPC services.\n");
    8834:	e30f2f68 	movw	r2, #65384	; 0xff68
    8838:	e3001264 	movw	r1, #612	; 0x264
{
    883c:	e92d4010 	push	{r4, lr}
	TLOGI ("Terminating luks-srv IPC services.\n");
    8840:	e3402000 	movt	r2, #0
    8844:	e3401001 	movt	r1, #1
    8848:	e3a030ad 	mov	r3, #173	; 0xad
    884c:	e59f0010 	ldr	r0, [pc, #16]	; 8864 <kill_luks_srv_ipc+0x30>
    8850:	eb001bec 	bl	f808 <fprintf>
		_destroy_service(&_srv_states[i]);
    8854:	e303001c 	movw	r0, #12316	; 0x301c
}
    8858:	e8bd4010 	pop	{r4, lr}
		_destroy_service(&_srv_states[i]);
    885c:	e3400001 	movt	r0, #1
    8860:	eafffe78 	b	8248 <_destroy_service>
    8864:	0001305c 	.word	0x0001305c

00008868 <dispatch_luks_srv_ipc_event>:

void dispatch_luks_srv_ipc_event(const uevent_t *evt)
{
    8868:	e92d4010 	push	{r4, lr}
	assert(evt);
    886c:	e2504000 	subs	r4, r0, #0
{
    8870:	e24dd008 	sub	sp, sp, #8
	assert(evt);
    8874:	0a00002f 	beq	8938 <dispatch_luks_srv_ipc_event+0xd0>

	if (evt->event == IPC_HANDLE_POLL_NONE) {
    8878:	e5943004 	ldr	r3, [r4, #4]
    887c:	e3530000 	cmp	r3, #0
    8880:	0a00000b 	beq	88b4 <dispatch_luks_srv_ipc_event+0x4c>
		/* Not really an event, do nothing */
		TLOGI("got an empty event\n");
		return;
	}

	if (evt->handle == INVALID_IPC_HANDLE) {
    8884:	e594c000 	ldr	ip, [r4]
    8888:	e37c0001 	cmn	ip, #1
    888c:	0a00001e 	beq	890c <dispatch_luks_srv_ipc_event+0xa4>
		      evt->event, evt->handle);
		return;
	}

	/* Check if we have handler */
	struct tipc_event_handler *handler = evt->cookie;
    8890:	e5942008 	ldr	r2, [r4, #8]
	if (handler && handler->proc) {
    8894:	e3520000 	cmp	r2, #0
    8898:	0a00000e 	beq	88d8 <dispatch_luks_srv_ipc_event+0x70>
    889c:	e5922000 	ldr	r2, [r2]
    88a0:	e3520000 	cmp	r2, #0
    88a4:	0a00000b 	beq	88d8 <dispatch_luks_srv_ipc_event+0x70>
	TLOGI("no handler for event (0x%x) with handle %d\n",
	      evt->event, evt->handle);
	close(evt->handle);

	return;
}
    88a8:	e28dd008 	add	sp, sp, #8
    88ac:	e8bd4010 	pop	{r4, lr}
		handler->proc(evt);
    88b0:	e12fff12 	bx	r2
		TLOGI("got an empty event\n");
    88b4:	e30f2f68 	movw	r2, #65384	; 0xff68
    88b8:	e300116c 	movw	r1, #364	; 0x16c
    88bc:	e3402000 	movt	r2, #0
    88c0:	e3401001 	movt	r1, #1
    88c4:	e300317d 	movw	r3, #381	; 0x17d
    88c8:	e59f0088 	ldr	r0, [pc, #136]	; 8958 <dispatch_luks_srv_ipc_event+0xf0>
}
    88cc:	e28dd008 	add	sp, sp, #8
    88d0:	e8bd4010 	pop	{r4, lr}
		TLOGI("got an empty event\n");
    88d4:	ea001bcb 	b	f808 <fprintf>
	TLOGI("no handler for event (0x%x) with handle %d\n",
    88d8:	e30f2f68 	movw	r2, #65384	; 0xff68
    88dc:	e30011c0 	movw	r1, #448	; 0x1c0
    88e0:	e58d3000 	str	r3, [sp]
    88e4:	e3402000 	movt	r2, #0
    88e8:	e58dc004 	str	ip, [sp, #4]
    88ec:	e3401001 	movt	r1, #1
    88f0:	e3003192 	movw	r3, #402	; 0x192
    88f4:	e59f005c 	ldr	r0, [pc, #92]	; 8958 <dispatch_luks_srv_ipc_event+0xf0>
    88f8:	eb001bc2 	bl	f808 <fprintf>
	close(evt->handle);
    88fc:	e5940000 	ldr	r0, [r4]
}
    8900:	e28dd008 	add	sp, sp, #8
    8904:	e8bd4010 	pop	{r4, lr}
	close(evt->handle);
    8908:	ea000a53 	b	b25c <close>
		TLOGI("got an event (0x%x) with invalid handle (%d)",
    890c:	e30f2f68 	movw	r2, #65384	; 0xff68
    8910:	e3001188 	movw	r1, #392	; 0x188
    8914:	e58d3000 	str	r3, [sp]
    8918:	e3402000 	movt	r2, #0
    891c:	e58dc004 	str	ip, [sp, #4]
    8920:	e3401001 	movt	r1, #1
    8924:	e3a03f61 	mov	r3, #388	; 0x184
    8928:	e59f0028 	ldr	r0, [pc, #40]	; 8958 <dispatch_luks_srv_ipc_event+0xf0>
    892c:	eb001bb5 	bl	f808 <fprintf>
}
    8930:	e28dd008 	add	sp, sp, #8
    8934:	e8bd8010 	pop	{r4, pc}
	assert(evt);
    8938:	e3003144 	movw	r3, #324	; 0x144
    893c:	e30f2f90 	movw	r2, #65424	; 0xff90
    8940:	e3000148 	movw	r0, #328	; 0x148
    8944:	e3403001 	movt	r3, #1
    8948:	e3402000 	movt	r2, #0
    894c:	e3400001 	movt	r0, #1
    8950:	e3001179 	movw	r1, #377	; 0x179
    8954:	eb0000f2 	bl	8d24 <__assert2>
    8958:	0001305c 	.word	0x0001305c

0000895c <nist_sp_800_108_with_cmac>:
 * @return NO_ERROR if successful.
 */
static int nist_sp_800_108_with_cmac(uint8_t *key, char const *context,
				     char const *label,
				     uint8_t *out_dk)
{
    895c:	e92d4ff0 	push	{r4, r5, r6, r7, r8, r9, sl, fp, lr}
	 *  Regarding to NIST-SP-800-108
	 *  message = counter || label || 0 || context
	 *
	 *  A || B = The concatenation of binary strings A and B.
	 */
	msg_len = (context != NULL ? strnlen(context, LUKS_SRV_CONTEXT_STR_LEN) : 0) +
    8960:	e2518000 	subs	r8, r1, #0
{
    8964:	e24dd01c 	sub	sp, sp, #28
	uint8_t counter[] = { 1 }, zero_byte[] = { 0 };
    8968:	e3a06001 	mov	r6, #1
    896c:	e3a01000 	mov	r1, #0
{
    8970:	e1a09000 	mov	r9, r0
    8974:	e1a05002 	mov	r5, r2
    8978:	e1a0a003 	mov	sl, r3
	uint8_t counter[] = { 1 }, zero_byte[] = { 0 };
    897c:	e5cd600c 	strb	r6, [sp, #12]
    8980:	e5cd1010 	strb	r1, [sp, #16]
	msg_len = (context != NULL ? strnlen(context, LUKS_SRV_CONTEXT_STR_LEN) : 0) +
    8984:	0a000048 	beq	8aac <nist_sp_800_108_with_cmac+0x150>
    8988:	e3a01028 	mov	r1, #40	; 0x28
    898c:	e1a00008 	mov	r0, r8
    8990:	eb001c1b 	bl	fa04 <strnlen>
    8994:	e1a04000 	mov	r4, r0
		  (label != NULL ? strlen(label) : 0) + 2;
    8998:	e1a00005 	mov	r0, r5
    899c:	eb001c0c 	bl	f9d4 <strlen>
	msg_len = (context != NULL ? strnlen(context, LUKS_SRV_CONTEXT_STR_LEN) : 0) +
    89a0:	e0804004 	add	r4, r0, r4
		  (label != NULL ? strlen(label) : 0) + 2;
    89a4:	e2844002 	add	r4, r4, #2
	message = malloc(msg_len);
    89a8:	e1a00004 	mov	r0, r4
    89ac:	eb0001d6 	bl	910c <malloc>
	if (message == NULL) {
    89b0:	e2507000 	subs	r7, r0, #0
    89b4:	1a00000b 	bne	89e8 <nist_sp_800_108_with_cmac+0x8c>
		TLOGE("%s: malloc failed.\n", __func__);
    89b8:	e30033b4 	movw	r3, #948	; 0x3b4
    89bc:	e30f2f68 	movw	r2, #65384	; 0xff68
    89c0:	e3403001 	movt	r3, #1
    89c4:	e300146c 	movw	r1, #1132	; 0x46c
    89c8:	e58d3000 	str	r3, [sp]
    89cc:	e3402000 	movt	r2, #0
    89d0:	e3401001 	movt	r1, #1
    89d4:	e3a03046 	mov	r3, #70	; 0x46
    89d8:	e59f0164 	ldr	r0, [pc, #356]	; 8b44 <nist_sp_800_108_with_cmac+0x1e8>
		return ERR_NO_MEMORY;
    89dc:	e3e05004 	mvn	r5, #4
		TLOGE("%s: malloc failed.\n", __func__);
    89e0:	eb001b88 	bl	f808 <fprintf>
		return ERR_NO_MEMORY;
    89e4:	ea00002d 	b	8aa0 <nist_sp_800_108_with_cmac+0x144>
	}

	/* Concatenate the messages */
	mptr = message;
	memcpy(mptr , counter, sizeof(counter));
    89e8:	e1a02006 	mov	r2, r6
    89ec:	e28d100c 	add	r1, sp, #12
    89f0:	eb001b93 	bl	f844 <memcpy>
	mptr++;
    89f4:	e287b001 	add	fp, r7, #1
	if (label != NULL) {
		memcpy(mptr, label, strlen(label));
    89f8:	e1a00005 	mov	r0, r5
    89fc:	eb001bf4 	bl	f9d4 <strlen>
    8a00:	e1a01005 	mov	r1, r5
    8a04:	e1a02000 	mov	r2, r0
    8a08:	e1a0000b 	mov	r0, fp
    8a0c:	eb001b8c 	bl	f844 <memcpy>
		mptr += strlen(label);
    8a10:	e1a00005 	mov	r0, r5
    8a14:	eb001bee 	bl	f9d4 <strlen>
    8a18:	e08bb000 	add	fp, fp, r0
	}
	memcpy(mptr, zero_byte, sizeof(zero_byte));
    8a1c:	e1a02006 	mov	r2, r6
    8a20:	e28d1010 	add	r1, sp, #16
    8a24:	e1a0000b 	mov	r0, fp
    8a28:	eb001b85 	bl	f844 <memcpy>
	mptr++;
	if (context != NULL)
		memcpy(mptr, context, strlen(context));
    8a2c:	e1a00008 	mov	r0, r8
    8a30:	eb001be7 	bl	f9d4 <strlen>
    8a34:	e1a01008 	mov	r1, r8
    8a38:	e1a02000 	mov	r2, r0
    8a3c:	e28b0001 	add	r0, fp, #1
    8a40:	eb001b7f 	bl	f844 <memcpy>

	/* AES-CMAC */
	cmac = CMAC_CTX_new();
    8a44:	eb000ea3 	bl	c4d8 <CMAC_CTX_new>
	if (cmac == NULL) {
    8a48:	e2506000 	subs	r6, r0, #0
    8a4c:	0a000030 	beq	8b14 <nist_sp_800_108_with_cmac+0x1b8>
		TLOGE("%s: CMAC_CTX_new failed.\n", __func__);
		rc = ERR_NO_MEMORY;
		goto kdf_error;
	}

	CMAC_Init(cmac, key, AES_KEY_128_SIZE, EVP_aes_128_cbc(), NULL);
    8a50:	e3a05000 	mov	r5, #0
    8a54:	eb001136 	bl	cf34 <EVP_aes_128_cbc>
    8a58:	e1a01009 	mov	r1, r9
    8a5c:	e1a03000 	mov	r3, r0
    8a60:	e3a02010 	mov	r2, #16
    8a64:	e58d5000 	str	r5, [sp]
    8a68:	e1a00006 	mov	r0, r6
    8a6c:	eb000eda 	bl	c5dc <CMAC_Init>
	CMAC_Update(cmac, message, msg_len);
    8a70:	e1a02004 	mov	r2, r4
    8a74:	e1a01007 	mov	r1, r7
    8a78:	e1a00006 	mov	r0, r6
    8a7c:	eb000f4a 	bl	c7ac <CMAC_Update>
	CMAC_Final(cmac, out_dk, &cmact_len);
    8a80:	e1a0100a 	mov	r1, sl
    8a84:	e28d2014 	add	r2, sp, #20
    8a88:	e1a00006 	mov	r0, r6
    8a8c:	eb000f8d 	bl	c8c8 <CMAC_Final>

	CMAC_CTX_free(cmac);
    8a90:	e1a00006 	mov	r0, r6
    8a94:	eb000ec4 	bl	c5ac <CMAC_CTX_free>

kdf_error:
	free(message);
    8a98:	e1a00007 	mov	r0, r7
    8a9c:	eb000770 	bl	a864 <free>
	return rc;
}
    8aa0:	e1a00005 	mov	r0, r5
    8aa4:	e28dd01c 	add	sp, sp, #28
    8aa8:	e8bd8ff0 	pop	{r4, r5, r6, r7, r8, r9, sl, fp, pc}
		  (label != NULL ? strlen(label) : 0) + 2;
    8aac:	e1a00002 	mov	r0, r2
    8ab0:	eb001bc7 	bl	f9d4 <strlen>
    8ab4:	e2804002 	add	r4, r0, #2
	message = malloc(msg_len);
    8ab8:	e1a00004 	mov	r0, r4
    8abc:	eb000192 	bl	910c <malloc>
	if (message == NULL) {
    8ac0:	e2507000 	subs	r7, r0, #0
    8ac4:	0affffbb 	beq	89b8 <nist_sp_800_108_with_cmac+0x5c>
	memcpy(mptr , counter, sizeof(counter));
    8ac8:	e1a02006 	mov	r2, r6
    8acc:	e28d100c 	add	r1, sp, #12
    8ad0:	eb001b5b 	bl	f844 <memcpy>
	mptr++;
    8ad4:	e2878001 	add	r8, r7, #1
		memcpy(mptr, label, strlen(label));
    8ad8:	e1a00005 	mov	r0, r5
    8adc:	eb001bbc 	bl	f9d4 <strlen>
    8ae0:	e1a01005 	mov	r1, r5
    8ae4:	e1a02000 	mov	r2, r0
    8ae8:	e1a00008 	mov	r0, r8
    8aec:	eb001b54 	bl	f844 <memcpy>
		mptr += strlen(label);
    8af0:	e1a00005 	mov	r0, r5
    8af4:	eb001bb6 	bl	f9d4 <strlen>
	memcpy(mptr, zero_byte, sizeof(zero_byte));
    8af8:	e1a02006 	mov	r2, r6
    8afc:	e28d1010 	add	r1, sp, #16
    8b00:	e0880000 	add	r0, r8, r0
    8b04:	eb001b4e 	bl	f844 <memcpy>
	cmac = CMAC_CTX_new();
    8b08:	eb000e72 	bl	c4d8 <CMAC_CTX_new>
	if (cmac == NULL) {
    8b0c:	e2506000 	subs	r6, r0, #0
    8b10:	1affffce 	bne	8a50 <nist_sp_800_108_with_cmac+0xf4>
		TLOGE("%s: CMAC_CTX_new failed.\n", __func__);
    8b14:	e30033b4 	movw	r3, #948	; 0x3b4
    8b18:	e30f2f68 	movw	r2, #65384	; 0xff68
    8b1c:	e3403001 	movt	r3, #1
    8b20:	e3001488 	movw	r1, #1160	; 0x488
    8b24:	e58d3000 	str	r3, [sp]
    8b28:	e3402000 	movt	r2, #0
    8b2c:	e3401001 	movt	r1, #1
    8b30:	e3a0305a 	mov	r3, #90	; 0x5a
    8b34:	e59f0008 	ldr	r0, [pc, #8]	; 8b44 <nist_sp_800_108_with_cmac+0x1e8>
		rc = ERR_NO_MEMORY;
    8b38:	e3e05004 	mvn	r5, #4
		TLOGE("%s: CMAC_CTX_new failed.\n", __func__);
    8b3c:	eb001b31 	bl	f808 <fprintf>
		goto kdf_error;
    8b40:	eaffffd4 	b	8a98 <nist_sp_800_108_with_cmac+0x13c>
    8b44:	0001305c 	.word	0x0001305c

00008b48 <luks_srv_get_generic_pass>:

void luks_srv_get_generic_pass(luks_srv_cmd_msg_t *msg)
{
    8b48:	e1a01000 	mov	r1, r0
	nist_sp_800_108_with_cmac(luks_key_generic, msg->context_str,
    8b4c:	e30023f0 	movw	r2, #1008	; 0x3f0
    8b50:	e30300c4 	movw	r0, #12484	; 0x30c4
    8b54:	e281302c 	add	r3, r1, #44	; 0x2c
    8b58:	e3402001 	movt	r2, #1
    8b5c:	e2811004 	add	r1, r1, #4
    8b60:	e3400001 	movt	r0, #1
    8b64:	eaffff7c 	b	895c <nist_sp_800_108_with_cmac>

00008b68 <luks_srv_get_unique_pass>:
				  "luks-srv-passphrase-generic",
				  (uint8_t*)msg->output_passphrase);
}

void luks_srv_get_unique_pass(luks_srv_cmd_msg_t *msg)
{
    8b68:	e1a01000 	mov	r1, r0
	nist_sp_800_108_with_cmac(luks_key_unique, msg->context_str,
    8b6c:	e300240c 	movw	r2, #1036	; 0x40c
    8b70:	e30300d4 	movw	r0, #12500	; 0x30d4
    8b74:	e281302c 	add	r3, r1, #44	; 0x2c
    8b78:	e3402001 	movt	r2, #1
    8b7c:	e2811004 	add	r1, r1, #4
    8b80:	e3400001 	movt	r0, #1
    8b84:	eaffff74 	b	895c <nist_sp_800_108_with_cmac>

00008b88 <luks_srv_key_mgnt_processing>:
				  "luks-srv-passphrase-unique",
				  (uint8_t*)msg->output_passphrase);
}

int luks_srv_key_mgnt_processing(void)
{
    8b88:	e92d4030 	push	{r4, r5, lr}
    8b8c:	e24dd05c 	sub	sp, sp, #92	; 0x5c
	int rc = NO_ERROR;
	handle_t session;
	get_key_srv_cmd_msg_t msg;
	char ecid[40];

	rc = get_key_srv_open();
    8b90:	ebfffd68 	bl	8138 <get_key_srv_open>
	if (rc < 0)
    8b94:	e2504000 	subs	r4, r0, #0
    8b98:	aa00000d 	bge	8bd4 <luks_srv_key_mgnt_processing+0x4c>
	rc = nist_sp_800_108_with_cmac(msg.key, "generic-key", "luks-srv-generic",
				       luks_key_generic);

err_key_mgnt:
	if (rc != NO_ERROR)
		TLOGE("%s: failed (%d)\n", __func__, rc);
    8b9c:	e30033d0 	movw	r3, #976	; 0x3d0
    8ba0:	e30f2f68 	movw	r2, #65384	; 0xff68
    8ba4:	e3403001 	movt	r3, #1
    8ba8:	e30f1f74 	movw	r1, #65396	; 0xff74
    8bac:	e58d3000 	str	r3, [sp]
    8bb0:	e3402000 	movt	r2, #0
    8bb4:	e58d4004 	str	r4, [sp, #4]
    8bb8:	e3401000 	movt	r1, #0
    8bbc:	e3a03097 	mov	r3, #151	; 0x97
    8bc0:	e59f009c 	ldr	r0, [pc, #156]	; 8c64 <luks_srv_key_mgnt_processing+0xdc>
    8bc4:	eb001b0f 	bl	f808 <fprintf>
	return rc;
}
    8bc8:	e1a00004 	mov	r0, r4
    8bcc:	e28dd05c 	add	sp, sp, #92	; 0x5c
    8bd0:	e8bd8030 	pop	{r4, r5, pc}
	rc = get_key_srv_query_ekb_key(session, &msg);
    8bd4:	e28d100c 	add	r1, sp, #12
    8bd8:	e1a05000 	mov	r5, r0
    8bdc:	ebfffd59 	bl	8148 <get_key_srv_query_ekb_key>
	if (rc != 0)
    8be0:	e2504000 	subs	r4, r0, #0
    8be4:	1affffec 	bne	8b9c <luks_srv_key_mgnt_processing+0x14>
	get_key_srv_close(session);
    8be8:	e1a00005 	mov	r0, r5
    8bec:	ebfffd94 	bl	8244 <get_key_srv_close>
	sprintf(ecid, "%08x%08x%08x%08x", msg.ecid[3], msg.ecid[2],
    8bf0:	e59de020 	ldr	lr, [sp, #32]
    8bf4:	e3001428 	movw	r1, #1064	; 0x428
    8bf8:	e59dc024 	ldr	ip, [sp, #36]	; 0x24
    8bfc:	e3401001 	movt	r1, #1
    8c00:	e59d3028 	ldr	r3, [sp, #40]	; 0x28
    8c04:	e28d0030 	add	r0, sp, #48	; 0x30
    8c08:	e59d202c 	ldr	r2, [sp, #44]	; 0x2c
    8c0c:	e88d5000 	stm	sp, {ip, lr}
    8c10:	eb001ae2 	bl	f7a0 <sprintf>
	rc = nist_sp_800_108_with_cmac(msg.key, ecid, "luks-srv-ecid",
    8c14:	e30330d4 	movw	r3, #12500	; 0x30d4
    8c18:	e300243c 	movw	r2, #1084	; 0x43c
    8c1c:	e28d1030 	add	r1, sp, #48	; 0x30
    8c20:	e3403001 	movt	r3, #1
    8c24:	e3402001 	movt	r2, #1
    8c28:	e28d0010 	add	r0, sp, #16
    8c2c:	ebffff4a 	bl	895c <nist_sp_800_108_with_cmac>
	rc = nist_sp_800_108_with_cmac(msg.key, "generic-key", "luks-srv-generic",
    8c30:	e30330c4 	movw	r3, #12484	; 0x30c4
    8c34:	e300244c 	movw	r2, #1100	; 0x44c
    8c38:	e3001460 	movw	r1, #1120	; 0x460
    8c3c:	e28d0010 	add	r0, sp, #16
    8c40:	e3403001 	movt	r3, #1
    8c44:	e3402001 	movt	r2, #1
    8c48:	e3401001 	movt	r1, #1
    8c4c:	ebffff42 	bl	895c <nist_sp_800_108_with_cmac>
	if (rc != NO_ERROR)
    8c50:	e2504000 	subs	r4, r0, #0
    8c54:	1affffd0 	bne	8b9c <luks_srv_key_mgnt_processing+0x14>
}
    8c58:	e1a00004 	mov	r0, r4
    8c5c:	e28dd05c 	add	sp, sp, #92	; 0x5c
    8c60:	e8bd8030 	pop	{r4, r5, pc}
    8c64:	0001305c 	.word	0x0001305c

00008c68 <luks_srv_process_req>:

void luks_srv_process_req(iovec_t *ipc_msg)
{
	luks_srv_cmd_msg_t *msg = ipc_msg->base;

	if (no_pass_response)
    8c68:	e30330e4 	movw	r3, #12516	; 0x30e4
    8c6c:	e3403001 	movt	r3, #1
    8c70:	e5d32000 	ldrb	r2, [r3]
    8c74:	e3520000 	cmp	r2, #0
    8c78:	112fff1e 	bxne	lr
	luks_srv_cmd_msg_t *msg = ipc_msg->base;
    8c7c:	e5900000 	ldr	r0, [r0]
		return;

	switch (msg->luks_srv_cmd) {
    8c80:	e5902000 	ldr	r2, [r0]
    8c84:	e3520002 	cmp	r2, #2
    8c88:	0a000004 	beq	8ca0 <luks_srv_process_req+0x38>
    8c8c:	e352000a 	cmp	r2, #10
    8c90:	0a000003 	beq	8ca4 <luks_srv_process_req+0x3c>
    8c94:	e3520001 	cmp	r2, #1
    8c98:	112fff1e 	bxne	lr
	case LUKS_GET_UNIQUE_PASS:
		luks_srv_get_unique_pass(msg);
    8c9c:	eaffffb1 	b	8b68 <luks_srv_get_unique_pass>
		break;
	case LUKS_GET_GENERIC_PASS:
		luks_srv_get_generic_pass(msg);
    8ca0:	eaffffa8 	b	8b48 <luks_srv_get_generic_pass>
		break;
	case LUKS_NO_PASS_RESPONSE:
		no_pass_response = true;
    8ca4:	e3a02001 	mov	r2, #1
    8ca8:	e5c32000 	strb	r2, [r3]
		break;
	default:
		return;
	}
}
    8cac:	e12fff1e 	bx	lr

00008cb0 <_start>:

__attribute__ ((section (".bss")))
void *__dso_handle = (void *) 0;

/* Arguments are supplied in memory pointed by r0 */
void _start(void *args) {
    8cb0:	e92d4800 	push	{fp, lr}
    8cb4:	e28db004 	add	fp, sp, #4
    8cb8:	e24dd018 	sub	sp, sp, #24
    8cbc:	e50b0018 	str	r0, [fp, #-24]	; 0xffffffe8
  structors_array_t array;
  array.preinit_array = &__PREINIT_ARRAY__;
    8cc0:	e3033000 	movw	r3, #12288	; 0x3000
    8cc4:	e3403001 	movt	r3, #1
    8cc8:	e50b3010 	str	r3, [fp, #-16]
  array.init_array = &__INIT_ARRAY__;
    8ccc:	e3033008 	movw	r3, #12296	; 0x3008
    8cd0:	e3403001 	movt	r3, #1
    8cd4:	e50b300c 	str	r3, [fp, #-12]
  array.fini_array = (&__FINI_ARRAY__)[0] ? &__FINI_ARRAY__ : 0;
    8cd8:	e3033014 	movw	r3, #12308	; 0x3014
    8cdc:	e3403001 	movt	r3, #1
    8ce0:	e5933000 	ldr	r3, [r3]
    8ce4:	e3530000 	cmp	r3, #0
    8ce8:	0a000002 	beq	8cf8 <_start+0x48>
    8cec:	e3033014 	movw	r3, #12308	; 0x3014
    8cf0:	e3403001 	movt	r3, #1
    8cf4:	ea000000 	b	8cfc <_start+0x4c>
    8cf8:	e3a03000 	mov	r3, #0
    8cfc:	e50b3008 	str	r3, [fp, #-8]

  __libc_init(args, &main, &array);
    8d00:	e24b3010 	sub	r3, fp, #16
    8d04:	e1a02003 	mov	r2, r3
    8d08:	e308100c 	movw	r1, #32780	; 0x800c
    8d0c:	e3401000 	movt	r1, #0
    8d10:	e51b0018 	ldr	r0, [fp, #-24]	; 0xffffffe8
    8d14:	eb00090e 	bl	b154 <__libc_init>

00008d18 <abort>:

#include <stdlib.h>
#include <trusty_std.h>

void abort(void)
{
    8d18:	e92d4010 	push	{r4, lr}
	exit(1);
    8d1c:	e3a00001 	mov	r0, #1
    8d20:	ebfffcb6 	bl	8000 <exit>

00008d24 <__assert2>:
#include <assert.h>

#include "libc_fatal.h"

__NO_RETURN void __assert2(const char* file, int line, const char* function, const char* expr)
{
    8d24:	e52de004 	push	{lr}		; (str lr, [sp, #-4]!)
    8d28:	e24dd00c 	sub	sp, sp, #12
    __libc_fatal("%s:%d: %s: assert \"%s\" failed\n", file, line, function, expr);
    8d2c:	e58d3000 	str	r3, [sp]
    8d30:	e1a03002 	mov	r3, r2
    8d34:	e1a02001 	mov	r2, r1
    8d38:	e1a01000 	mov	r1, r0
    8d3c:	e300054c 	movw	r0, #1356	; 0x54c
    8d40:	e3400001 	movt	r0, #1
    8d44:	eb000927 	bl	b1e8 <__libc_fatal>

00008d48 <__cxa_atexit>:
 *
 *	http://www.codesourcery.com/cxx-abi/abi.html#dso-dtor
 */
int
__cxa_atexit(void (*func)(void *), void *arg)
{
    8d48:	e92d41f0 	push	{r4, r5, r6, r7, r8, lr}
	struct atexit *p = __atexit;
    8d4c:	e30358b4 	movw	r5, #14516	; 0x38b4
    8d50:	e3405001 	movt	r5, #1
{
    8d54:	e1a07000 	mov	r7, r0
    8d58:	e1a06001 	mov	r6, r1
	struct atexit *p = __atexit;
    8d5c:	e5954000 	ldr	r4, [r5]
	struct atexit_fn *fnp;
	int size = 64;
	int ret = -1;

	if (p != NULL) {
    8d60:	e3540000 	cmp	r4, #0
    8d64:	0a000004 	beq	8d7c <__cxa_atexit+0x34>
		if (p->ind + 1 >= p->max)
    8d68:	e5943004 	ldr	r3, [r4, #4]
    8d6c:	e5941008 	ldr	r1, [r4, #8]
    8d70:	e2832001 	add	r2, r3, #1
    8d74:	e1520001 	cmp	r2, r1
    8d78:	ba000014 	blt	8dd0 <__cxa_atexit+0x88>
			p = NULL;
	}
	if (p == NULL) {
		p = malloc(size);
    8d7c:	e3a00040 	mov	r0, #64	; 0x40
    8d80:	eb0000e1 	bl	910c <malloc>
		if (!p)
    8d84:	e2504000 	subs	r4, r0, #0
    8d88:	0a00001d 	beq	8e04 <__cxa_atexit+0xbc>
			goto done;
		if (__atexit == NULL) {
    8d8c:	e5951000 	ldr	r1, [r5]
    8d90:	e3510000 	cmp	r1, #0
			memset(&p->fns[0], 0, sizeof(p->fns[0]));
			p->ind = 1;
		} else
			p->ind = 0;
    8d94:	13a03000 	movne	r3, #0
    8d98:	15843004 	strne	r3, [r4, #4]
		if (__atexit == NULL) {
    8d9c:	0a000011 	beq	8de8 <__cxa_atexit+0xa0>
		p->max = (size - ((char *)&p->fns[0] - (char *)p)) /
		    sizeof(p->fns[0]);
		p->next = __atexit;
		__atexit = p;
		if (__atexit_invalid)
    8da0:	e3032030 	movw	r2, #12336	; 0x3030
		p->next = __atexit;
    8da4:	e5841000 	str	r1, [r4]
		if (__atexit_invalid)
    8da8:	e3402001 	movt	r2, #1
		p->max = (size - ((char *)&p->fns[0] - (char *)p)) /
    8dac:	e3a01006 	mov	r1, #6
		if (__atexit_invalid)
    8db0:	e5923000 	ldr	r3, [r2]
		p->max = (size - ((char *)&p->fns[0] - (char *)p)) /
    8db4:	e5841008 	str	r1, [r4, #8]
		__atexit = p;
    8db8:	e5854000 	str	r4, [r5]
		if (__atexit_invalid)
    8dbc:	e3530000 	cmp	r3, #0
    8dc0:	e5943004 	ldr	r3, [r4, #4]
			__atexit_invalid = 0;
    8dc4:	13a01000 	movne	r1, #0
    8dc8:	15821000 	strne	r1, [r2]
    8dcc:	e2832001 	add	r2, r3, #1
    8dd0:	e0843183 	add	r3, r4, r3, lsl #3
	}
	fnp = &p->fns[p->ind++];
    8dd4:	e5842004 	str	r2, [r4, #4]
	fnp->fn_ptr.cxa_func = func;
	fnp->fn_arg = arg;
	ret = 0;
    8dd8:	e3a00000 	mov	r0, #0
	fnp->fn_ptr.cxa_func = func;
    8ddc:	e583700c 	str	r7, [r3, #12]
	fnp->fn_arg = arg;
    8de0:	e5836010 	str	r6, [r3, #16]
    8de4:	e8bd81f0 	pop	{r4, r5, r6, r7, r8, pc}
			memset(&p->fns[0], 0, sizeof(p->fns[0]));
    8de8:	e3a02008 	mov	r2, #8
    8dec:	e284000c 	add	r0, r4, #12
    8df0:	eb001ace 	bl	f930 <memset>
			p->ind = 1;
    8df4:	e3a03001 	mov	r3, #1
    8df8:	e5951000 	ldr	r1, [r5]
    8dfc:	e5843004 	str	r3, [r4, #4]
    8e00:	eaffffe6 	b	8da0 <__cxa_atexit+0x58>
	int ret = -1;
    8e04:	e3e00000 	mvn	r0, #0
done:
	return (ret);
}
    8e08:	e8bd81f0 	pop	{r4, r5, r6, r7, r8, pc}

00008e0c <__cxa_finalize>:
	struct atexit *p, *q;
	struct atexit_fn fn;
	int n;
	static int call_depth;

	if (__atexit_invalid)
    8e0c:	e3033030 	movw	r3, #12336	; 0x3030
{
    8e10:	e92d47f0 	push	{r4, r5, r6, r7, r8, r9, sl, lr}
	if (__atexit_invalid)
    8e14:	e3403001 	movt	r3, #1
    8e18:	e5936000 	ldr	r6, [r3]
    8e1c:	e3560000 	cmp	r6, #0
    8e20:	18bd87f0 	popne	{r4, r5, r6, r7, r8, r9, sl, pc}
		return;

	call_depth++;

	for (p = __atexit; p != NULL; p = p->next) {
    8e24:	e30398b4 	movw	r9, #14516	; 0x38b4
	call_depth++;
    8e28:	e30380e8 	movw	r8, #12520	; 0x30e8
	for (p = __atexit; p != NULL; p = p->next) {
    8e2c:	e3409001 	movt	r9, #1
	call_depth++;
    8e30:	e3408001 	movt	r8, #1
	for (p = __atexit; p != NULL; p = p->next) {
    8e34:	e5997000 	ldr	r7, [r9]
	call_depth++;
    8e38:	e5983000 	ldr	r3, [r8]
	for (p = __atexit; p != NULL; p = p->next) {
    8e3c:	e3570000 	cmp	r7, #0
	call_depth++;
    8e40:	e2833001 	add	r3, r3, #1
    8e44:	e5883000 	str	r3, [r8]
	for (p = __atexit; p != NULL; p = p->next) {
    8e48:	0a00000f 	beq	8e8c <__cxa_finalize+0x80>
		for (n = p->ind; --n >= 0;) {
    8e4c:	e5975004 	ldr	r5, [r7, #4]
    8e50:	e0874185 	add	r4, r7, r5, lsl #3
    8e54:	ea000006 	b	8e74 <__cxa_finalize+0x68>
			if (p->fns[n].fn_ptr.cxa_func == NULL)
    8e58:	e5943004 	ldr	r3, [r4, #4]
    8e5c:	e3530000 	cmp	r3, #0
    8e60:	0a000002 	beq	8e70 <__cxa_finalize+0x64>

			/*
			 * Mark handler as having been already called to avoid
			 * dupes and loops, then call the appropriate function.
			 */
			fn = p->fns[n];
    8e64:	e5940008 	ldr	r0, [r4, #8]
			p->fns[n].fn_ptr.cxa_func = NULL;
    8e68:	e5846004 	str	r6, [r4, #4]
                        (*fn.fn_ptr.cxa_func)(fn.fn_arg);
    8e6c:	e12fff33 	blx	r3
    8e70:	e2444008 	sub	r4, r4, #8
		for (n = p->ind; --n >= 0;) {
    8e74:	e2555001 	subs	r5, r5, #1
    8e78:	5afffff6 	bpl	8e58 <__cxa_finalize+0x4c>
	for (p = __atexit; p != NULL; p = p->next) {
    8e7c:	e5977000 	ldr	r7, [r7]
    8e80:	e3570000 	cmp	r7, #0
    8e84:	1afffff0 	bne	8e4c <__cxa_finalize+0x40>
    8e88:	e5983000 	ldr	r3, [r8]
	/*
	 * If called via exit(), unmap the pages since we have now run
	 * all the handlers.  We defer this until calldepth == 0 so that
	 * we don't unmap things prematurely if called recursively.
	 */
	if (--call_depth == 0) {
    8e8c:	e2433001 	sub	r3, r3, #1
    8e90:	e3530000 	cmp	r3, #0
    8e94:	e5883000 	str	r3, [r8]
    8e98:	18bd87f0 	popne	{r4, r5, r6, r7, r8, r9, sl, pc}
		for (p = __atexit; p != NULL; ) {
    8e9c:	e5990000 	ldr	r0, [r9]
    8ea0:	e3500000 	cmp	r0, #0
    8ea4:	0a000003 	beq	8eb8 <__cxa_finalize+0xac>
			q = p;
			p = p->next;
    8ea8:	e5904000 	ldr	r4, [r0]
			free(q);
    8eac:	eb00066c 	bl	a864 <free>
		for (p = __atexit; p != NULL; ) {
    8eb0:	e2540000 	subs	r0, r4, #0
    8eb4:	1afffffb 	bne	8ea8 <__cxa_finalize+0x9c>
		}
		__atexit = NULL;
    8eb8:	e3a03000 	mov	r3, #0
    8ebc:	e5893000 	str	r3, [r9]
	}
}
    8ec0:	e8bd87f0 	pop	{r4, r5, r6, r7, r8, r9, sl, pc}

00008ec4 <sbrk>:

static char *__libc_brk;

#define SBRK_ALIGN	32
static void *sbrk(ptrdiff_t increment)
{
    8ec4:	e92d4070 	push	{r4, r5, r6, lr}
	char *new_brk;
	char *start;
	char *end;

	if (!__libc_brk)
    8ec8:	e30360ec 	movw	r6, #12524	; 0x30ec
    8ecc:	e3406001 	movt	r6, #1
{
    8ed0:	e1a04000 	mov	r4, r0
	if (!__libc_brk)
    8ed4:	e5960000 	ldr	r0, [r6]
    8ed8:	e3500000 	cmp	r0, #0
    8edc:	0a00000b 	beq	8f10 <sbrk+0x4c>
		__libc_brk = (char *)brk(0);

	start = (char *)ROUNDUP((long)__libc_brk, SBRK_ALIGN);
    8ee0:	e280001f 	add	r0, r0, #31
	end   = start + ROUNDUP((long)increment, SBRK_ALIGN);
    8ee4:	e284401f 	add	r4, r4, #31
	start = (char *)ROUNDUP((long)__libc_brk, SBRK_ALIGN);
    8ee8:	e3c0501f 	bic	r5, r0, #31
	end   = start + ROUNDUP((long)increment, SBRK_ALIGN);
    8eec:	e3c4401f 	bic	r4, r4, #31
    8ef0:	e0854004 	add	r4, r5, r4

	new_brk = (char *)brk((uint32_t)end);
    8ef4:	e1a00004 	mov	r0, r4
    8ef8:	eb0008c8 	bl	b220 <brk>
	if (new_brk < end)
    8efc:	e1540000 	cmp	r4, r0
		return (void *)-1;
    8f00:	83e05000 	mvnhi	r5, #0

	__libc_brk = new_brk;
    8f04:	95860000 	strls	r0, [r6]
	return start;
}
    8f08:	e1a00005 	mov	r0, r5
    8f0c:	e8bd8070 	pop	{r4, r5, r6, pc}
		__libc_brk = (char *)brk(0);
    8f10:	eb0008c2 	bl	b220 <brk>
    8f14:	e5860000 	str	r0, [r6]
    8f18:	eafffff0 	b	8ee0 <sbrk+0x1c>

00008f1c <init_mparams.part.2>:
static void post_fork_parent(void) { RELEASE_LOCK(&(gm)->mutex); }
static void post_fork_child(void)  { INITIAL_LOCK(&(gm)->mutex); }
#endif /* LOCK_AT_FORK */

/* Initialize mparams */
static int init_mparams(void) {
    8f1c:	e52de004 	push	{lr}		; (str lr, [sp, #-4]!)
      magic = (size_t)&magic ^ (size_t)0x55555555U;
#else
      magic = (size_t)(time(0) ^ (size_t)0x55555555U);
#endif
      magic |= (size_t)8U;    /* ensure nonzero */
      magic &= ~(size_t)7U;   /* improve chances of fault for bad values */
    8f20:	e3052550 	movw	r2, #21840	; 0x5550
static int init_mparams(void) {
    8f24:	e24dd00c 	sub	sp, sp, #12
      magic &= ~(size_t)7U;   /* improve chances of fault for bad values */
    8f28:	e3452555 	movt	r2, #21845	; 0x5555
      magic = (size_t)&magic ^ (size_t)0x55555555U;
    8f2c:	e1a0100d 	mov	r1, sp
    mparams.granularity = gsize;
    8f30:	e30332c8 	movw	r3, #13000	; 0x32c8
      magic &= ~(size_t)7U;   /* improve chances of fault for bad values */
    8f34:	e0222001 	eor	r2, r2, r1
    mparams.granularity = gsize;
    8f38:	e3403001 	movt	r3, #1
      magic &= ~(size_t)7U;   /* improve chances of fault for bad values */
    8f3c:	e3822008 	orr	r2, r2, #8
    gm->mflags = mparams.default_mflags;
    8f40:	e30310f0 	movw	r1, #12528	; 0x30f0
    mparams.granularity = gsize;
    8f44:	e3a00a01 	mov	r0, #4096	; 0x1000
    mparams.mmap_threshold = DEFAULT_MMAP_THRESHOLD;
    8f48:	e3e0e000 	mvn	lr, #0
    mparams.trim_threshold = DEFAULT_TRIM_THRESHOLD;
    8f4c:	e3a0c602 	mov	ip, #2097152	; 0x200000
    gm->mflags = mparams.default_mflags;
    8f50:	e3401001 	movt	r1, #1
      /* Until memory modes commonly available, use volatile-write */
      (*(volatile size_t *)(&(mparams.magic))) = magic;
    8f54:	e5832000 	str	r2, [r3]
    mparams.default_mflags = USE_LOCK_BIT|USE_MMAP_BIT;
    8f58:	e3a02000 	mov	r2, #0
    mparams.mmap_threshold = DEFAULT_MMAP_THRESHOLD;
    8f5c:	e583e00c 	str	lr, [r3, #12]
    mparams.trim_threshold = DEFAULT_TRIM_THRESHOLD;
    8f60:	e583c010 	str	ip, [r3, #16]
    mparams.granularity = gsize;
    8f64:	e5830008 	str	r0, [r3, #8]
    mparams.page_size = psize;
    8f68:	e5830004 	str	r0, [r3, #4]
    mparams.default_mflags = USE_LOCK_BIT|USE_MMAP_BIT;
    8f6c:	e5832014 	str	r2, [r3, #20]
    gm->mflags = mparams.default_mflags;
    8f70:	e58121bc 	str	r2, [r1, #444]	; 0x1bc
    }
  }

  RELEASE_MALLOC_GLOBAL_LOCK();
  return 1;
}
    8f74:	e28dd00c 	add	sp, sp, #12
    8f78:	e49df004 	pop	{pc}		; (ldr pc, [sp], #4)

00008f7c <sys_trim.constprop.7>:
  m->release_checks = (((size_t) nsegs > (size_t) MAX_RELEASE_CHECK_RATE)?
                       (size_t) nsegs : (size_t) MAX_RELEASE_CHECK_RATE);
  return released;
}

static int sys_trim(mstate m, size_t pad) {
    8f7c:	e92d41f0 	push	{r4, r5, r6, r7, r8, lr}
  size_t released = 0;
  ensure_initialization();
    8f80:	e30352c8 	movw	r5, #13000	; 0x32c8
    8f84:	e3405001 	movt	r5, #1
static int sys_trim(mstate m, size_t pad) {
    8f88:	e1a04000 	mov	r4, r0
  ensure_initialization();
    8f8c:	e5953000 	ldr	r3, [r5]
    8f90:	e3530000 	cmp	r3, #0
    8f94:	0a000030 	beq	905c <sys_trim.constprop.7+0xe0>
  if (pad < MAX_REQUEST && is_initialized(m)) {
    8f98:	e3740041 	cmn	r4, #65	; 0x41
    8f9c:	8a00002c 	bhi	9054 <sys_trim.constprop.7+0xd8>
    8fa0:	e30360f0 	movw	r6, #12528	; 0x30f0
    8fa4:	e3406001 	movt	r6, #1
    8fa8:	e5962018 	ldr	r2, [r6, #24]
    8fac:	e3520000 	cmp	r2, #0
    8fb0:	0a000027 	beq	9054 <sys_trim.constprop.7+0xd8>
    pad += TOP_FOOT_SIZE; /* ensure enough room for segment overhead */

    if (m->topsize > pad) {
    8fb4:	e596100c 	ldr	r1, [r6, #12]
    pad += TOP_FOOT_SIZE; /* ensure enough room for segment overhead */
    8fb8:	e2840028 	add	r0, r4, #40	; 0x28
    if (m->topsize > pad) {
    8fbc:	e1500001 	cmp	r0, r1
    8fc0:	2a000020 	bcs	9048 <sys_trim.constprop.7+0xcc>
  msegmentptr sp = &m->seg;
    8fc4:	e2864d07 	add	r4, r6, #448	; 0x1c0
    if (addr >= sp->base && addr < sp->base + sp->size)
    8fc8:	e5943000 	ldr	r3, [r4]
    8fcc:	e1520003 	cmp	r2, r3
    8fd0:	3a000003 	bcc	8fe4 <sys_trim.constprop.7+0x68>
    8fd4:	e594c004 	ldr	ip, [r4, #4]
    8fd8:	e083300c 	add	r3, r3, ip
    8fdc:	e1520003 	cmp	r2, r3
    8fe0:	3a000004 	bcc	8ff8 <sys_trim.constprop.7+0x7c>
    if ((sp = sp->next) == 0)
    8fe4:	e5944008 	ldr	r4, [r4, #8]
    8fe8:	e3540000 	cmp	r4, #0
    8fec:	1afffff5 	bne	8fc8 <sys_trim.constprop.7+0x4c>
      size_t unit = mparams.granularity;
      size_t extra = ((m->topsize - pad + (unit - SIZE_T_ONE)) / unit -
                      SIZE_T_ONE) * unit;
      msegmentptr sp = segment_holding(m, (char*)m->top);

      if (!is_extern_segment(sp)) {
    8ff0:	e594300c 	ldr	r3, [r4, #12]
    8ff4:	e7f000f0 	udf	#0
    8ff8:	e594300c 	ldr	r3, [r4, #12]
    8ffc:	e3130008 	tst	r3, #8
    9000:	1a000010 	bne	9048 <sys_trim.constprop.7+0xcc>
      size_t unit = mparams.granularity;
    9004:	e5953008 	ldr	r3, [r5, #8]
      size_t extra = ((m->topsize - pad + (unit - SIZE_T_ONE)) / unit -
    9008:	e0817003 	add	r7, r1, r3
    900c:	e2477001 	sub	r7, r7, #1
    9010:	e0477000 	sub	r7, r7, r0
    9014:	e737f317 	udiv	r7, r7, r3
    9018:	e2477001 	sub	r7, r7, #1
          if (extra >= HALF_MAX_SIZE_T) /* Avoid wrapping negative */
            extra = (HALF_MAX_SIZE_T) + SIZE_T_ONE - unit;
          ACQUIRE_MALLOC_GLOBAL_LOCK();
          {
            /* Make sure end of memory is where we last set it. */
            char* old_br = (char*)(CALL_MORECORE(0));
    901c:	e3a00000 	mov	r0, #0
      size_t extra = ((m->topsize - pad + (unit - SIZE_T_ONE)) / unit -
    9020:	e0070793 	mul	r7, r3, r7
          if (extra >= HALF_MAX_SIZE_T) /* Avoid wrapping negative */
    9024:	e377010a 	cmn	r7, #-2147483646	; 0x80000002
            extra = (HALF_MAX_SIZE_T) + SIZE_T_ONE - unit;
    9028:	82637102 	rsbhi	r7, r3, #-2147483648	; 0x80000000
            char* old_br = (char*)(CALL_MORECORE(0));
    902c:	ebffffa4 	bl	8ec4 <sbrk>
            if (old_br == sp->base + sp->size) {
    9030:	e1c420d0 	ldrd	r2, [r4]
            char* old_br = (char*)(CALL_MORECORE(0));
    9034:	e1a08000 	mov	r8, r0
            if (old_br == sp->base + sp->size) {
    9038:	e0833002 	add	r3, r3, r2
    903c:	e1500003 	cmp	r0, r3
    9040:	0a00000b 	beq	9074 <sys_trim.constprop.7+0xf8>
    9044:	e596100c 	ldr	r1, [r6, #12]
    /* Unmap any unused mmapped segments */
    if (HAVE_MMAP)
      released += release_unused_segments(m);

    /* On failure, disable autotrim to avoid repeated failed future calls */
    if (released == 0 && m->topsize > m->trim_check)
    9048:	e596301c 	ldr	r3, [r6, #28]
    904c:	e1530001 	cmp	r3, r1
    9050:	3a000003 	bcc	9064 <sys_trim.constprop.7+0xe8>
  size_t offset = align_offset(chunk2mem(p));
    9054:	e3a00000 	mov	r0, #0
    9058:	e8bd81f0 	pop	{r4, r5, r6, r7, r8, pc}
    905c:	ebffffae 	bl	8f1c <init_mparams.part.2>
    9060:	eaffffcc 	b	8f98 <sys_trim.constprop.7+0x1c>
      m->trim_check = MAX_SIZE_T;
    9064:	e3e03000 	mvn	r3, #0
    9068:	e3a00000 	mov	r0, #0
    906c:	e586301c 	str	r3, [r6, #28]
  }

  return (released != 0)? 1 : 0;
}
    9070:	e8bd81f0 	pop	{r4, r5, r6, r7, r8, pc}
              char* rel_br = (char*)(CALL_MORECORE(-extra));
    9074:	e2670000 	rsb	r0, r7, #0
    9078:	ebffff91 	bl	8ec4 <sbrk>
    907c:	e1a07000 	mov	r7, r0
              char* new_br = (char*)(CALL_MORECORE(0));
    9080:	e3a00000 	mov	r0, #0
    9084:	ebffff8e 	bl	8ec4 <sbrk>
              if (rel_br != CMFAIL && new_br < old_br)
    9088:	e3770001 	cmn	r7, #1
    908c:	11580000 	cmpne	r8, r0
    9090:	9affffeb 	bls	9044 <sys_trim.constprop.7+0xc8>
      if (released != 0) {
    9094:	e0588000 	subs	r8, r8, r0
    9098:	0affffe9 	beq	9044 <sys_trim.constprop.7+0xc8>
        init_top(m, m->top, m->topsize - released);
    909c:	e5962018 	ldr	r2, [r6, #24]
  chunk_plus_offset(p, psize)->head = TOP_FOOT_SIZE;
    90a0:	e3a0e028 	mov	lr, #40	; 0x28
        sp->size -= released;
    90a4:	e594c004 	ldr	ip, [r4, #4]
        init_top(m, m->top, m->topsize - released);
    90a8:	e596100c 	ldr	r1, [r6, #12]
  size_t offset = align_offset(chunk2mem(p));
    90ac:	e2823008 	add	r3, r2, #8
        m->footprint -= released;
    90b0:	e59601b0 	ldr	r0, [r6, #432]	; 0x1b0
  size_t offset = align_offset(chunk2mem(p));
    90b4:	e3130007 	tst	r3, #7
        sp->size -= released;
    90b8:	e04cc008 	sub	ip, ip, r8
  size_t offset = align_offset(chunk2mem(p));
    90bc:	12633000 	rsbne	r3, r3, #0
        sp->size -= released;
    90c0:	e584c004 	str	ip, [r4, #4]
  size_t offset = align_offset(chunk2mem(p));
    90c4:	12033007 	andne	r3, r3, #7
        m->footprint -= released;
    90c8:	e0400008 	sub	r0, r0, r8
  m->trim_check = mparams.trim_threshold; /* reset on each update */
    90cc:	e595c010 	ldr	ip, [r5, #16]
        init_top(m, m->top, m->topsize - released);
    90d0:	e0418008 	sub	r8, r1, r8
  size_t offset = align_offset(chunk2mem(p));
    90d4:	01a03008 	moveq	r3, r8
    90d8:	10821003 	addne	r1, r2, r3
    90dc:	10483003 	subne	r3, r8, r3
    90e0:	01a01002 	moveq	r1, r2
  p->head = psize | PINUSE_BIT;
    90e4:	e3834001 	orr	r4, r3, #1
  chunk_plus_offset(p, psize)->head = TOP_FOOT_SIZE;
    90e8:	e0822008 	add	r2, r2, r8
        m->footprint -= released;
    90ec:	e58601b0 	str	r0, [r6, #432]	; 0x1b0
  m->trim_check = mparams.trim_threshold; /* reset on each update */
    90f0:	e3a00001 	mov	r0, #1
  m->top = p;
    90f4:	e5861018 	str	r1, [r6, #24]
  m->topsize = psize;
    90f8:	e586300c 	str	r3, [r6, #12]
  p->head = psize | PINUSE_BIT;
    90fc:	e5814004 	str	r4, [r1, #4]
  chunk_plus_offset(p, psize)->head = TOP_FOOT_SIZE;
    9100:	e582e004 	str	lr, [r2, #4]
  m->trim_check = mparams.trim_threshold; /* reset on each update */
    9104:	e586c01c 	str	ip, [r6, #28]
    9108:	e8bd81f0 	pop	{r4, r5, r6, r7, r8, pc}

0000910c <malloc>:
#endif

  if (!PREACTION(gm)) {
    void* mem;
    size_t nb;
    if (bytes <= MAX_SMALL_REQUEST) {
    910c:	e35000f4 	cmp	r0, #244	; 0xf4
void* dlmalloc(size_t bytes) {
    9110:	e92d4ff0 	push	{r4, r5, r6, r7, r8, r9, sl, fp, lr}
    9114:	e24dd00c 	sub	sp, sp, #12
    if (bytes <= MAX_SMALL_REQUEST) {
    9118:	8a00002d 	bhi	91d4 <malloc+0xc8>
      bindex_t idx;
      binmap_t smallbits;
      nb = (bytes < MIN_REQUEST)? MIN_CHUNK_SIZE : pad_request(bytes);
      idx = small_index(nb);
      smallbits = gm->smallmap >> idx;
    911c:	e30360f0 	movw	r6, #12528	; 0x30f0
      nb = (bytes < MIN_REQUEST)? MIN_CHUNK_SIZE : pad_request(bytes);
    9120:	e350000a 	cmp	r0, #10
      smallbits = gm->smallmap >> idx;
    9124:	e3406001 	movt	r6, #1
      nb = (bytes < MIN_REQUEST)? MIN_CHUNK_SIZE : pad_request(bytes);
    9128:	8280400b 	addhi	r4, r0, #11
      smallbits = gm->smallmap >> idx;
    912c:	e596c000 	ldr	ip, [r6]
      nb = (bytes < MIN_REQUEST)? MIN_CHUNK_SIZE : pad_request(bytes);
    9130:	83c44007 	bichi	r4, r4, #7
    9134:	81a021a4 	lsrhi	r2, r4, #3
    9138:	93a02002 	movls	r2, #2
    913c:	93a04010 	movls	r4, #16
      smallbits = gm->smallmap >> idx;
    9140:	e1a0323c 	lsr	r3, ip, r2

      if ((smallbits & 0x3U) != 0) { /* Remainderless fit to a smallbin. */
    9144:	e3130003 	tst	r3, #3
    9148:	0a00004a 	beq	9278 <malloc+0x16c>
        mchunkptr b, p;
        idx += ~smallbits & 1;       /* Uses next bin if idx empty */
    914c:	e1e03003 	mvn	r3, r3
    9150:	e2033001 	and	r3, r3, #1
    9154:	e0833002 	add	r3, r3, r2
        b = smallbin_at(gm, idx);
    9158:	e0861183 	add	r1, r6, r3, lsl #3
    915c:	e2811028 	add	r1, r1, #40	; 0x28
        p = b->fd;
    9160:	e5910008 	ldr	r0, [r1, #8]
        assert(chunksize(p) == small_index2size(idx));
    9164:	e5902004 	ldr	r2, [r0, #4]
    9168:	e3c22007 	bic	r2, r2, #7
    916c:	e1520183 	cmp	r2, r3, lsl #3
    9170:	1a0001c0 	bne	9878 <malloc+0x76c>
        unlink_first_small_chunk(gm, b, p, idx);
    9174:	e1510000 	cmp	r1, r0
    9178:	e590e008 	ldr	lr, [r0, #8]
    917c:	0a0001bd 	beq	9878 <malloc+0x76c>
    9180:	e150000e 	cmp	r0, lr
    9184:	0a0001bb 	beq	9878 <malloc+0x76c>
    9188:	e151000e 	cmp	r1, lr
    918c:	0a00017d 	beq	9788 <malloc+0x67c>
    9190:	e5963010 	ldr	r3, [r6, #16]
    9194:	e153000e 	cmp	r3, lr
    9198:	8a0001b6 	bhi	9878 <malloc+0x76c>
    919c:	e59e300c 	ldr	r3, [lr, #12]
    91a0:	e1530000 	cmp	r3, r0
    91a4:	1a0001b3 	bne	9878 <malloc+0x76c>
    91a8:	e58e100c 	str	r1, [lr, #12]
    91ac:	e581e008 	str	lr, [r1, #8]
        set_inuse_and_pinuse(gm, p, small_index2size(idx));
    91b0:	e3823003 	orr	r3, r2, #3
    91b4:	e0802002 	add	r2, r0, r2
    91b8:	e5803004 	str	r3, [r0, #4]
        mem = chunk2mem(p);
    91bc:	e2800008 	add	r0, r0, #8
        set_inuse_and_pinuse(gm, p, small_index2size(idx));
    91c0:	e5923004 	ldr	r3, [r2, #4]
    91c4:	e3833001 	orr	r3, r3, #1
    91c8:	e5823004 	str	r3, [r2, #4]
    POSTACTION(gm);
    return mem;
  }

  return 0;
}
    91cc:	e28dd00c 	add	sp, sp, #12
    91d0:	e8bd8ff0 	pop	{r4, r5, r6, r7, r8, r9, sl, fp, pc}
    91d4:	e30360f0 	movw	r6, #12528	; 0x30f0
    else if (bytes >= MAX_REQUEST)
    91d8:	e3700041 	cmn	r0, #65	; 0x41
    91dc:	e3406001 	movt	r6, #1
    91e0:	e5961008 	ldr	r1, [r6, #8]
    91e4:	9a00000d 	bls	9220 <malloc+0x114>
    if (nb <= gm->dvsize) {
    91e8:	e3710001 	cmn	r1, #1
    91ec:	1a000086 	bne	940c <malloc+0x300>
      mchunkptr p = gm->dv;
    91f0:	e5960014 	ldr	r0, [r6, #20]
    91f4:	e2402001 	sub	r2, r0, #1
        gm->dvsize = 0;
    91f8:	e3a03000 	mov	r3, #0
    91fc:	e5863008 	str	r3, [r6, #8]
        gm->dv = 0;
    9200:	e5863014 	str	r3, [r6, #20]
        set_inuse_and_pinuse(gm, p, dvs);
    9204:	e5801004 	str	r1, [r0, #4]
    9208:	e5923004 	ldr	r3, [r2, #4]
    920c:	e3833001 	orr	r3, r3, #1
    9210:	e5823004 	str	r3, [r2, #4]
      mem = chunk2mem(p);
    9214:	e2800008 	add	r0, r0, #8
}
    9218:	e28dd00c 	add	sp, sp, #12
    921c:	e8bd8ff0 	pop	{r4, r5, r6, r7, r8, r9, sl, fp, pc}
      if (gm->treemap != 0 && (mem = tmalloc_large(gm, nb)) != 0) {
    9220:	e596c004 	ldr	ip, [r6, #4]
      nb = pad_request(bytes);
    9224:	e280400b 	add	r4, r0, #11
    9228:	e3c44007 	bic	r4, r4, #7
      if (gm->treemap != 0 && (mem = tmalloc_large(gm, nb)) != 0) {
    922c:	e35c0000 	cmp	ip, #0
    9230:	1a0000d3 	bne	9584 <malloc+0x478>
    if (nb <= gm->dvsize) {
    9234:	e1540001 	cmp	r4, r1
    9238:	9a000065 	bls	93d4 <malloc+0x2c8>
    else if (nb < gm->topsize) { /* Split top */
    923c:	e596300c 	ldr	r3, [r6, #12]
    9240:	e1530004 	cmp	r3, r4
    9244:	9a000580 	bls	a84c <malloc+0x1740>
      mchunkptr p = m->top;
    9248:	e5962018 	ldr	r2, [r6, #24]
      size_t rsize = m->topsize -= nb;
    924c:	e0433004 	sub	r3, r3, r4
      set_size_and_pinuse_of_inuse_chunk(m, p, nb);
    9250:	e3841003 	orr	r1, r4, #3
      r->head = rsize | PINUSE_BIT;
    9254:	e383c001 	orr	ip, r3, #1
      size_t rsize = m->topsize -= nb;
    9258:	e586300c 	str	r3, [r6, #12]
      mchunkptr r = m->top = chunk_plus_offset(p, nb);
    925c:	e0824004 	add	r4, r2, r4
      return chunk2mem(p);
    9260:	e2820008 	add	r0, r2, #8
      mchunkptr r = m->top = chunk_plus_offset(p, nb);
    9264:	e5864018 	str	r4, [r6, #24]
      r->head = rsize | PINUSE_BIT;
    9268:	e584c004 	str	ip, [r4, #4]
      set_size_and_pinuse_of_inuse_chunk(m, p, nb);
    926c:	e5821004 	str	r1, [r2, #4]
}
    9270:	e28dd00c 	add	sp, sp, #12
    9274:	e8bd8ff0 	pop	{r4, r5, r6, r7, r8, r9, sl, fp, pc}
      else if (nb > gm->dvsize) {
    9278:	e5961008 	ldr	r1, [r6, #8]
    927c:	e1510004 	cmp	r1, r4
    9280:	2a000053 	bcs	93d4 <malloc+0x2c8>
        if (smallbits != 0) { /* Use chunk in next nonempty smallbin */
    9284:	e3530000 	cmp	r3, #0
    9288:	0a00017c 	beq	9880 <malloc+0x774>
          binmap_t leftbits = (smallbits << idx) & left_bits(idx2bit(idx));
    928c:	e3a0e001 	mov	lr, #1
    9290:	e1a0021e 	lsl	r0, lr, r2
    9294:	e1a05e10 	lsl	r5, r0, lr
    9298:	e2650000 	rsb	r0, r5, #0
    929c:	e1800005 	orr	r0, r0, r5
    92a0:	e0002213 	and	r2, r0, r3, lsl r2
          binmap_t leastbit = least_bit(leftbits);
    92a4:	e2623000 	rsb	r3, r2, #0
    92a8:	e0033002 	and	r3, r3, r2
          compute_bit2idx(leastbit, i);
    92ac:	e2433001 	sub	r3, r3, #1
    92b0:	e1a02623 	lsr	r2, r3, #12
    92b4:	e2022010 	and	r2, r2, #16
    92b8:	e1a03233 	lsr	r3, r3, r2
    92bc:	e1a002a3 	lsr	r0, r3, #5
    92c0:	e2000008 	and	r0, r0, #8
    92c4:	e1a03033 	lsr	r3, r3, r0
    92c8:	e1822000 	orr	r2, r2, r0
    92cc:	e1a00123 	lsr	r0, r3, #2
    92d0:	e2000004 	and	r0, r0, #4
    92d4:	e1a03033 	lsr	r3, r3, r0
    92d8:	e0822000 	add	r2, r2, r0
    92dc:	e1a00e33 	lsr	r0, r3, lr
    92e0:	e2000002 	and	r0, r0, #2
    92e4:	e1a03033 	lsr	r3, r3, r0
    92e8:	e0822000 	add	r2, r2, r0
    92ec:	e7e000d3 	ubfx	r0, r3, #1, #1
    92f0:	e0822000 	add	r2, r2, r0
    92f4:	e0823033 	add	r3, r2, r3, lsr r0
          b = smallbin_at(gm, i);
    92f8:	e0862183 	add	r2, r6, r3, lsl #3
    92fc:	e2822028 	add	r2, r2, #40	; 0x28
          p = b->fd;
    9300:	e5920008 	ldr	r0, [r2, #8]
          assert(chunksize(p) == small_index2size(i));
    9304:	e5907004 	ldr	r7, [r0, #4]
    9308:	e3c77007 	bic	r7, r7, #7
    930c:	e1570183 	cmp	r7, r3, lsl #3
    9310:	1a000158 	bne	9878 <malloc+0x76c>
          unlink_first_small_chunk(gm, b, p, i);
    9314:	e1520000 	cmp	r2, r0
    9318:	e5905008 	ldr	r5, [r0, #8]
    931c:	0a000155 	beq	9878 <malloc+0x76c>
    9320:	e1500005 	cmp	r0, r5
    9324:	0a000153 	beq	9878 <malloc+0x76c>
    9328:	e1520005 	cmp	r2, r5
    932c:	01cc331e 	biceq	r3, ip, lr, lsl r3
    9330:	05863000 	streq	r3, [r6]
    9334:	0a000007 	beq	9358 <malloc+0x24c>
    9338:	e5963010 	ldr	r3, [r6, #16]
    933c:	e1530005 	cmp	r3, r5
    9340:	8a00014c 	bhi	9878 <malloc+0x76c>
    9344:	e595300c 	ldr	r3, [r5, #12]
    9348:	e1530000 	cmp	r3, r0
    934c:	1a000149 	bne	9878 <malloc+0x76c>
    9350:	e585200c 	str	r2, [r5, #12]
    9354:	e5825008 	str	r5, [r2, #8]
          rsize = small_index2size(i) - nb;
    9358:	e047c004 	sub	ip, r7, r4
            replace_dv(gm, r, rsize);
    935c:	e3510000 	cmp	r1, #0
            set_size_and_pinuse_of_inuse_chunk(gm, p, nb);
    9360:	e3842003 	orr	r2, r4, #3
            set_size_and_pinuse_of_free_chunk(r, rsize);
    9364:	e38c3001 	orr	r3, ip, #1
            r = chunk_plus_offset(p, nb);
    9368:	e0804004 	add	r4, r0, r4
            set_size_and_pinuse_of_inuse_chunk(gm, p, nb);
    936c:	e5802004 	str	r2, [r0, #4]
            replace_dv(gm, r, rsize);
    9370:	e1a0e1a1 	lsr	lr, r1, #3
            set_size_and_pinuse_of_free_chunk(r, rsize);
    9374:	e5843004 	str	r3, [r4, #4]
    9378:	e780c007 	str	ip, [r0, r7]
            replace_dv(gm, r, rsize);
    937c:	0a000010 	beq	93c4 <malloc+0x2b8>
    9380:	e086318e 	add	r3, r6, lr, lsl #3
    9384:	e351000f 	cmp	r1, #15
    9388:	e5962014 	ldr	r2, [r6, #20]
    938c:	e2833028 	add	r3, r3, #40	; 0x28
    9390:	9a000138 	bls	9878 <malloc+0x76c>
    9394:	e3a01001 	mov	r1, #1
    9398:	e5965000 	ldr	r5, [r6]
    939c:	e1a01e11 	lsl	r1, r1, lr
    93a0:	e1150001 	tst	r5, r1
    93a4:	1a000367 	bne	a148 <malloc+0x103c>
    93a8:	e1a0e003 	mov	lr, r3
    93ac:	e1851001 	orr	r1, r5, r1
    93b0:	e5861000 	str	r1, [r6]
    93b4:	e5832008 	str	r2, [r3, #8]
    93b8:	e58e200c 	str	r2, [lr, #12]
    93bc:	e582e008 	str	lr, [r2, #8]
    93c0:	e582300c 	str	r3, [r2, #12]
    93c4:	e586c008 	str	ip, [r6, #8]
          mem = chunk2mem(p);
    93c8:	e2800008 	add	r0, r0, #8
            replace_dv(gm, r, rsize);
    93cc:	e5864014 	str	r4, [r6, #20]
          goto postaction;
    93d0:	eaffff7d 	b	91cc <malloc+0xc0>
      size_t rsize = gm->dvsize - nb;
    93d4:	e0413004 	sub	r3, r1, r4
      mchunkptr p = gm->dv;
    93d8:	e5960014 	ldr	r0, [r6, #20]
      if (rsize >= MIN_CHUNK_SIZE) { /* split dv */
    93dc:	e353000f 	cmp	r3, #15
    93e0:	e0802001 	add	r2, r0, r1
    93e4:	9a00035c 	bls	a15c <malloc+0x1050>
        mchunkptr r = gm->dv = chunk_plus_offset(p, nb);
    93e8:	e0802004 	add	r2, r0, r4
        set_size_and_pinuse_of_free_chunk(r, rsize);
    93ec:	e383c001 	orr	ip, r3, #1
        set_size_and_pinuse_of_inuse_chunk(gm, p, nb);
    93f0:	e3844003 	orr	r4, r4, #3
        gm->dvsize = rsize;
    93f4:	e5863008 	str	r3, [r6, #8]
        mchunkptr r = gm->dv = chunk_plus_offset(p, nb);
    93f8:	e5862014 	str	r2, [r6, #20]
        set_size_and_pinuse_of_free_chunk(r, rsize);
    93fc:	e582c004 	str	ip, [r2, #4]
    9400:	e7803001 	str	r3, [r0, r1]
        set_size_and_pinuse_of_inuse_chunk(gm, p, nb);
    9404:	e5804004 	str	r4, [r0, #4]
    9408:	eaffff81 	b	9214 <malloc+0x108>
  ensure_initialization();
    940c:	e30382c8 	movw	r8, #13000	; 0x32c8
    9410:	e3408001 	movt	r8, #1
    9414:	e5983000 	ldr	r3, [r8]
    9418:	e3530000 	cmp	r3, #0
    941c:	1a00010d 	bne	9858 <malloc+0x74c>
      nb = MAX_SIZE_T; /* Too big to allocate. Force failure (in sys alloc) */
    9420:	e3e04000 	mvn	r4, #0
    9424:	ebfffebc 	bl	8f1c <init_mparams.part.2>
  asize = granularity_align(nb + SYS_ALLOC_PADDING);
    9428:	e5987008 	ldr	r7, [r8, #8]
    942c:	e287c02f 	add	ip, r7, #47	; 0x2f
    9430:	e2670000 	rsb	r0, r7, #0
    9434:	e084a00c 	add	sl, r4, ip
    9438:	e00aa000 	and	sl, sl, r0
  if (asize <= nb)
    943c:	e15a0004 	cmp	sl, r4
    9440:	9a000104 	bls	9858 <malloc+0x74c>
  if (m->footprint_limit != 0) {
    9444:	e59621b8 	ldr	r2, [r6, #440]	; 0x1b8
    9448:	e3520000 	cmp	r2, #0
    944c:	0a000008 	beq	9474 <malloc+0x368>
    size_t fp = m->footprint + asize;
    9450:	e59631b0 	ldr	r3, [r6, #432]	; 0x1b0
    9454:	e08a1003 	add	r1, sl, r3
    if (fp <= m->footprint || fp > m->footprint_limit)
    9458:	e1530001 	cmp	r3, r1
    945c:	33a03000 	movcc	r3, #0
    9460:	23a03001 	movcs	r3, #1
    9464:	e1520001 	cmp	r2, r1
    9468:	33833001 	orrcc	r3, r3, #1
    946c:	e3530000 	cmp	r3, #0
    9470:	1a0000f8 	bne	9858 <malloc+0x74c>
  if (MORECORE_CONTIGUOUS && !use_noncontiguous(m)) {
    9474:	e596e1bc 	ldr	lr, [r6, #444]	; 0x1bc
    9478:	e31e0004 	tst	lr, #4
    947c:	0a0000c5 	beq	9798 <malloc+0x68c>
    if (asize < HALF_MAX_SIZE_T) {
    9480:	e37a010a 	cmn	sl, #-2147483646	; 0x80000002
    9484:	8a0000f3 	bhi	9858 <malloc+0x74c>
      br = (char*)(CALL_MORECORE(asize));
    9488:	e1a0000a 	mov	r0, sl
    948c:	ebfffe8c 	bl	8ec4 <sbrk>
    9490:	e1a05000 	mov	r5, r0
      end = (char*)(CALL_MORECORE(0));
    9494:	e3a00000 	mov	r0, #0
    9498:	ebfffe89 	bl	8ec4 <sbrk>
      if (br != CMFAIL && end != CMFAIL && br < end) {
    949c:	e3700001 	cmn	r0, #1
    94a0:	13750001 	cmnne	r5, #1
    94a4:	13a03001 	movne	r3, #1
    94a8:	03a03000 	moveq	r3, #0
    94ac:	e1550000 	cmp	r5, r0
    94b0:	23a03000 	movcs	r3, #0
    94b4:	32033001 	andcc	r3, r3, #1
    94b8:	e3530000 	cmp	r3, #0
    94bc:	0a0000e5 	beq	9858 <malloc+0x74c>
        size_t ssize = end - br;
    94c0:	e0407005 	sub	r7, r0, r5
        if (ssize > nb + TOP_FOOT_SIZE) {
    94c4:	e2843028 	add	r3, r4, #40	; 0x28
    94c8:	e1570003 	cmp	r7, r3
    94cc:	9a0000e1 	bls	9858 <malloc+0x74c>
  if (tbase != CMFAIL) {
    94d0:	e3750001 	cmn	r5, #1
    94d4:	0a0000df 	beq	9858 <malloc+0x74c>
    if ((m->footprint += tsize) > m->max_footprint)
    94d8:	e59631b0 	ldr	r3, [r6, #432]	; 0x1b0
    94dc:	e59621b4 	ldr	r2, [r6, #436]	; 0x1b4
    if (!is_initialized(m)) { /* first-time initialization */
    94e0:	e596e018 	ldr	lr, [r6, #24]
    if ((m->footprint += tsize) > m->max_footprint)
    94e4:	e0873003 	add	r3, r7, r3
    94e8:	e1530002 	cmp	r3, r2
    94ec:	e58631b0 	str	r3, [r6, #432]	; 0x1b0
      m->max_footprint = m->footprint;
    94f0:	858631b4 	strhi	r3, [r6, #436]	; 0x1b4
    if (!is_initialized(m)) { /* first-time initialization */
    94f4:	e35e0000 	cmp	lr, #0
      msegmentptr sp = &m->seg;
    94f8:	159f2fe0 	ldrne	r2, [pc, #4064]	; a4e0 <malloc+0x13d4>
    94fc:	11a03002 	movne	r3, r2
    if (!is_initialized(m)) { /* first-time initialization */
    9500:	0a000264 	beq	9e98 <malloc+0xd8c>
      while (sp != 0 && tbase != sp->base + sp->size)
    9504:	e5931000 	ldr	r1, [r3]
    9508:	e5930004 	ldr	r0, [r3, #4]
    950c:	e081c000 	add	ip, r1, r0
    9510:	e15c0005 	cmp	ip, r5
    9514:	0a0001a1 	beq	9ba0 <malloc+0xa94>
        sp = (NO_SEGMENT_TRAVERSAL) ? 0 : sp->next;
    9518:	e5933008 	ldr	r3, [r3, #8]
      while (sp != 0 && tbase != sp->base + sp->size)
    951c:	e3530000 	cmp	r3, #0
    9520:	1afffff7 	bne	9504 <malloc+0x3f8>
        if (tbase < m->least_addr)
    9524:	e5963010 	ldr	r3, [r6, #16]
    9528:	e0850007 	add	r0, r5, r7
    952c:	e1530005 	cmp	r3, r5
  size_t offset = align_offset(chunk2mem(p));
    9530:	e59f3fa8 	ldr	r3, [pc, #4008]	; a4e0 <malloc+0x13d4>
          m->least_addr = tbase;
    9534:	85865010 	strhi	r5, [r6, #16]
        while (sp != 0 && sp->base != tbase + tsize)
    9538:	e5931000 	ldr	r1, [r3]
    953c:	e1510000 	cmp	r1, r0
    9540:	0a000159 	beq	9aac <malloc+0x9a0>
          sp = (NO_SEGMENT_TRAVERSAL) ? 0 : sp->next;
    9544:	e5933008 	ldr	r3, [r3, #8]
        while (sp != 0 && sp->base != tbase + tsize)
    9548:	e3530000 	cmp	r3, #0
    954c:	1afffff9 	bne	9538 <malloc+0x42c>
            !is_extern_segment(sp) &&
    9550:	e59f3f88 	ldr	r3, [pc, #3976]	; a4e0 <malloc+0x13d4>
    if (addr >= sp->base && addr < sp->base + sp->size)
    9554:	e5931000 	ldr	r1, [r3]
    9558:	e15e0001 	cmp	lr, r1
    955c:	3a000003 	bcc	9570 <malloc+0x464>
    9560:	e5930004 	ldr	r0, [r3, #4]
    9564:	e0811000 	add	r1, r1, r0
    9568:	e15e0001 	cmp	lr, r1
    956c:	3a0001aa 	bcc	9c1c <malloc+0xb10>
    if ((sp = sp->next) == 0)
    9570:	e5933008 	ldr	r3, [r3, #8]
    9574:	e3530000 	cmp	r3, #0
    9578:	1afffff5 	bne	9554 <malloc+0x448>
  char* old_end = oldsp->base + oldsp->size;
    957c:	e5933000 	ldr	r3, [r3]
    9580:	e7f000f0 	udf	#0
  compute_tree_index(nb, idx);
    9584:	e1b08424 	lsrs	r8, r4, #8
  size_t rsize = -nb; /* Unsigned negation */
    9588:	e2647000 	rsb	r7, r4, #0
  compute_tree_index(nb, idx);
    958c:	1a00013e 	bne	9a8c <malloc+0x980>
  if ((t = *treebin_at(m, idx)) != 0) {
    9590:	e5963130 	ldr	r3, [r6, #304]	; 0x130
    9594:	e3530000 	cmp	r3, #0
    9598:	01a09007 	moveq	r9, r7
    959c:	03e08001 	mvneq	r8, #1
    95a0:	0a0001f6 	beq	9d80 <malloc+0xc74>
    95a4:	e3a0e019 	mov	lr, #25
    95a8:	e1a0ee14 	lsl	lr, r4, lr
    tchunkptr rst = 0;  /* The deepest untaken right subtree */
    95ac:	e3a05000 	mov	r5, #0
  tchunkptr v = 0;
    95b0:	e1a00005 	mov	r0, r5
    95b4:	ea000000 	b	95bc <malloc+0x4b0>
      sizebits <<= 1;
    95b8:	e1a0e08e 	lsl	lr, lr, #1
      size_t trem = chunksize(t) - nb;
    95bc:	e5939004 	ldr	r9, [r3, #4]
    95c0:	e3c99007 	bic	r9, r9, #7
    95c4:	e0499004 	sub	r9, r9, r4
      if (trem < rsize) {
    95c8:	e1590007 	cmp	r9, r7
    95cc:	2a000003 	bcs	95e0 <malloc+0x4d4>
        if ((rsize = trem) == 0)
    95d0:	e3590000 	cmp	r9, #0
    95d4:	0a000270 	beq	9f9c <malloc+0xe90>
    95d8:	e1a07009 	mov	r7, r9
    95dc:	e1a00003 	mov	r0, r3
      t = t->child[(sizebits >> (SIZE_T_BITSIZE-SIZE_T_ONE)) & 1];
    95e0:	e1a02fae 	lsr	r2, lr, #31
      rt = t->child[1];
    95e4:	e5939014 	ldr	r9, [r3, #20]
      t = t->child[(sizebits >> (SIZE_T_BITSIZE-SIZE_T_ONE)) & 1];
    95e8:	e2822004 	add	r2, r2, #4
    95ec:	e7933102 	ldr	r3, [r3, r2, lsl #2]
      if (rt != 0 && rt != t)
    95f0:	e3590000 	cmp	r9, #0
    95f4:	11590003 	cmpne	r9, r3
    95f8:	11a05009 	movne	r5, r9
      if (t == 0) {
    95fc:	e3530000 	cmp	r3, #0
    9600:	1affffec 	bne	95b8 <malloc+0x4ac>
  if (t == 0 && v == 0) { /* set t to root of next non-empty treebin */
    9604:	e3550000 	cmp	r5, #0
    9608:	03500000 	cmpeq	r0, #0
    960c:	0a0001d8 	beq	9d74 <malloc+0xc68>
  while (t != 0) { /* find smallest of tree or subtree */
    9610:	e3550000 	cmp	r5, #0
    9614:	e1a09007 	mov	r9, r7
    9618:	11a03005 	movne	r3, r5
    961c:	1a000001 	bne	9628 <malloc+0x51c>
    9620:	ea00000c 	b	9658 <malloc+0x54c>
    9624:	e1a0300e 	mov	r3, lr
    size_t trem = chunksize(t) - nb;
    9628:	e5932004 	ldr	r2, [r3, #4]
    t = leftmost_child(t);
    962c:	e593e010 	ldr	lr, [r3, #16]
    size_t trem = chunksize(t) - nb;
    9630:	e3c22007 	bic	r2, r2, #7
    9634:	e0422004 	sub	r2, r2, r4
    if (trem < rsize) {
    9638:	e1520009 	cmp	r2, r9
    963c:	31a09002 	movcc	r9, r2
    9640:	31a00003 	movcc	r0, r3
    t = leftmost_child(t);
    9644:	e35e0000 	cmp	lr, #0
    9648:	1afffff5 	bne	9624 <malloc+0x518>
    964c:	e593e014 	ldr	lr, [r3, #20]
  while (t != 0) { /* find smallest of tree or subtree */
    9650:	e35e0000 	cmp	lr, #0
    9654:	1afffff2 	bne	9624 <malloc+0x518>
  if (v != 0 && rsize < (size_t)(m->dvsize - nb)) {
    9658:	e3500000 	cmp	r0, #0
    965c:	0afffef4 	beq	9234 <malloc+0x128>
    9660:	e0413004 	sub	r3, r1, r4
    9664:	e1530009 	cmp	r3, r9
    9668:	9afffef1 	bls	9234 <malloc+0x128>
    if (RTCHECK(ok_address(m, v))) { /* split */
    966c:	e5965010 	ldr	r5, [r6, #16]
    9670:	e1550000 	cmp	r5, r0
    9674:	8a00007f 	bhi	9878 <malloc+0x76c>
      assert(chunksize(v) == rsize + nb);
    9678:	e590e004 	ldr	lr, [r0, #4]
    967c:	e0843009 	add	r3, r4, r9
      mchunkptr r = chunk_plus_offset(v, nb);
    9680:	e0807004 	add	r7, r0, r4
      assert(chunksize(v) == rsize + nb);
    9684:	e3cee007 	bic	lr, lr, #7
    9688:	e15e0003 	cmp	lr, r3
    968c:	1a000079 	bne	9878 <malloc+0x76c>
      if (RTCHECK(ok_next(v, r))) {
    9690:	e1570000 	cmp	r7, r0
    9694:	9a000077 	bls	9878 <malloc+0x76c>
        unlink_large_chunk(m, v);
    9698:	e590200c 	ldr	r2, [r0, #12]
    969c:	e5908018 	ldr	r8, [r0, #24]
    96a0:	e1520000 	cmp	r2, r0
    96a4:	0a000254 	beq	9ffc <malloc+0xef0>
    96a8:	e5903008 	ldr	r3, [r0, #8]
    96ac:	e1550003 	cmp	r5, r3
    96b0:	8a000070 	bhi	9878 <malloc+0x76c>
    96b4:	e593100c 	ldr	r1, [r3, #12]
    96b8:	e1510000 	cmp	r1, r0
    96bc:	1a00006d 	bne	9878 <malloc+0x76c>
    96c0:	e5921008 	ldr	r1, [r2, #8]
    96c4:	e1510000 	cmp	r1, r0
    96c8:	1a00006a 	bne	9878 <malloc+0x76c>
    96cc:	e583200c 	str	r2, [r3, #12]
    96d0:	e5823008 	str	r3, [r2, #8]
    96d4:	e3580000 	cmp	r8, #0
    96d8:	0a00001e 	beq	9758 <malloc+0x64c>
    96dc:	e590301c 	ldr	r3, [r0, #28]
    96e0:	e283304c 	add	r3, r3, #76	; 0x4c
    96e4:	e7961103 	ldr	r1, [r6, r3, lsl #2]
    96e8:	e1510000 	cmp	r1, r0
    96ec:	07862103 	streq	r2, [r6, r3, lsl #2]
    96f0:	0a000007 	beq	9714 <malloc+0x608>
    96f4:	e1550008 	cmp	r5, r8
    96f8:	8a00005e 	bhi	9878 <malloc+0x76c>
    96fc:	e5983010 	ldr	r3, [r8, #16]
    9700:	e1530000 	cmp	r3, r0
    9704:	05882010 	streq	r2, [r8, #16]
    9708:	15882014 	strne	r2, [r8, #20]
    970c:	e3520000 	cmp	r2, #0
    9710:	0a000010 	beq	9758 <malloc+0x64c>
    9714:	e1550002 	cmp	r5, r2
    9718:	8a000056 	bhi	9878 <malloc+0x76c>
    971c:	e5903010 	ldr	r3, [r0, #16]
    9720:	e5828018 	str	r8, [r2, #24]
    9724:	e3530000 	cmp	r3, #0
    9728:	0a000003 	beq	973c <malloc+0x630>
    972c:	e1550003 	cmp	r5, r3
    9730:	8a000050 	bhi	9878 <malloc+0x76c>
    9734:	e5823010 	str	r3, [r2, #16]
    9738:	e5832018 	str	r2, [r3, #24]
    973c:	e5903014 	ldr	r3, [r0, #20]
    9740:	e3530000 	cmp	r3, #0
    9744:	0a000003 	beq	9758 <malloc+0x64c>
    9748:	e1550003 	cmp	r5, r3
    974c:	8a000049 	bhi	9878 <malloc+0x76c>
    9750:	e5823014 	str	r3, [r2, #20]
    9754:	e5832018 	str	r2, [r3, #24]
        if (rsize < MIN_CHUNK_SIZE)
    9758:	e359000f 	cmp	r9, #15
    975c:	8a000210 	bhi	9fa4 <malloc+0xe98>
          set_inuse_and_pinuse(m, v, (rsize + nb));
    9760:	e080200e 	add	r2, r0, lr
    9764:	e38ee003 	orr	lr, lr, #3
    9768:	e5923004 	ldr	r3, [r2, #4]
    976c:	e580e004 	str	lr, [r0, #4]
    9770:	e3833001 	orr	r3, r3, #1
    9774:	e5823004 	str	r3, [r2, #4]
      if (gm->treemap != 0 && (mem = tmalloc_large(gm, nb)) != 0) {
    9778:	e2900008 	adds	r0, r0, #8
    977c:	1afffe92 	bne	91cc <malloc+0xc0>
    9780:	e5961008 	ldr	r1, [r6, #8]
    9784:	eafffeaa 	b	9234 <malloc+0x128>
        unlink_first_small_chunk(gm, b, p, idx);
    9788:	e3a01001 	mov	r1, #1
    978c:	e1cc3311 	bic	r3, ip, r1, lsl r3
    9790:	e5863000 	str	r3, [r6]
    9794:	eafffe85 	b	91b0 <malloc+0xa4>
    msegmentptr ss = (m->top == 0)? 0 : segment_holding(m, (char*)m->top);
    9798:	e5961018 	ldr	r1, [r6, #24]
    979c:	e3510000 	cmp	r1, #0
    97a0:	0a00000a 	beq	97d0 <malloc+0x6c4>
  msegmentptr sp = &m->seg;
    97a4:	e59f9d34 	ldr	r9, [pc, #3380]	; a4e0 <malloc+0x13d4>
    if (addr >= sp->base && addr < sp->base + sp->size)
    97a8:	e5993000 	ldr	r3, [r9]
    97ac:	e1510003 	cmp	r1, r3
    97b0:	3a000003 	bcc	97c4 <malloc+0x6b8>
    97b4:	e5992004 	ldr	r2, [r9, #4]
    97b8:	e0833002 	add	r3, r3, r2
    97bc:	e1510003 	cmp	r1, r3
    97c0:	3a00018b 	bcc	9df4 <malloc+0xce8>
    if ((sp = sp->next) == 0)
    97c4:	e5999008 	ldr	r9, [r9, #8]
    97c8:	e3590000 	cmp	r9, #0
    97cc:	1afffff5 	bne	97a8 <malloc+0x69c>
      char* base = (char*)CALL_MORECORE(0);
    97d0:	e3a00000 	mov	r0, #0
    97d4:	ebfffdba 	bl	8ec4 <sbrk>
      if (base != CMFAIL) {
    97d8:	e3700001 	cmn	r0, #1
      char* base = (char*)CALL_MORECORE(0);
    97dc:	e1a09000 	mov	r9, r0
      if (base != CMFAIL) {
    97e0:	0a000017 	beq	9844 <malloc+0x738>
        if (!is_page_aligned(base))
    97e4:	e5982004 	ldr	r2, [r8, #4]
    97e8:	e2423001 	sub	r3, r2, #1
    97ec:	e1100003 	tst	r0, r3
          ssize += (page_align((size_t)base) - (size_t)base);
    97f0:	10837000 	addne	r7, r3, r0
    97f4:	12622000 	rsbne	r2, r2, #0
    97f8:	104a3000 	subne	r3, sl, r0
    97fc:	10077002 	andne	r7, r7, r2
    9800:	10877003 	addne	r7, r7, r3
        if (!is_page_aligned(base))
    9804:	01a0700a 	moveq	r7, sl
        if (ssize > nb && ssize < HALF_MAX_SIZE_T &&
    9808:	e1570004 	cmp	r7, r4
    980c:	83a03001 	movhi	r3, #1
    9810:	93a03000 	movls	r3, #0
    9814:	e377010a 	cmn	r7, #-2147483646	; 0x80000002
    9818:	83a03000 	movhi	r3, #0
    981c:	e3530000 	cmp	r3, #0
    9820:	0a000007 	beq	9844 <malloc+0x738>
            (m->footprint_limit == 0 ||
    9824:	e59631b8 	ldr	r3, [r6, #440]	; 0x1b8
        fp = m->footprint + ssize; /* recheck limits */
    9828:	e59621b0 	ldr	r2, [r6, #432]	; 0x1b0
        if (ssize > nb && ssize < HALF_MAX_SIZE_T &&
    982c:	e3530000 	cmp	r3, #0
    9830:	0a000324 	beq	a4c8 <malloc+0x13bc>
        fp = m->footprint + ssize; /* recheck limits */
    9834:	e0821007 	add	r1, r2, r7
             (fp > m->footprint && fp <= m->footprint_limit)) &&
    9838:	e1510003 	cmp	r1, r3
    983c:	91520001 	cmpls	r2, r1
    9840:	3a000320 	bcc	a4c8 <malloc+0x13bc>
    9844:	e596e1bc 	ldr	lr, [r6, #444]	; 0x1bc
    if (asize < HALF_MAX_SIZE_T) {
    9848:	e37a010a 	cmn	sl, #-2147483646	; 0x80000002
        disable_contiguous(m); /* Don't try contiguous path in the future */
    984c:	e38ee004 	orr	lr, lr, #4
    9850:	e586e1bc 	str	lr, [r6, #444]	; 0x1bc
    if (asize < HALF_MAX_SIZE_T) {
    9854:	9affff0b 	bls	9488 <malloc+0x37c>
    return 0; /* wraparound */
    9858:	e3a00000 	mov	r0, #0
    985c:	eafffe5a 	b	91cc <malloc+0xc0>
      unlink_chunk(m, oldfirst, nsize);
    9860:	e5968010 	ldr	r8, [r6, #16]
    9864:	e15c0008 	cmp	ip, r8
    9868:	3a000002 	bcc	9878 <malloc+0x76c>
    986c:	e59c800c 	ldr	r8, [ip, #12]
    9870:	e1580001 	cmp	r8, r1
    9874:	0a000331 	beq	a540 <malloc+0x1434>
        assert(chunksize(p) == small_index2size(idx));
    9878:	e3e00000 	mvn	r0, #0
    987c:	ebfff9df 	bl	8000 <exit>
        else if (gm->treemap != 0 && (mem = tmalloc_small(gm, nb)) != 0) {
    9880:	e5965004 	ldr	r5, [r6, #4]
    9884:	e3550000 	cmp	r5, #0
    9888:	0afffe6b 	beq	923c <malloc+0x130>
  binmap_t leastbit = least_bit(m->treemap);
    988c:	e2653000 	rsb	r3, r5, #0
    9890:	e0033005 	and	r3, r3, r5
  compute_bit2idx(leastbit, i);
    9894:	e2433001 	sub	r3, r3, #1
    9898:	e1a02623 	lsr	r2, r3, #12
    989c:	e2022010 	and	r2, r2, #16
    98a0:	e1a03233 	lsr	r3, r3, r2
    98a4:	e1a002a3 	lsr	r0, r3, #5
    98a8:	e2000008 	and	r0, r0, #8
    98ac:	e1a03033 	lsr	r3, r3, r0
    98b0:	e1822000 	orr	r2, r2, r0
    98b4:	e1a00123 	lsr	r0, r3, #2
    98b8:	e2000004 	and	r0, r0, #4
    98bc:	e1a03033 	lsr	r3, r3, r0
    98c0:	e0822000 	add	r2, r2, r0
    98c4:	e1a000a3 	lsr	r0, r3, #1
    98c8:	e2000002 	and	r0, r0, #2
    98cc:	e1a03033 	lsr	r3, r3, r0
    98d0:	e0822000 	add	r2, r2, r0
    98d4:	e7e000d3 	ubfx	r0, r3, #1, #1
  v = t = *treebin_at(m, i);
    98d8:	e0822000 	add	r2, r2, r0
    98dc:	e0823033 	add	r3, r2, r3, lsr r0
    98e0:	e283304c 	add	r3, r3, #76	; 0x4c
    98e4:	e7967103 	ldr	r7, [r6, r3, lsl #2]
  rsize = chunksize(t) - nb;
    98e8:	e597e004 	ldr	lr, [r7, #4]
    98ec:	e1a00007 	mov	r0, r7
    98f0:	e3cee007 	bic	lr, lr, #7
    98f4:	e04ee004 	sub	lr, lr, r4
    98f8:	ea000006 	b	9918 <malloc+0x80c>
    size_t trem = chunksize(t) - nb;
    98fc:	e5923004 	ldr	r3, [r2, #4]
    if (trem < rsize) {
    9900:	e1a07002 	mov	r7, r2
    size_t trem = chunksize(t) - nb;
    9904:	e3c33007 	bic	r3, r3, #7
    9908:	e0433004 	sub	r3, r3, r4
    if (trem < rsize) {
    990c:	e153000e 	cmp	r3, lr
    9910:	31a0e003 	movcc	lr, r3
    9914:	31a00002 	movcc	r0, r2
  while ((t = leftmost_child(t)) != 0) {
    9918:	e5972010 	ldr	r2, [r7, #16]
    991c:	e3520000 	cmp	r2, #0
    9920:	1afffff5 	bne	98fc <malloc+0x7f0>
    9924:	e5972014 	ldr	r2, [r7, #20]
    9928:	e3520000 	cmp	r2, #0
    992c:	1afffff2 	bne	98fc <malloc+0x7f0>
  if (RTCHECK(ok_address(m, v))) {
    9930:	e596a010 	ldr	sl, [r6, #16]
    9934:	e15a0000 	cmp	sl, r0
    9938:	8affffce 	bhi	9878 <malloc+0x76c>
    assert(chunksize(v) == rsize + nb);
    993c:	e5908004 	ldr	r8, [r0, #4]
    9940:	e084300e 	add	r3, r4, lr
    mchunkptr r = chunk_plus_offset(v, nb);
    9944:	e0809004 	add	r9, r0, r4
    assert(chunksize(v) == rsize + nb);
    9948:	e3c88007 	bic	r8, r8, #7
    994c:	e1580003 	cmp	r8, r3
    9950:	1affffc8 	bne	9878 <malloc+0x76c>
    if (RTCHECK(ok_next(v, r))) {
    9954:	e1590000 	cmp	r9, r0
    9958:	9affffc6 	bls	9878 <malloc+0x76c>
      unlink_large_chunk(m, v);
    995c:	e590700c 	ldr	r7, [r0, #12]
    9960:	e590b018 	ldr	fp, [r0, #24]
    9964:	e1570000 	cmp	r7, r0
    9968:	0a000248 	beq	a290 <malloc+0x1184>
    996c:	e5903008 	ldr	r3, [r0, #8]
    9970:	e15a0003 	cmp	sl, r3
    9974:	8affffbf 	bhi	9878 <malloc+0x76c>
    9978:	e593200c 	ldr	r2, [r3, #12]
    997c:	e1520000 	cmp	r2, r0
    9980:	1affffbc 	bne	9878 <malloc+0x76c>
    9984:	e5972008 	ldr	r2, [r7, #8]
    9988:	e1520000 	cmp	r2, r0
    998c:	1affffb9 	bne	9878 <malloc+0x76c>
    9990:	e583700c 	str	r7, [r3, #12]
    9994:	e5873008 	str	r3, [r7, #8]
    9998:	e35b0000 	cmp	fp, #0
    999c:	0a00001e 	beq	9a1c <malloc+0x910>
    99a0:	e590301c 	ldr	r3, [r0, #28]
    99a4:	e283304c 	add	r3, r3, #76	; 0x4c
    99a8:	e7962103 	ldr	r2, [r6, r3, lsl #2]
    99ac:	e1520000 	cmp	r2, r0
    99b0:	07867103 	streq	r7, [r6, r3, lsl #2]
    99b4:	0a000007 	beq	99d8 <malloc+0x8cc>
    99b8:	e15a000b 	cmp	sl, fp
    99bc:	8affffad 	bhi	9878 <malloc+0x76c>
    99c0:	e59b3010 	ldr	r3, [fp, #16]
    99c4:	e1530000 	cmp	r3, r0
    99c8:	058b7010 	streq	r7, [fp, #16]
    99cc:	158b7014 	strne	r7, [fp, #20]
    99d0:	e3570000 	cmp	r7, #0
    99d4:	0a000010 	beq	9a1c <malloc+0x910>
    99d8:	e15a0007 	cmp	sl, r7
    99dc:	8affffa5 	bhi	9878 <malloc+0x76c>
    99e0:	e5903010 	ldr	r3, [r0, #16]
    99e4:	e587b018 	str	fp, [r7, #24]
    99e8:	e3530000 	cmp	r3, #0
    99ec:	0a000003 	beq	9a00 <malloc+0x8f4>
    99f0:	e15a0003 	cmp	sl, r3
    99f4:	8affff9f 	bhi	9878 <malloc+0x76c>
    99f8:	e5873010 	str	r3, [r7, #16]
    99fc:	e5837018 	str	r7, [r3, #24]
    9a00:	e5903014 	ldr	r3, [r0, #20]
    9a04:	e3530000 	cmp	r3, #0
    9a08:	0a000003 	beq	9a1c <malloc+0x910>
    9a0c:	e15a0003 	cmp	sl, r3
    9a10:	8affff98 	bhi	9878 <malloc+0x76c>
    9a14:	e5873014 	str	r3, [r7, #20]
    9a18:	e5837018 	str	r7, [r3, #24]
      if (rsize < MIN_CHUNK_SIZE)
    9a1c:	e35e000f 	cmp	lr, #15
    9a20:	9a000213 	bls	a274 <malloc+0x1168>
        replace_dv(m, r, rsize);
    9a24:	e3510000 	cmp	r1, #0
        set_size_and_pinuse_of_inuse_chunk(m, v, nb);
    9a28:	e3842003 	orr	r2, r4, #3
        set_size_and_pinuse_of_free_chunk(r, rsize);
    9a2c:	e38e3001 	orr	r3, lr, #1
        set_size_and_pinuse_of_inuse_chunk(m, v, nb);
    9a30:	e5802004 	str	r2, [r0, #4]
        set_size_and_pinuse_of_free_chunk(r, rsize);
    9a34:	e5893004 	str	r3, [r9, #4]
    9a38:	e789e00e 	str	lr, [r9, lr]
        replace_dv(m, r, rsize);
    9a3c:	0a00000f 	beq	9a80 <malloc+0x974>
    9a40:	e1a051a1 	lsr	r5, r1, #3
    9a44:	e351000f 	cmp	r1, #15
    9a48:	e5961014 	ldr	r1, [r6, #20]
    9a4c:	e0863185 	add	r3, r6, r5, lsl #3
    9a50:	e2833028 	add	r3, r3, #40	; 0x28
    9a54:	9affff87 	bls	9878 <malloc+0x76c>
    9a58:	e3a02001 	mov	r2, #1
    9a5c:	e1a02512 	lsl	r2, r2, r5
    9a60:	e11c0002 	tst	ip, r2
    9a64:	1a0002f3 	bne	a638 <malloc+0x152c>
    9a68:	e18cc002 	orr	ip, ip, r2
    9a6c:	e1a02003 	mov	r2, r3
    9a70:	e586c000 	str	ip, [r6]
    9a74:	e5831008 	str	r1, [r3, #8]
    9a78:	e582100c 	str	r1, [r2, #12]
    9a7c:	e1c120f8 	strd	r2, [r1, #8]
    9a80:	e586e008 	str	lr, [r6, #8]
    9a84:	e5869014 	str	r9, [r6, #20]
    9a88:	eaffff3a 	b	9778 <malloc+0x66c>
  compute_tree_index(nb, idx);
    9a8c:	e3580801 	cmp	r8, #65536	; 0x10000
    9a90:	3a000123 	bcc	9f24 <malloc+0xe18>
  if ((t = *treebin_at(m, idx)) != 0) {
    9a94:	e59631ac 	ldr	r3, [r6, #428]	; 0x1ac
    9a98:	e3530000 	cmp	r3, #0
    9a9c:	11a0e004 	movne	lr, r4
  compute_tree_index(nb, idx);
    9aa0:	13a0801f 	movne	r8, #31
  if ((t = *treebin_at(m, idx)) != 0) {
    9aa4:	1afffec0 	bne	95ac <malloc+0x4a0>
    9aa8:	eafffde1 	b	9234 <malloc+0x128>
            !is_extern_segment(sp) &&
    9aac:	e593000c 	ldr	r0, [r3, #12]
    9ab0:	e3100008 	tst	r0, #8
    9ab4:	1afffea5 	bne	9550 <malloc+0x444>
          sp->size += tsize;
    9ab8:	e5930004 	ldr	r0, [r3, #4]
  mchunkptr p = align_as_chunk(newbase);
    9abc:	e2852008 	add	r2, r5, #8
    9ac0:	e3120007 	tst	r2, #7
          sp->base = tbase;
    9ac4:	e5835000 	str	r5, [r3]
          sp->size += tsize;
    9ac8:	e0807007 	add	r7, r0, r7
  set_size_and_pinuse_of_inuse_chunk(m, p, nb);
    9acc:	e3840003 	orr	r0, r4, #3
          sp->size += tsize;
    9ad0:	e5837004 	str	r7, [r3, #4]
  mchunkptr p = align_as_chunk(newbase);
    9ad4:	12623000 	rsbne	r3, r2, #0
    9ad8:	12033007 	andne	r3, r3, #7
    9adc:	10855003 	addne	r5, r5, r3
  mchunkptr oldfirst = align_as_chunk(oldbase);
    9ae0:	e2813008 	add	r3, r1, #8
    9ae4:	e3130007 	tst	r3, #7
  mchunkptr q = chunk_plus_offset(p, nb);
    9ae8:	e0852004 	add	r2, r5, r4
  mchunkptr oldfirst = align_as_chunk(oldbase);
    9aec:	12633000 	rsbne	r3, r3, #0
  set_size_and_pinuse_of_inuse_chunk(m, p, nb);
    9af0:	e5850004 	str	r0, [r5, #4]
  mchunkptr oldfirst = align_as_chunk(oldbase);
    9af4:	12033007 	andne	r3, r3, #7
    9af8:	10811003 	addne	r1, r1, r3
  assert((char*)oldfirst > (char*)q);
    9afc:	e1520001 	cmp	r2, r1
  size_t psize = (char*)oldfirst - (char*)p;
    9b00:	e0413005 	sub	r3, r1, r5
  size_t qsize = psize - nb;
    9b04:	e0434004 	sub	r4, r3, r4
  assert((char*)oldfirst > (char*)q);
    9b08:	2affff5a 	bcs	9878 <malloc+0x76c>
  assert(pinuse(oldfirst));
    9b0c:	e5913004 	ldr	r3, [r1, #4]
    9b10:	e3130001 	tst	r3, #1
    9b14:	0affff57 	beq	9878 <malloc+0x76c>
  assert(qsize >= MIN_CHUNK_SIZE);
    9b18:	e354000f 	cmp	r4, #15
    9b1c:	9affff55 	bls	9878 <malloc+0x76c>
  if (oldfirst == m->top) {
    9b20:	e15e0001 	cmp	lr, r1
    9b24:	0a000221 	beq	a3b0 <malloc+0x12a4>
  else if (oldfirst == m->dv) {
    9b28:	e5960014 	ldr	r0, [r6, #20]
    9b2c:	e1500001 	cmp	r0, r1
    9b30:	0a00026c 	beq	a4e8 <malloc+0x13dc>
    if (!is_inuse(oldfirst)) {
    9b34:	e2030003 	and	r0, r3, #3
    9b38:	e3500001 	cmp	r0, #1
    9b3c:	0a000271 	beq	a508 <malloc+0x13fc>
    insert_chunk(m, q, qsize);
    9b40:	e1a001a4 	lsr	r0, r4, #3
    set_free_with_pinuse(q, qsize, oldfirst);
    9b44:	e3c33001 	bic	r3, r3, #1
    9b48:	e5813004 	str	r3, [r1, #4]
    9b4c:	e3843001 	orr	r3, r4, #1
    insert_chunk(m, q, qsize);
    9b50:	e350001f 	cmp	r0, #31
    set_free_with_pinuse(q, qsize, oldfirst);
    9b54:	e5823004 	str	r3, [r2, #4]
    9b58:	e5814000 	str	r4, [r1]
    insert_chunk(m, q, qsize);
    9b5c:	8a00021a 	bhi	a3cc <malloc+0x12c0>
    9b60:	e0863180 	add	r3, r6, r0, lsl #3
    9b64:	e2833028 	add	r3, r3, #40	; 0x28
    9b68:	e3a01001 	mov	r1, #1
    9b6c:	e596c000 	ldr	ip, [r6]
    9b70:	e1a00011 	lsl	r0, r1, r0
    9b74:	e11c0000 	tst	ip, r0
    9b78:	1a000293 	bne	a5cc <malloc+0x14c0>
    9b7c:	e1a01003 	mov	r1, r3
    9b80:	e18c0000 	orr	r0, ip, r0
    9b84:	e5860000 	str	r0, [r6]
    9b88:	e5832008 	str	r2, [r3, #8]
    9b8c:	e581200c 	str	r2, [r1, #12]
    9b90:	e5821008 	str	r1, [r2, #8]
    9b94:	e582300c 	str	r3, [r2, #12]
  return chunk2mem(p);
    9b98:	e2850008 	add	r0, r5, #8
    9b9c:	eafffd8a 	b	91cc <malloc+0xc0>
          !is_extern_segment(sp) &&
    9ba0:	e593c00c 	ldr	ip, [r3, #12]
    9ba4:	e31c0008 	tst	ip, #8
    9ba8:	1afffe5d 	bne	9524 <malloc+0x418>
          (sp->sflags & USE_MMAP_BIT) == mmap_flag &&
    9bac:	e15e0001 	cmp	lr, r1
    9bb0:	3afffe5b 	bcc	9524 <malloc+0x418>
          segment_holds(sp, m->top)) { /* append */
    9bb4:	e15e0005 	cmp	lr, r5
    9bb8:	2afffe59 	bcs	9524 <malloc+0x418>
  size_t offset = align_offset(chunk2mem(p));
    9bbc:	e28e1008 	add	r1, lr, #8
        init_top(m, m->top, m->topsize + tsize);
    9bc0:	e596200c 	ldr	r2, [r6, #12]
  size_t offset = align_offset(chunk2mem(p));
    9bc4:	e3110007 	tst	r1, #7
        sp->size += tsize;
    9bc8:	e0800007 	add	r0, r0, r7
    9bcc:	e5830004 	str	r0, [r3, #4]
  size_t offset = align_offset(chunk2mem(p));
    9bd0:	12613000 	rsbne	r3, r1, #0
  m->trim_check = mparams.trim_threshold; /* reset on each update */
    9bd4:	e5980010 	ldr	r0, [r8, #16]
        init_top(m, m->top, m->topsize + tsize);
    9bd8:	e0877002 	add	r7, r7, r2
  size_t offset = align_offset(chunk2mem(p));
    9bdc:	12033007 	andne	r3, r3, #7
    9be0:	01a03007 	moveq	r3, r7
    9be4:	108e1003 	addne	r1, lr, r3
    9be8:	01a0100e 	moveq	r1, lr
    9bec:	10473003 	subne	r3, r7, r3
  chunk_plus_offset(p, psize)->head = TOP_FOOT_SIZE;
    9bf0:	e08e7007 	add	r7, lr, r7
  p->head = psize | PINUSE_BIT;
    9bf4:	e3832001 	orr	r2, r3, #1
  chunk_plus_offset(p, psize)->head = TOP_FOOT_SIZE;
    9bf8:	e3a0c028 	mov	ip, #40	; 0x28
  m->top = p;
    9bfc:	e5861018 	str	r1, [r6, #24]
  m->topsize = psize;
    9c00:	e586300c 	str	r3, [r6, #12]
  p->head = psize | PINUSE_BIT;
    9c04:	e5812004 	str	r2, [r1, #4]
  chunk_plus_offset(p, psize)->head = TOP_FOOT_SIZE;
    9c08:	e587c004 	str	ip, [r7, #4]
  m->trim_check = mparams.trim_threshold; /* reset on each update */
    9c0c:	e586001c 	str	r0, [r6, #28]
    if (nb < m->topsize) { /* Allocate from new or extended top space */
    9c10:	e1540003 	cmp	r4, r3
    9c14:	3afffd8b 	bcc	9248 <malloc+0x13c>
    9c18:	eaffff0e 	b	9858 <malloc+0x74c>
  size_t offset = align_offset(chunk2mem(rawsp));
    9c1c:	e2413027 	sub	r3, r1, #39	; 0x27
    9c20:	e1a0c001 	mov	ip, r1
    9c24:	e3130007 	tst	r3, #7
  m->trim_check = mparams.trim_threshold; /* reset on each update */
    9c28:	e5988010 	ldr	r8, [r8, #16]
  size_t offset = align_offset(chunk2mem(rawsp));
    9c2c:	12639000 	rsbne	r9, r3, #0
    9c30:	03e0902e 	mvneq	r9, #46	; 0x2e
    9c34:	12099007 	andne	r9, r9, #7
  size_t offset = align_offset(chunk2mem(p));
    9c38:	e2853008 	add	r3, r5, #8
    9c3c:	1249902f 	subne	r9, r9, #47	; 0x2f
  char* asp = rawsp + offset;
    9c40:	e0819009 	add	r9, r1, r9
  char* csp = (asp < (old_top + MIN_CHUNK_SIZE))? old_top : asp;
    9c44:	e28e1010 	add	r1, lr, #16
    9c48:	e1590001 	cmp	r9, r1
    9c4c:	31a0900e 	movcc	r9, lr
  size_t offset = align_offset(chunk2mem(p));
    9c50:	e3130007 	tst	r3, #7
    9c54:	12633000 	rsbne	r3, r3, #0
  msegmentptr ss = (msegmentptr)(chunk2mem(sp));
    9c58:	e2891008 	add	r1, r9, #8
  size_t offset = align_offset(chunk2mem(p));
    9c5c:	12033007 	andne	r3, r3, #7
  msegmentptr ss = (msegmentptr)(chunk2mem(sp));
    9c60:	e58d1000 	str	r1, [sp]
  init_top(m, (mchunkptr)tbase, tsize - TOP_FOOT_SIZE);
    9c64:	e2471028 	sub	r1, r7, #40	; 0x28
    9c68:	10850003 	addne	r0, r5, r3
  size_t offset = align_offset(chunk2mem(p));
    9c6c:	01a03001 	moveq	r3, r1
    9c70:	10413003 	subne	r3, r1, r3
  assert(is_aligned(ss));
    9c74:	e289a008 	add	sl, r9, #8
  size_t offset = align_offset(chunk2mem(p));
    9c78:	01a00005 	moveq	r0, r5
  m->topsize = psize;
    9c7c:	e586300c 	str	r3, [r6, #12]
  assert(is_aligned(ss));
    9c80:	e21ab007 	ands	fp, sl, #7
  p->head = psize | PINUSE_BIT;
    9c84:	e3833001 	orr	r3, r3, #1
  m->top = p;
    9c88:	e5860018 	str	r0, [r6, #24]
  chunk_plus_offset(p, psize)->head = TOP_FOOT_SIZE;
    9c8c:	e0851001 	add	r1, r5, r1
  p->head = psize | PINUSE_BIT;
    9c90:	e5803004 	str	r3, [r0, #4]
  chunk_plus_offset(p, psize)->head = TOP_FOOT_SIZE;
    9c94:	e3a03028 	mov	r3, #40	; 0x28
  assert(is_aligned(ss));
    9c98:	e1a0a00b 	mov	sl, fp
  chunk_plus_offset(p, psize)->head = TOP_FOOT_SIZE;
    9c9c:	e5813004 	str	r3, [r1, #4]
  m->trim_check = mparams.trim_threshold; /* reset on each update */
    9ca0:	e586801c 	str	r8, [r6, #28]
  assert(is_aligned(ss));
    9ca4:	1afffef3 	bne	9878 <malloc+0x76c>
  *ss = m->seg; /* Push current record */
    9ca8:	e892000f 	ldm	r2, {r0, r1, r2, r3}
  set_size_and_pinuse_of_inuse_chunk(m, sp, ssize);
    9cac:	e3a0b01b 	mov	fp, #27
    9cb0:	e289801c 	add	r8, r9, #28
  int nfences = 0;
    9cb4:	e58da004 	str	sl, [sp, #4]
    9cb8:	e58da000 	str	sl, [sp]
  *ss = m->seg; /* Push current record */
    9cbc:	e289a008 	add	sl, r9, #8
  set_size_and_pinuse_of_inuse_chunk(m, sp, ssize);
    9cc0:	e589b004 	str	fp, [r9, #4]
    p->head = FENCEPOST_HEAD;
    9cc4:	e3a0b007 	mov	fp, #7
  *ss = m->seg; /* Push current record */
    9cc8:	e88a000f 	stm	sl, {r0, r1, r2, r3}
  m->seg.sflags = mmapped;
    9ccc:	e59d3004 	ldr	r3, [sp, #4]
  m->seg.next = ss;
    9cd0:	e586a1c8 	str	sl, [r6, #456]	; 0x1c8
    9cd4:	e1a0a003 	mov	sl, r3
  m->seg.base = tbase;
    9cd8:	e58651c0 	str	r5, [r6, #448]	; 0x1c0
  m->seg.size = tsize;
    9cdc:	e58671c4 	str	r7, [r6, #452]	; 0x1c4
  m->seg.sflags = mmapped;
    9ce0:	e58631cc 	str	r3, [r6, #460]	; 0x1cc
    p->head = FENCEPOST_HEAD;
    9ce4:	e488b004 	str	fp, [r8], #4
    if ((char*)(&(nextp->head)) < old_end)
    9ce8:	e15c0008 	cmp	ip, r8
    ++nfences;
    9cec:	e28aa001 	add	sl, sl, #1
    if ((char*)(&(nextp->head)) < old_end)
    9cf0:	8afffffb 	bhi	9ce4 <malloc+0xbd8>
  assert(nfences >= 2);
    9cf4:	e35a0001 	cmp	sl, #1
    9cf8:	0afffede 	beq	9878 <malloc+0x76c>
  if (csp != old_top) {
    9cfc:	e15e0009 	cmp	lr, r9
    9d00:	0a000117 	beq	a164 <malloc+0x1058>
    size_t psize = csp - old_top;
    9d04:	e049100e 	sub	r1, r9, lr
    set_free_with_pinuse(q, psize, tn);
    9d08:	e5993004 	ldr	r3, [r9, #4]
    insert_chunk(m, q, psize);
    9d0c:	e1a021a1 	lsr	r2, r1, #3
    set_free_with_pinuse(q, psize, tn);
    9d10:	e3810001 	orr	r0, r1, #1
    insert_chunk(m, q, psize);
    9d14:	e352001f 	cmp	r2, #31
    set_free_with_pinuse(q, psize, tn);
    9d18:	e3c33001 	bic	r3, r3, #1
    9d1c:	e5893004 	str	r3, [r9, #4]
    9d20:	e58e0004 	str	r0, [lr, #4]
    9d24:	e5891000 	str	r1, [r9]
    insert_chunk(m, q, psize);
    9d28:	8a0000c5 	bhi	a044 <malloc+0xf38>
    9d2c:	e0863182 	add	r3, r6, r2, lsl #3
    9d30:	e351000f 	cmp	r1, #15
    9d34:	e2833028 	add	r3, r3, #40	; 0x28
    9d38:	9afffece 	bls	9878 <malloc+0x76c>
    9d3c:	e3a01001 	mov	r1, #1
    9d40:	e5960000 	ldr	r0, [r6]
    9d44:	e1a02211 	lsl	r2, r1, r2
    9d48:	e1100002 	tst	r0, r2
    9d4c:	1a000135 	bne	a228 <malloc+0x111c>
    9d50:	e1a01003 	mov	r1, r3
    9d54:	e1802002 	orr	r2, r0, r2
    9d58:	e5862000 	str	r2, [r6]
    9d5c:	e583e008 	str	lr, [r3, #8]
    9d60:	e581e00c 	str	lr, [r1, #12]
    9d64:	e58e300c 	str	r3, [lr, #12]
    9d68:	e58e1008 	str	r1, [lr, #8]
    9d6c:	e596300c 	ldr	r3, [r6, #12]
    9d70:	eaffffa6 	b	9c10 <malloc+0xb04>
    9d74:	e3e03001 	mvn	r3, #1
  if (t == 0 && v == 0) { /* set t to root of next non-empty treebin */
    9d78:	e1a09007 	mov	r9, r7
    9d7c:	e1a08813 	lsl	r8, r3, r8
    if (leftbits != 0) {
    9d80:	e01c8008 	ands	r8, ip, r8
    9d84:	0afffd2a 	beq	9234 <malloc+0x128>
      binmap_t leastbit = least_bit(leftbits);
    9d88:	e2683000 	rsb	r3, r8, #0
    9d8c:	e0033008 	and	r3, r3, r8
      compute_bit2idx(leastbit, i);
    9d90:	e2433001 	sub	r3, r3, #1
    9d94:	e1a02623 	lsr	r2, r3, #12
    9d98:	e2022010 	and	r2, r2, #16
    9d9c:	e1a03233 	lsr	r3, r3, r2
    9da0:	e1a002a3 	lsr	r0, r3, #5
    9da4:	e2000008 	and	r0, r0, #8
    9da8:	e1a03033 	lsr	r3, r3, r0
    9dac:	e1822000 	orr	r2, r2, r0
    9db0:	e1a00123 	lsr	r0, r3, #2
    9db4:	e2000004 	and	r0, r0, #4
    9db8:	e1a03033 	lsr	r3, r3, r0
    9dbc:	e0822000 	add	r2, r2, r0
    9dc0:	e1a000a3 	lsr	r0, r3, #1
    9dc4:	e2000002 	and	r0, r0, #2
    9dc8:	e1a03033 	lsr	r3, r3, r0
    9dcc:	e0822000 	add	r2, r2, r0
    9dd0:	e7e000d3 	ubfx	r0, r3, #1, #1
      t = *treebin_at(m, i);
    9dd4:	e0822000 	add	r2, r2, r0
    9dd8:	e0823033 	add	r3, r2, r3, lsr r0
    9ddc:	e283304c 	add	r3, r3, #76	; 0x4c
    9de0:	e7963103 	ldr	r3, [r6, r3, lsl #2]
  while (t != 0) { /* find smallest of tree or subtree */
    9de4:	e3530000 	cmp	r3, #0
    9de8:	13a00000 	movne	r0, #0
    9dec:	1afffe0d 	bne	9628 <malloc+0x51c>
    9df0:	eafffd0f 	b	9234 <malloc+0x128>
      ssize = granularity_align(nb - m->topsize + SYS_ALLOC_PADDING);
    9df4:	e596700c 	ldr	r7, [r6, #12]
    9df8:	e04c7007 	sub	r7, ip, r7
    9dfc:	e0877004 	add	r7, r7, r4
    9e00:	e0077000 	and	r7, r7, r0
      if (ssize < HALF_MAX_SIZE_T &&
    9e04:	e377010a 	cmn	r7, #-2147483646	; 0x80000002
    9e08:	8afffe8e 	bhi	9848 <malloc+0x73c>
    9e0c:	e1a00007 	mov	r0, r7
    9e10:	ebfffc2b 	bl	8ec4 <sbrk>
          (br = (char*)(CALL_MORECORE(ssize))) == ss->base+ss->size) {
    9e14:	e5992000 	ldr	r2, [r9]
    if (tbase == CMFAIL) {    /* Cope with partial failure */
    9e18:	e3700001 	cmn	r0, #1
          (br = (char*)(CALL_MORECORE(ssize))) == ss->base+ss->size) {
    9e1c:	e5991004 	ldr	r1, [r9, #4]
    if (tbase == CMFAIL) {    /* Cope with partial failure */
    9e20:	13a03000 	movne	r3, #0
    9e24:	03a03001 	moveq	r3, #1
      if (ssize < HALF_MAX_SIZE_T &&
    9e28:	e1a05000 	mov	r5, r0
          (br = (char*)(CALL_MORECORE(ssize))) == ss->base+ss->size) {
    9e2c:	e0822001 	add	r2, r2, r1
    if (tbase == CMFAIL) {    /* Cope with partial failure */
    9e30:	e1500002 	cmp	r0, r2
    9e34:	13833001 	orrne	r3, r3, #1
    9e38:	e3530000 	cmp	r3, #0
    9e3c:	0afffda5 	beq	94d8 <malloc+0x3cc>
      if (br != CMFAIL) {    /* Try to use/extend the space we did get */
    9e40:	e3750001 	cmn	r5, #1
    9e44:	0afffe7e 	beq	9844 <malloc+0x738>
            ssize < nb + SYS_ALLOC_PADDING) {
    9e48:	e2843030 	add	r3, r4, #48	; 0x30
        if (ssize < HALF_MAX_SIZE_T &&
    9e4c:	e1530007 	cmp	r3, r7
    9e50:	9afffda0 	bls	94d8 <malloc+0x3cc>
          size_t esize = granularity_align(nb + SYS_ALLOC_PADDING - ssize);
    9e54:	e5983008 	ldr	r3, [r8, #8]
    9e58:	e267b000 	rsb	fp, r7, #0
    9e5c:	e283902f 	add	r9, r3, #47	; 0x2f
    9e60:	e2633000 	rsb	r3, r3, #0
    9e64:	e0899004 	add	r9, r9, r4
    9e68:	e0499007 	sub	r9, r9, r7
    9e6c:	e0099003 	and	r9, r9, r3
          if (esize < HALF_MAX_SIZE_T) {
    9e70:	e379010a 	cmn	r9, #-2147483646	; 0x80000002
    9e74:	8afffd97 	bhi	94d8 <malloc+0x3cc>
            char* end = (char*)CALL_MORECORE(esize);
    9e78:	e1a00009 	mov	r0, r9
    9e7c:	ebfffc10 	bl	8ec4 <sbrk>
            if (end != CMFAIL)
    9e80:	e3700001 	cmn	r0, #1
              ssize += esize;
    9e84:	10877009 	addne	r7, r7, r9
            if (end != CMFAIL)
    9e88:	1afffd92 	bne	94d8 <malloc+0x3cc>
              (void) CALL_MORECORE(-ssize);
    9e8c:	e1a0000b 	mov	r0, fp
    9e90:	ebfffc0b 	bl	8ec4 <sbrk>
    9e94:	eafffe6a 	b	9844 <malloc+0x738>
      if (m->least_addr == 0 || tbase < m->least_addr)
    9e98:	e5962010 	ldr	r2, [r6, #16]
      m->seg.sflags = mmap_flag;
    9e9c:	e3a00000 	mov	r0, #0
      m->magic = mparams.magic;
    9ea0:	e598c000 	ldr	ip, [r8]
      m->release_checks = MAX_RELEASE_CHECK_RATE;
    9ea4:	e3e01000 	mvn	r1, #0
      m->seg.base = tbase;
    9ea8:	e58651c0 	str	r5, [r6, #448]	; 0x1c0
      if (m->least_addr == 0 || tbase < m->least_addr)
    9eac:	e1520005 	cmp	r2, r5
      m->seg.size = tsize;
    9eb0:	e58671c4 	str	r7, [r6, #452]	; 0x1c4
      if (m->least_addr == 0 || tbase < m->least_addr)
    9eb4:	93a03000 	movls	r3, #0
    9eb8:	83a03001 	movhi	r3, #1
    9ebc:	e3520000 	cmp	r2, #0
      m->magic = mparams.magic;
    9ec0:	e586c024 	str	ip, [r6, #36]	; 0x24
      if (m->least_addr == 0 || tbase < m->least_addr)
    9ec4:	03a03001 	moveq	r3, #1
      m->seg.sflags = mmap_flag;
    9ec8:	e58601cc 	str	r0, [r6, #460]	; 0x1cc
      if (m->least_addr == 0 || tbase < m->least_addr)
    9ecc:	e3530000 	cmp	r3, #0
    9ed0:	e59f360c 	ldr	r3, [pc, #1548]	; a4e4 <malloc+0x13d8>
        m->least_addr = tbase;
    9ed4:	15865010 	strne	r5, [r6, #16]
      m->release_checks = MAX_RELEASE_CHECK_RATE;
    9ed8:	e5861020 	str	r1, [r6, #32]
    9edc:	e2832c01 	add	r2, r3, #256	; 0x100
    bin->fd = bin->bk = bin;
    9ee0:	e583300c 	str	r3, [r3, #12]
    9ee4:	e5833008 	str	r3, [r3, #8]
    9ee8:	e2833008 	add	r3, r3, #8
  for (i = 0; i < NSMALLBINS; ++i) {
    9eec:	e1520003 	cmp	r2, r3
    9ef0:	1afffffa 	bne	9ee0 <malloc+0xdd4>
  size_t offset = align_offset(chunk2mem(p));
    9ef4:	e2853008 	add	r3, r5, #8
        init_top(m, (mchunkptr)tbase, tsize - TOP_FOOT_SIZE);
    9ef8:	e2477028 	sub	r7, r7, #40	; 0x28
  size_t offset = align_offset(chunk2mem(p));
    9efc:	e3130007 	tst	r3, #7
  m->trim_check = mparams.trim_threshold; /* reset on each update */
    9f00:	e5980010 	ldr	r0, [r8, #16]
  size_t offset = align_offset(chunk2mem(p));
    9f04:	12633000 	rsbne	r3, r3, #0
    9f08:	01a03007 	moveq	r3, r7
    9f0c:	12033007 	andne	r3, r3, #7
    9f10:	01a01005 	moveq	r1, r5
    9f14:	10851003 	addne	r1, r5, r3
    9f18:	10473003 	subne	r3, r7, r3
  chunk_plus_offset(p, psize)->head = TOP_FOOT_SIZE;
    9f1c:	e0857007 	add	r7, r5, r7
    9f20:	eaffff33 	b	9bf4 <malloc+0xae8>
  compute_tree_index(nb, idx);
    9f24:	e2483c01 	sub	r3, r8, #256	; 0x100
    9f28:	e1a03823 	lsr	r3, r3, #16
    9f2c:	e2033008 	and	r3, r3, #8
    9f30:	e1a08318 	lsl	r8, r8, r3
    9f34:	e2482a01 	sub	r2, r8, #4096	; 0x1000
    9f38:	e1a02822 	lsr	r2, r2, #16
    9f3c:	e2022004 	and	r2, r2, #4
    9f40:	e1a08218 	lsl	r8, r8, r2
    9f44:	e1833002 	orr	r3, r3, r2
    9f48:	e2482901 	sub	r2, r8, #16384	; 0x4000
    9f4c:	e1a02822 	lsr	r2, r2, #16
    9f50:	e2022002 	and	r2, r2, #2
    9f54:	e1a08218 	lsl	r8, r8, r2
    9f58:	e0833002 	add	r3, r3, r2
    9f5c:	e06387a8 	rsb	r8, r3, r8, lsr #15
    9f60:	e2883015 	add	r3, r8, #21
    9f64:	e288800e 	add	r8, r8, #14
    9f68:	e1a03334 	lsr	r3, r4, r3
    9f6c:	e2033001 	and	r3, r3, #1
    9f70:	e0838088 	add	r8, r3, r8, lsl #1
  if ((t = *treebin_at(m, idx)) != 0) {
    9f74:	e288304c 	add	r3, r8, #76	; 0x4c
    9f78:	e7963103 	ldr	r3, [r6, r3, lsl #2]
    9f7c:	e3530000 	cmp	r3, #0
    9f80:	0affff7b 	beq	9d74 <malloc+0xc68>
    size_t sizebits = nb << leftshift_for_tree_index(idx);
    9f84:	e358001f 	cmp	r8, #31
    9f88:	01a0e004 	moveq	lr, r4
    9f8c:	0afffd86 	beq	95ac <malloc+0x4a0>
    9f90:	e1a0e0a8 	lsr	lr, r8, #1
    9f94:	e26ee019 	rsb	lr, lr, #25
    9f98:	eafffd82 	b	95a8 <malloc+0x49c>
        if ((rsize = trem) == 0)
    9f9c:	e1a00003 	mov	r0, r3
    9fa0:	eafffda0 	b	9628 <malloc+0x51c>
          insert_chunk(m, r, rsize);
    9fa4:	e1a031a9 	lsr	r3, r9, #3
          set_size_and_pinuse_of_inuse_chunk(m, v, nb);
    9fa8:	e3842003 	orr	r2, r4, #3
    9fac:	e5802004 	str	r2, [r0, #4]
          set_size_and_pinuse_of_free_chunk(r, rsize);
    9fb0:	e3892001 	orr	r2, r9, #1
          insert_chunk(m, r, rsize);
    9fb4:	e353001f 	cmp	r3, #31
          set_size_and_pinuse_of_free_chunk(r, rsize);
    9fb8:	e5872004 	str	r2, [r7, #4]
    9fbc:	e7879009 	str	r9, [r7, r9]
          insert_chunk(m, r, rsize);
    9fc0:	8a000069 	bhi	a16c <malloc+0x1060>
    9fc4:	e3a02001 	mov	r2, #1
    9fc8:	e5961000 	ldr	r1, [r6]
    9fcc:	e1a02312 	lsl	r2, r2, r3
    9fd0:	e0863183 	add	r3, r6, r3, lsl #3
    9fd4:	e1110002 	tst	r1, r2
    9fd8:	e2833028 	add	r3, r3, #40	; 0x28
    9fdc:	1a0000e5 	bne	a378 <malloc+0x126c>
    9fe0:	e1811002 	orr	r1, r1, r2
    9fe4:	e1a02003 	mov	r2, r3
    9fe8:	e5861000 	str	r1, [r6]
    9fec:	e5837008 	str	r7, [r3, #8]
    9ff0:	e582700c 	str	r7, [r2, #12]
    9ff4:	e1c720f8 	strd	r2, [r7, #8]
    9ff8:	eafffdde 	b	9778 <malloc+0x66c>
        unlink_large_chunk(m, v);
    9ffc:	e5901014 	ldr	r1, [r0, #20]
    a000:	e3510000 	cmp	r1, #0
    a004:	12803014 	addne	r3, r0, #20
    a008:	0a000094 	beq	a260 <malloc+0x1154>
    a00c:	e1a0c003 	mov	ip, r3
    a010:	e1a03001 	mov	r3, r1
    a014:	e1a02001 	mov	r2, r1
    a018:	e5b31014 	ldr	r1, [r3, #20]!
    a01c:	e3510000 	cmp	r1, #0
    a020:	1afffff9 	bne	a00c <malloc+0xf00>
    a024:	e1a03002 	mov	r3, r2
    a028:	e5b31010 	ldr	r1, [r3, #16]!
    a02c:	e3510000 	cmp	r1, #0
    a030:	1afffff5 	bne	a00c <malloc+0xf00>
    a034:	e155000c 	cmp	r5, ip
    a038:	8afffe0e 	bhi	9878 <malloc+0x76c>
    a03c:	e58c1000 	str	r1, [ip]
    a040:	eafffda3 	b	96d4 <malloc+0x5c8>
    insert_chunk(m, q, psize);
    a044:	e1a03421 	lsr	r3, r1, #8
    a048:	e3530801 	cmp	r3, #65536	; 0x10000
    a04c:	2a000070 	bcs	a214 <malloc+0x1108>
    a050:	e2430c01 	sub	r0, r3, #256	; 0x100
    a054:	e3a02001 	mov	r2, #1
    a058:	e1a00820 	lsr	r0, r0, #16
    a05c:	e2000008 	and	r0, r0, #8
    a060:	e1a03013 	lsl	r3, r3, r0
    a064:	e243ca01 	sub	ip, r3, #4096	; 0x1000
    a068:	e1a0c82c 	lsr	ip, ip, #16
    a06c:	e20cc004 	and	ip, ip, #4
    a070:	e1a03c13 	lsl	r3, r3, ip
    a074:	e180000c 	orr	r0, r0, ip
    a078:	e243c901 	sub	ip, r3, #16384	; 0x4000
    a07c:	e1a0c82c 	lsr	ip, ip, #16
    a080:	e20cc002 	and	ip, ip, #2
    a084:	e1a03c13 	lsl	r3, r3, ip
    a088:	e080000c 	add	r0, r0, ip
    a08c:	e06007a3 	rsb	r0, r0, r3, lsr #15
    a090:	e2803015 	add	r3, r0, #21
    a094:	e280000e 	add	r0, r0, #14
    a098:	e1a03331 	lsr	r3, r1, r3
    a09c:	e0033002 	and	r3, r3, r2
    a0a0:	e0833210 	add	r3, r3, r0, lsl r2
    a0a4:	e283704c 	add	r7, r3, #76	; 0x4c
    a0a8:	e1a02312 	lsl	r2, r2, r3
    a0ac:	e1a05107 	lsl	r5, r7, #2
    a0b0:	e596c004 	ldr	ip, [r6, #4]
    a0b4:	e3a00000 	mov	r0, #0
    a0b8:	e58e301c 	str	r3, [lr, #28]
    a0bc:	e58e0014 	str	r0, [lr, #20]
    a0c0:	e112000c 	tst	r2, ip
    a0c4:	e58e0010 	str	r0, [lr, #16]
    a0c8:	0a00005b 	beq	a23c <malloc+0x1130>
    a0cc:	e353001f 	cmp	r3, #31
    a0d0:	e7960107 	ldr	r0, [r6, r7, lsl #2]
    a0d4:	11a020a3 	lsrne	r2, r3, #1
    a0d8:	01a02001 	moveq	r2, r1
    a0dc:	12622019 	rsbne	r2, r2, #25
    a0e0:	11a02211 	lslne	r2, r1, r2
    a0e4:	ea000006 	b	a104 <malloc+0xff8>
    a0e8:	e1a03fa2 	lsr	r3, r2, #31
    a0ec:	e1a02082 	lsl	r2, r2, #1
    a0f0:	e2833004 	add	r3, r3, #4
    a0f4:	e790c103 	ldr	ip, [r0, r3, lsl #2]
    a0f8:	e35c0000 	cmp	ip, #0
    a0fc:	0a0000a1 	beq	a388 <malloc+0x127c>
    a100:	e1a0000c 	mov	r0, ip
    a104:	e5903004 	ldr	r3, [r0, #4]
    a108:	e3c33007 	bic	r3, r3, #7
    a10c:	e1510003 	cmp	r1, r3
    a110:	1afffff4 	bne	a0e8 <malloc+0xfdc>
    a114:	e5903008 	ldr	r3, [r0, #8]
    a118:	e5962010 	ldr	r2, [r6, #16]
    a11c:	e1530002 	cmp	r3, r2
    a120:	21500002 	cmpcs	r0, r2
    a124:	3afffdd3 	bcc	9878 <malloc+0x76c>
    a128:	e3a02000 	mov	r2, #0
    a12c:	e583e00c 	str	lr, [r3, #12]
    a130:	e580e008 	str	lr, [r0, #8]
    a134:	e58e3008 	str	r3, [lr, #8]
    a138:	e58e000c 	str	r0, [lr, #12]
    a13c:	e58e2018 	str	r2, [lr, #24]
    a140:	e596300c 	ldr	r3, [r6, #12]
    a144:	eafffeb1 	b	9c10 <malloc+0xb04>
            replace_dv(gm, r, rsize);
    a148:	e593e008 	ldr	lr, [r3, #8]
    a14c:	e5961010 	ldr	r1, [r6, #16]
    a150:	e15e0001 	cmp	lr, r1
    a154:	2afffc96 	bcs	93b4 <malloc+0x2a8>
    a158:	eafffdc6 	b	9878 <malloc+0x76c>
    a15c:	e3811003 	orr	r1, r1, #3
    a160:	eafffc24 	b	91f8 <malloc+0xec>
    a164:	e596300c 	ldr	r3, [r6, #12]
    a168:	eafffea8 	b	9c10 <malloc+0xb04>
          insert_chunk(m, r, rsize);
    a16c:	e1a03429 	lsr	r3, r9, #8
    a170:	e3530801 	cmp	r3, #65536	; 0x10000
    a174:	2a00007a 	bcs	a364 <malloc+0x1258>
    a178:	e2431c01 	sub	r1, r3, #256	; 0x100
    a17c:	e3a02001 	mov	r2, #1
    a180:	e1a01821 	lsr	r1, r1, #16
    a184:	e2011008 	and	r1, r1, #8
    a188:	e1a03113 	lsl	r3, r3, r1
    a18c:	e243ca01 	sub	ip, r3, #4096	; 0x1000
    a190:	e1a0c82c 	lsr	ip, ip, #16
    a194:	e20cc004 	and	ip, ip, #4
    a198:	e1a03c13 	lsl	r3, r3, ip
    a19c:	e181100c 	orr	r1, r1, ip
    a1a0:	e243c901 	sub	ip, r3, #16384	; 0x4000
    a1a4:	e1a0c82c 	lsr	ip, ip, #16
    a1a8:	e20cc002 	and	ip, ip, #2
    a1ac:	e1a03c13 	lsl	r3, r3, ip
    a1b0:	e081100c 	add	r1, r1, ip
    a1b4:	e06117a3 	rsb	r1, r1, r3, lsr #15
    a1b8:	e2813015 	add	r3, r1, #21
    a1bc:	e281100e 	add	r1, r1, #14
    a1c0:	e1a03339 	lsr	r3, r9, r3
    a1c4:	e0033002 	and	r3, r3, r2
    a1c8:	e0833211 	add	r3, r3, r1, lsl r2
    a1cc:	e283804c 	add	r8, r3, #76	; 0x4c
    a1d0:	e1a02312 	lsl	r2, r2, r3
    a1d4:	e1a0e108 	lsl	lr, r8, #2
    a1d8:	e5961004 	ldr	r1, [r6, #4]
    a1dc:	e3a0c000 	mov	ip, #0
    a1e0:	e587301c 	str	r3, [r7, #28]
    a1e4:	e587c014 	str	ip, [r7, #20]
    a1e8:	e1110002 	tst	r1, r2
    a1ec:	e587c010 	str	ip, [r7, #16]
    a1f0:	1a00003e 	bne	a2f0 <malloc+0x11e4>
    a1f4:	e1811002 	orr	r1, r1, r2
    a1f8:	e086e00e 	add	lr, r6, lr
    a1fc:	e7867108 	str	r7, [r6, r8, lsl #2]
    a200:	e5861004 	str	r1, [r6, #4]
    a204:	e587e018 	str	lr, [r7, #24]
    a208:	e587700c 	str	r7, [r7, #12]
    a20c:	e5877008 	str	r7, [r7, #8]
    a210:	eafffd58 	b	9778 <malloc+0x66c>
    insert_chunk(m, q, psize);
    a214:	e3a02102 	mov	r2, #-2147483648	; 0x80000000
    a218:	e3a05f6b 	mov	r5, #428	; 0x1ac
    a21c:	e3a0301f 	mov	r3, #31
    a220:	e3a0706b 	mov	r7, #107	; 0x6b
    a224:	eaffffa1 	b	a0b0 <malloc+0xfa4>
    a228:	e5931008 	ldr	r1, [r3, #8]
    a22c:	e5962010 	ldr	r2, [r6, #16]
    a230:	e1510002 	cmp	r1, r2
    a234:	2afffec8 	bcs	9d5c <malloc+0xc50>
    a238:	eafffd8e 	b	9878 <malloc+0x76c>
    a23c:	e182200c 	orr	r2, r2, ip
    a240:	e0865005 	add	r5, r6, r5
    a244:	e786e107 	str	lr, [r6, r7, lsl #2]
    a248:	e596300c 	ldr	r3, [r6, #12]
    a24c:	e5862004 	str	r2, [r6, #4]
    a250:	e58e5018 	str	r5, [lr, #24]
    a254:	e58ee00c 	str	lr, [lr, #12]
    a258:	e58ee008 	str	lr, [lr, #8]
    a25c:	eafffe6b 	b	9c10 <malloc+0xb04>
        unlink_large_chunk(m, v);
    a260:	e5901010 	ldr	r1, [r0, #16]
    a264:	e3510000 	cmp	r1, #0
    a268:	0a0000e4 	beq	a600 <malloc+0x14f4>
    a26c:	e2803010 	add	r3, r0, #16
    a270:	eaffff65 	b	a00c <malloc+0xf00>
        set_inuse_and_pinuse(m, v, (rsize + nb));
    a274:	e0802008 	add	r2, r0, r8
    a278:	e3888003 	orr	r8, r8, #3
    a27c:	e5923004 	ldr	r3, [r2, #4]
    a280:	e5808004 	str	r8, [r0, #4]
    a284:	e3833001 	orr	r3, r3, #1
    a288:	e5823004 	str	r3, [r2, #4]
    a28c:	eafffd39 	b	9778 <malloc+0x66c>
      unlink_large_chunk(m, v);
    a290:	e5903014 	ldr	r3, [r0, #20]
    a294:	e3530000 	cmp	r3, #0
    a298:	12802014 	addne	r2, r0, #20
    a29c:	0a0000e9 	beq	a648 <malloc+0x153c>
  rsize = chunksize(t) - nb;
    a2a0:	e1a07003 	mov	r7, r3
    a2a4:	e1a05002 	mov	r5, r2
      unlink_large_chunk(m, v);
    a2a8:	e1a03007 	mov	r3, r7
    a2ac:	e5b32014 	ldr	r2, [r3, #20]!
    a2b0:	e3520000 	cmp	r2, #0
    a2b4:	0a000005 	beq	a2d0 <malloc+0x11c4>
    a2b8:	e1a07002 	mov	r7, r2
    a2bc:	e1a05003 	mov	r5, r3
    a2c0:	e1a03007 	mov	r3, r7
    a2c4:	e5b32014 	ldr	r2, [r3, #20]!
    a2c8:	e3520000 	cmp	r2, #0
    a2cc:	1afffff9 	bne	a2b8 <malloc+0x11ac>
    a2d0:	e1a02007 	mov	r2, r7
    a2d4:	e5b23010 	ldr	r3, [r2, #16]!
    a2d8:	e3530000 	cmp	r3, #0
    a2dc:	1affffef 	bne	a2a0 <malloc+0x1194>
    a2e0:	e15a0005 	cmp	sl, r5
    a2e4:	8afffd63 	bhi	9878 <malloc+0x76c>
    a2e8:	e5853000 	str	r3, [r5]
    a2ec:	eafffda9 	b	9998 <malloc+0x88c>
          insert_chunk(m, r, rsize);
    a2f0:	e353001f 	cmp	r3, #31
    a2f4:	e7961108 	ldr	r1, [r6, r8, lsl #2]
    a2f8:	11a020a3 	lsrne	r2, r3, #1
    a2fc:	01a02009 	moveq	r2, r9
    a300:	12622019 	rsbne	r2, r2, #25
    a304:	11a02219 	lslne	r2, r9, r2
    a308:	ea000006 	b	a328 <malloc+0x121c>
    a30c:	e1a03fa2 	lsr	r3, r2, #31
    a310:	e1a02082 	lsl	r2, r2, #1
    a314:	e2833004 	add	r3, r3, #4
    a318:	e791c103 	ldr	ip, [r1, r3, lsl #2]
    a31c:	e35c0000 	cmp	ip, #0
    a320:	0a00009c 	beq	a598 <malloc+0x148c>
    a324:	e1a0100c 	mov	r1, ip
    a328:	e5913004 	ldr	r3, [r1, #4]
    a32c:	e3c33007 	bic	r3, r3, #7
    a330:	e1530009 	cmp	r3, r9
    a334:	1afffff4 	bne	a30c <malloc+0x1200>
    a338:	e5913008 	ldr	r3, [r1, #8]
    a33c:	e1550001 	cmp	r5, r1
    a340:	91550003 	cmpls	r5, r3
    a344:	8afffd4b 	bhi	9878 <malloc+0x76c>
    a348:	e3a02000 	mov	r2, #0
    a34c:	e583700c 	str	r7, [r3, #12]
    a350:	e5817008 	str	r7, [r1, #8]
    a354:	e5873008 	str	r3, [r7, #8]
    a358:	e587100c 	str	r1, [r7, #12]
    a35c:	e5872018 	str	r2, [r7, #24]
    a360:	eafffd04 	b	9778 <malloc+0x66c>
    a364:	e3a0ef6b 	mov	lr, #428	; 0x1ac
    a368:	e3a02102 	mov	r2, #-2147483648	; 0x80000000
    a36c:	e3a0301f 	mov	r3, #31
    a370:	e3a0806b 	mov	r8, #107	; 0x6b
    a374:	eaffff97 	b	a1d8 <malloc+0x10cc>
    a378:	e5932008 	ldr	r2, [r3, #8]
    a37c:	e1550002 	cmp	r5, r2
    a380:	9affff19 	bls	9fec <malloc+0xee0>
    a384:	eafffd3b 	b	9878 <malloc+0x76c>
    insert_chunk(m, q, psize);
    a388:	e5961010 	ldr	r1, [r6, #16]
    a38c:	e0802103 	add	r2, r0, r3, lsl #2
    a390:	e1510002 	cmp	r1, r2
    a394:	8afffd37 	bhi	9878 <malloc+0x76c>
    a398:	e780e103 	str	lr, [r0, r3, lsl #2]
    a39c:	e596300c 	ldr	r3, [r6, #12]
    a3a0:	e58e0018 	str	r0, [lr, #24]
    a3a4:	e58ee00c 	str	lr, [lr, #12]
    a3a8:	e58ee008 	str	lr, [lr, #8]
    a3ac:	eafffe17 	b	9c10 <malloc+0xb04>
    size_t tsize = m->topsize += qsize;
    a3b0:	e596300c 	ldr	r3, [r6, #12]
    m->top = q;
    a3b4:	e5862018 	str	r2, [r6, #24]
    size_t tsize = m->topsize += qsize;
    a3b8:	e0844003 	add	r4, r4, r3
    q->head = tsize | PINUSE_BIT;
    a3bc:	e3843001 	orr	r3, r4, #1
    size_t tsize = m->topsize += qsize;
    a3c0:	e586400c 	str	r4, [r6, #12]
    q->head = tsize | PINUSE_BIT;
    a3c4:	e5823004 	str	r3, [r2, #4]
    a3c8:	eafffdf2 	b	9b98 <malloc+0xa8c>
    insert_chunk(m, q, qsize);
    a3cc:	e1a01424 	lsr	r1, r4, #8
    a3d0:	e3510801 	cmp	r1, #65536	; 0x10000
    a3d4:	2a000077 	bcs	a5b8 <malloc+0x14ac>
    a3d8:	e2413c01 	sub	r3, r1, #256	; 0x100
    a3dc:	e3a00001 	mov	r0, #1
    a3e0:	e1a03823 	lsr	r3, r3, #16
    a3e4:	e2033008 	and	r3, r3, #8
    a3e8:	e1a01311 	lsl	r1, r1, r3
    a3ec:	e241ca01 	sub	ip, r1, #4096	; 0x1000
    a3f0:	e1a0c82c 	lsr	ip, ip, #16
    a3f4:	e20cc004 	and	ip, ip, #4
    a3f8:	e1a01c11 	lsl	r1, r1, ip
    a3fc:	e183300c 	orr	r3, r3, ip
    a400:	e241c901 	sub	ip, r1, #16384	; 0x4000
    a404:	e1a0c82c 	lsr	ip, ip, #16
    a408:	e20cc002 	and	ip, ip, #2
    a40c:	e1a01c11 	lsl	r1, r1, ip
    a410:	e083300c 	add	r3, r3, ip
    a414:	e06337a1 	rsb	r3, r3, r1, lsr #15
    a418:	e2831015 	add	r1, r3, #21
    a41c:	e283300e 	add	r3, r3, #14
    a420:	e1a01134 	lsr	r1, r4, r1
    a424:	e0011000 	and	r1, r1, r0
    a428:	e0811013 	add	r1, r1, r3, lsl r0
    a42c:	e281e04c 	add	lr, r1, #76	; 0x4c
    a430:	e1a00110 	lsl	r0, r0, r1
    a434:	e1a0710e 	lsl	r7, lr, #2
    a438:	e596c004 	ldr	ip, [r6, #4]
    a43c:	e3a03000 	mov	r3, #0
    a440:	e582101c 	str	r1, [r2, #28]
    a444:	e5823014 	str	r3, [r2, #20]
    a448:	e110000c 	tst	r0, ip
    a44c:	e5823010 	str	r3, [r2, #16]
    a450:	0a000062 	beq	a5e0 <malloc+0x14d4>
    a454:	e351001f 	cmp	r1, #31
    a458:	e796010e 	ldr	r0, [r6, lr, lsl #2]
    a45c:	11a030a1 	lsrne	r3, r1, #1
    a460:	12633019 	rsbne	r3, r3, #25
    a464:	e1a01314 	lsl	r1, r4, r3
    a468:	ea000006 	b	a488 <malloc+0x137c>
    a46c:	e1a03fa1 	lsr	r3, r1, #31
    a470:	e1a01081 	lsl	r1, r1, #1
    a474:	e2833004 	add	r3, r3, #4
    a478:	e790c103 	ldr	ip, [r0, r3, lsl #2]
    a47c:	e35c0000 	cmp	ip, #0
    a480:	0a0000a8 	beq	a728 <malloc+0x161c>
    a484:	e1a0000c 	mov	r0, ip
    a488:	e5903004 	ldr	r3, [r0, #4]
    a48c:	e3c33007 	bic	r3, r3, #7
    a490:	e1540003 	cmp	r4, r3
    a494:	1afffff4 	bne	a46c <malloc+0x1360>
    a498:	e5961010 	ldr	r1, [r6, #16]
    a49c:	e5903008 	ldr	r3, [r0, #8]
    a4a0:	e1530001 	cmp	r3, r1
    a4a4:	21500001 	cmpcs	r0, r1
    a4a8:	3afffcf2 	bcc	9878 <malloc+0x76c>
    a4ac:	e3a01000 	mov	r1, #0
    a4b0:	e583200c 	str	r2, [r3, #12]
    a4b4:	e5802008 	str	r2, [r0, #8]
    a4b8:	e5823008 	str	r3, [r2, #8]
    a4bc:	e582000c 	str	r0, [r2, #12]
    a4c0:	e5821018 	str	r1, [r2, #24]
    a4c4:	eafffdb3 	b	9b98 <malloc+0xa8c>
             (fp > m->footprint && fp <= m->footprint_limit)) &&
    a4c8:	e1a00007 	mov	r0, r7
    a4cc:	ebfffa7c 	bl	8ec4 <sbrk>
    a4d0:	e1590000 	cmp	r9, r0
    a4d4:	e1a05000 	mov	r5, r0
    a4d8:	1afffe58 	bne	9e40 <malloc+0xd34>
    a4dc:	eafffbfd 	b	94d8 <malloc+0x3cc>
    a4e0:	000132b0 	.word	0x000132b0
    a4e4:	00013118 	.word	0x00013118
    size_t dsize = m->dvsize += qsize;
    a4e8:	e5963008 	ldr	r3, [r6, #8]
    m->dv = q;
    a4ec:	e5862014 	str	r2, [r6, #20]
    size_t dsize = m->dvsize += qsize;
    a4f0:	e0844003 	add	r4, r4, r3
    set_size_and_pinuse_of_free_chunk(q, dsize);
    a4f4:	e3843001 	orr	r3, r4, #1
    size_t dsize = m->dvsize += qsize;
    a4f8:	e5864008 	str	r4, [r6, #8]
    set_size_and_pinuse_of_free_chunk(q, dsize);
    a4fc:	e5823004 	str	r3, [r2, #4]
    a500:	e7824004 	str	r4, [r2, r4]
    a504:	eafffda3 	b	9b98 <malloc+0xa8c>
      size_t nsize = chunksize(oldfirst);
    a508:	e3c33007 	bic	r3, r3, #7
    a50c:	e591000c 	ldr	r0, [r1, #12]
      unlink_chunk(m, oldfirst, nsize);
    a510:	e1a0e1a3 	lsr	lr, r3, #3
    a514:	e35e001f 	cmp	lr, #31
    a518:	8a00004f 	bhi	a65c <malloc+0x1550>
    a51c:	e1500001 	cmp	r0, r1
    a520:	e591c008 	ldr	ip, [r1, #8]
    a524:	0afffcd3 	beq	9878 <malloc+0x76c>
    a528:	e15c0001 	cmp	ip, r1
    a52c:	0afffcd1 	beq	9878 <malloc+0x76c>
    a530:	e086718e 	add	r7, r6, lr, lsl #3
    a534:	e2877028 	add	r7, r7, #40	; 0x28
    a538:	e15c0007 	cmp	ip, r7
    a53c:	1afffcc7 	bne	9860 <malloc+0x754>
    a540:	e15c0000 	cmp	ip, r0
    a544:	0a0000a2 	beq	a7d4 <malloc+0x16c8>
    a548:	e1570000 	cmp	r7, r0
    a54c:	1a0000b7 	bne	a830 <malloc+0x1724>
    a550:	e58c000c 	str	r0, [ip, #12]
    a554:	e580c008 	str	ip, [r0, #8]
      qsize += nsize;
    a558:	e0844003 	add	r4, r4, r3
      oldfirst = chunk_plus_offset(oldfirst, nsize);
    a55c:	e0811003 	add	r1, r1, r3
    set_free_with_pinuse(q, qsize, oldfirst);
    a560:	e5913004 	ldr	r3, [r1, #4]
    insert_chunk(m, q, qsize);
    a564:	e1a001a4 	lsr	r0, r4, #3
    set_free_with_pinuse(q, qsize, oldfirst);
    a568:	e384c001 	orr	ip, r4, #1
    insert_chunk(m, q, qsize);
    a56c:	e350001f 	cmp	r0, #31
    set_free_with_pinuse(q, qsize, oldfirst);
    a570:	e3c33001 	bic	r3, r3, #1
    a574:	e5813004 	str	r3, [r1, #4]
    a578:	e582c004 	str	ip, [r2, #4]
    a57c:	e7824004 	str	r4, [r2, r4]
    insert_chunk(m, q, qsize);
    a580:	8affff91 	bhi	a3cc <malloc+0x12c0>
    a584:	e0863180 	add	r3, r6, r0, lsl #3
    a588:	e354000f 	cmp	r4, #15
    a58c:	e2833028 	add	r3, r3, #40	; 0x28
    a590:	8afffd74 	bhi	9b68 <malloc+0xa5c>
    a594:	eafffcb7 	b	9878 <malloc+0x76c>
          insert_chunk(m, r, rsize);
    a598:	e0812103 	add	r2, r1, r3, lsl #2
    a59c:	e1550002 	cmp	r5, r2
    a5a0:	8afffcb4 	bhi	9878 <malloc+0x76c>
    a5a4:	e7817103 	str	r7, [r1, r3, lsl #2]
    a5a8:	e5871018 	str	r1, [r7, #24]
    a5ac:	e587700c 	str	r7, [r7, #12]
    a5b0:	e5877008 	str	r7, [r7, #8]
    a5b4:	eafffc6f 	b	9778 <malloc+0x66c>
    insert_chunk(m, q, qsize);
    a5b8:	e3a07f6b 	mov	r7, #428	; 0x1ac
    a5bc:	e3a00102 	mov	r0, #-2147483648	; 0x80000000
    a5c0:	e3a0101f 	mov	r1, #31
    a5c4:	e3a0e06b 	mov	lr, #107	; 0x6b
    a5c8:	eaffff9a 	b	a438 <malloc+0x132c>
    a5cc:	e5960010 	ldr	r0, [r6, #16]
    a5d0:	e5931008 	ldr	r1, [r3, #8]
    a5d4:	e1510000 	cmp	r1, r0
    a5d8:	2afffd6a 	bcs	9b88 <malloc+0xa7c>
    a5dc:	eafffca5 	b	9878 <malloc+0x76c>
    a5e0:	e180000c 	orr	r0, r0, ip
    a5e4:	e0867007 	add	r7, r6, r7
    a5e8:	e786210e 	str	r2, [r6, lr, lsl #2]
    a5ec:	e5860004 	str	r0, [r6, #4]
    a5f0:	e5827018 	str	r7, [r2, #24]
    a5f4:	e582200c 	str	r2, [r2, #12]
    a5f8:	e5822008 	str	r2, [r2, #8]
    a5fc:	eafffd65 	b	9b98 <malloc+0xa8c>
        unlink_large_chunk(m, v);
    a600:	e3580000 	cmp	r8, #0
    a604:	0afffc53 	beq	9758 <malloc+0x64c>
    a608:	e590101c 	ldr	r1, [r0, #28]
    a60c:	e281304c 	add	r3, r1, #76	; 0x4c
    a610:	e7962103 	ldr	r2, [r6, r3, lsl #2]
    a614:	e1520000 	cmp	r2, r0
    a618:	13a02000 	movne	r2, #0
    a61c:	1afffc34 	bne	96f4 <malloc+0x5e8>
    a620:	e3a08001 	mov	r8, #1
    a624:	e3a02000 	mov	r2, #0
    a628:	e1ccc118 	bic	ip, ip, r8, lsl r1
    a62c:	e7862103 	str	r2, [r6, r3, lsl #2]
    a630:	e586c004 	str	ip, [r6, #4]
    a634:	eafffc47 	b	9758 <malloc+0x64c>
        replace_dv(m, r, rsize);
    a638:	e5932008 	ldr	r2, [r3, #8]
    a63c:	e15a0002 	cmp	sl, r2
    a640:	9afffd0b 	bls	9a74 <malloc+0x968>
    a644:	eafffc8b 	b	9878 <malloc+0x76c>
      unlink_large_chunk(m, v);
    a648:	e5903010 	ldr	r3, [r0, #16]
    a64c:	e3530000 	cmp	r3, #0
    a650:	0a00003d 	beq	a74c <malloc+0x1640>
    a654:	e2802010 	add	r2, r0, #16
    a658:	eaffff10 	b	a2a0 <malloc+0x1194>
      unlink_chunk(m, oldfirst, nsize);
    a65c:	e1500001 	cmp	r0, r1
    a660:	e5918018 	ldr	r8, [r1, #24]
    a664:	0a000046 	beq	a784 <malloc+0x1678>
    a668:	e591c008 	ldr	ip, [r1, #8]
    a66c:	e596e010 	ldr	lr, [r6, #16]
    a670:	e15c000e 	cmp	ip, lr
    a674:	3afffc7f 	bcc	9878 <malloc+0x76c>
    a678:	e59ce00c 	ldr	lr, [ip, #12]
    a67c:	e15e0001 	cmp	lr, r1
    a680:	1afffc7c 	bne	9878 <malloc+0x76c>
    a684:	e5907008 	ldr	r7, [r0, #8]
    a688:	e15e0007 	cmp	lr, r7
    a68c:	1afffc79 	bne	9878 <malloc+0x76c>
    a690:	e58c000c 	str	r0, [ip, #12]
    a694:	e580c008 	str	ip, [r0, #8]
    a698:	e3580000 	cmp	r8, #0
    a69c:	0affffad 	beq	a558 <malloc+0x144c>
    a6a0:	e591c01c 	ldr	ip, [r1, #28]
    a6a4:	e28cc04c 	add	ip, ip, #76	; 0x4c
    a6a8:	e796e10c 	ldr	lr, [r6, ip, lsl #2]
    a6ac:	e15e0001 	cmp	lr, r1
    a6b0:	0786010c 	streq	r0, [r6, ip, lsl #2]
    a6b4:	0a000008 	beq	a6dc <malloc+0x15d0>
    a6b8:	e596c010 	ldr	ip, [r6, #16]
    a6bc:	e158000c 	cmp	r8, ip
    a6c0:	3afffc6c 	bcc	9878 <malloc+0x76c>
    a6c4:	e598c010 	ldr	ip, [r8, #16]
    a6c8:	e15c0001 	cmp	ip, r1
    a6cc:	05880010 	streq	r0, [r8, #16]
    a6d0:	15880014 	strne	r0, [r8, #20]
    a6d4:	e3500000 	cmp	r0, #0
    a6d8:	0affff9e 	beq	a558 <malloc+0x144c>
    a6dc:	e596e010 	ldr	lr, [r6, #16]
    a6e0:	e150000e 	cmp	r0, lr
    a6e4:	3afffc63 	bcc	9878 <malloc+0x76c>
    a6e8:	e591c010 	ldr	ip, [r1, #16]
    a6ec:	e5808018 	str	r8, [r0, #24]
    a6f0:	e35c0000 	cmp	ip, #0
    a6f4:	0a000003 	beq	a708 <malloc+0x15fc>
    a6f8:	e15e000c 	cmp	lr, ip
    a6fc:	8afffc5d 	bhi	9878 <malloc+0x76c>
    a700:	e580c010 	str	ip, [r0, #16]
    a704:	e58c0018 	str	r0, [ip, #24]
    a708:	e591c014 	ldr	ip, [r1, #20]
    a70c:	e35c0000 	cmp	ip, #0
    a710:	0affff90 	beq	a558 <malloc+0x144c>
    a714:	e15e000c 	cmp	lr, ip
    a718:	8afffc56 	bhi	9878 <malloc+0x76c>
    a71c:	e580c014 	str	ip, [r0, #20]
    a720:	e58c0018 	str	r0, [ip, #24]
    a724:	eaffff8b 	b	a558 <malloc+0x144c>
    insert_chunk(m, q, qsize);
    a728:	e596c010 	ldr	ip, [r6, #16]
    a72c:	e0801103 	add	r1, r0, r3, lsl #2
    a730:	e15c0001 	cmp	ip, r1
    a734:	8afffc4f 	bhi	9878 <malloc+0x76c>
    a738:	e7802103 	str	r2, [r0, r3, lsl #2]
    a73c:	e5820018 	str	r0, [r2, #24]
    a740:	e582200c 	str	r2, [r2, #12]
    a744:	e5822008 	str	r2, [r2, #8]
    a748:	eafffd12 	b	9b98 <malloc+0xa8c>
      unlink_large_chunk(m, v);
    a74c:	e35b0000 	cmp	fp, #0
    a750:	0afffcb1 	beq	9a1c <malloc+0x910>
    a754:	e590201c 	ldr	r2, [r0, #28]
    a758:	e282304c 	add	r3, r2, #76	; 0x4c
    a75c:	e7967103 	ldr	r7, [r6, r3, lsl #2]
    a760:	e1500007 	cmp	r0, r7
    a764:	13a07000 	movne	r7, #0
    a768:	1afffc92 	bne	99b8 <malloc+0x8ac>
    a76c:	e3a0b001 	mov	fp, #1
    a770:	e3a07000 	mov	r7, #0
    a774:	e1c5521b 	bic	r5, r5, fp, lsl r2
    a778:	e7867103 	str	r7, [r6, r3, lsl #2]
    a77c:	e5865004 	str	r5, [r6, #4]
    a780:	eafffca5 	b	9a1c <malloc+0x910>
      unlink_chunk(m, oldfirst, nsize);
    a784:	e5910014 	ldr	r0, [r1, #20]
    a788:	e281c014 	add	ip, r1, #20
    a78c:	e3500000 	cmp	r0, #0
    a790:	0a000014 	beq	a7e8 <malloc+0x16dc>
  size_t offset = align_offset(chunk2mem(p));
    a794:	e1a0e000 	mov	lr, r0
      unlink_chunk(m, oldfirst, nsize);
    a798:	e1a0700c 	mov	r7, ip
    a79c:	e1a0c00e 	mov	ip, lr
    a7a0:	e1a0000e 	mov	r0, lr
    a7a4:	e5bce014 	ldr	lr, [ip, #20]!
    a7a8:	e35e0000 	cmp	lr, #0
    a7ac:	1afffff9 	bne	a798 <malloc+0x168c>
    a7b0:	e1a0c000 	mov	ip, r0
    a7b4:	e5bce010 	ldr	lr, [ip, #16]!
    a7b8:	e35e0000 	cmp	lr, #0
    a7bc:	1afffff5 	bne	a798 <malloc+0x168c>
    a7c0:	e596c010 	ldr	ip, [r6, #16]
    a7c4:	e15c0007 	cmp	ip, r7
    a7c8:	8afffc2a 	bhi	9878 <malloc+0x76c>
    a7cc:	e587e000 	str	lr, [r7]
    a7d0:	eaffffb0 	b	a698 <malloc+0x158c>
    a7d4:	e5960000 	ldr	r0, [r6]
    a7d8:	e3a0c001 	mov	ip, #1
    a7dc:	e1c0ee1c 	bic	lr, r0, ip, lsl lr
    a7e0:	e586e000 	str	lr, [r6]
    a7e4:	eaffff5b 	b	a558 <malloc+0x144c>
    a7e8:	e5910010 	ldr	r0, [r1, #16]
    a7ec:	e281c010 	add	ip, r1, #16
    a7f0:	e3500000 	cmp	r0, #0
    a7f4:	1affffe6 	bne	a794 <malloc+0x1688>
    a7f8:	e3580000 	cmp	r8, #0
    a7fc:	0affff55 	beq	a558 <malloc+0x144c>
    a800:	e591c01c 	ldr	ip, [r1, #28]
    a804:	e28ce04c 	add	lr, ip, #76	; 0x4c
    a808:	e796710e 	ldr	r7, [r6, lr, lsl #2]
    a80c:	e1570001 	cmp	r7, r1
    a810:	1affffa8 	bne	a6b8 <malloc+0x15ac>
    a814:	e5960004 	ldr	r0, [r6, #4]
    a818:	e3a07001 	mov	r7, #1
    a81c:	e3a08000 	mov	r8, #0
    a820:	e786810e 	str	r8, [r6, lr, lsl #2]
    a824:	e1c00c17 	bic	r0, r0, r7, lsl ip
    a828:	e5860004 	str	r0, [r6, #4]
    a82c:	eaffff49 	b	a558 <malloc+0x144c>
    a830:	e596e010 	ldr	lr, [r6, #16]
    a834:	e15e0000 	cmp	lr, r0
    a838:	8afffc0e 	bhi	9878 <malloc+0x76c>
    a83c:	e590e008 	ldr	lr, [r0, #8]
    a840:	e15e0001 	cmp	lr, r1
    a844:	0affff41 	beq	a550 <malloc+0x1444>
    a848:	eafffc0a 	b	9878 <malloc+0x76c>
  ensure_initialization();
    a84c:	e30382c8 	movw	r8, #13000	; 0x32c8
    a850:	e3408001 	movt	r8, #1
    a854:	e5983000 	ldr	r3, [r8]
    a858:	e3530000 	cmp	r3, #0
    a85c:	1afffaf1 	bne	9428 <malloc+0x31c>
    a860:	eafffaef 	b	9424 <malloc+0x318>

0000a864 <free>:
     Consolidate freed chunks with preceeding or succeeding bordering
     free chunks, if they exist, and then place in a bin.  Intermixed
     with special cases for top, dv, mmapped chunks, and usage errors.
  */

  if (mem != 0) {
    a864:	e3500000 	cmp	r0, #0
    a868:	012fff1e 	bxeq	lr
#else /* FOOTERS */
#define fm gm
#endif /* FOOTERS */
    if (!PREACTION(fm)) {
      check_inuse_chunk(fm, p);
      if (RTCHECK(ok_address(fm, p) && ok_inuse(p))) {
    a86c:	e30310f0 	movw	r1, #12528	; 0x30f0
void dlfree(void* mem) {
    a870:	e92d41f0 	push	{r4, r5, r6, r7, r8, lr}
      if (RTCHECK(ok_address(fm, p) && ok_inuse(p))) {
    a874:	e3401001 	movt	r1, #1
    mchunkptr p  = mem2chunk(mem);
    a878:	e2402008 	sub	r2, r0, #8
      if (RTCHECK(ok_address(fm, p) && ok_inuse(p))) {
    a87c:	e591e010 	ldr	lr, [r1, #16]
    a880:	e15e0002 	cmp	lr, r2
    a884:	8a00004a 	bhi	a9b4 <free+0x150>
    a888:	e5103004 	ldr	r3, [r0, #-4]
    a88c:	e2034003 	and	r4, r3, #3
    a890:	e3540001 	cmp	r4, #1
    a894:	0a000046 	beq	a9b4 <free+0x150>
        size_t psize = chunksize(p);
        mchunkptr next = chunk_plus_offset(p, psize);
        if (!pinuse(p)) {
    a898:	e3130001 	tst	r3, #1
        size_t psize = chunksize(p);
    a89c:	e3c33007 	bic	r3, r3, #7
        mchunkptr next = chunk_plus_offset(p, psize);
    a8a0:	e082c003 	add	ip, r2, r3
        if (!pinuse(p)) {
    a8a4:	0a00001f 	beq	a928 <free+0xc4>
            else
              goto erroraction;
          }
        }

        if (RTCHECK(ok_next(p, next) && ok_pinuse(next))) {
    a8a8:	e152000c 	cmp	r2, ip
    a8ac:	2a000040 	bcs	a9b4 <free+0x150>
    a8b0:	e59c0004 	ldr	r0, [ip, #4]
    a8b4:	e3100001 	tst	r0, #1
    a8b8:	0a00003d 	beq	a9b4 <free+0x150>
          if (!cinuse(next)) {  /* consolidate forward */
    a8bc:	e2104002 	ands	r4, r0, #2
    a8c0:	0a00003d 	beq	a9bc <free+0x158>
                goto postaction;
              }
            }
          }
          else
            set_free_with_pinuse(p, psize, next);
    a8c4:	e3c00001 	bic	r0, r0, #1
    a8c8:	e383e001 	orr	lr, r3, #1
    a8cc:	e58c0004 	str	r0, [ip, #4]
    a8d0:	e582e004 	str	lr, [r2, #4]
    a8d4:	e7823003 	str	r3, [r2, r3]

          if (is_small(psize)) {
    a8d8:	e1a001a3 	lsr	r0, r3, #3
    a8dc:	e350001f 	cmp	r0, #31
    a8e0:	8a00007e 	bhi	aae0 <free+0x27c>
            insert_small_chunk(fm, p, psize);
    a8e4:	e353000f 	cmp	r3, #15
    a8e8:	e0813180 	add	r3, r1, r0, lsl #3
    a8ec:	e2833028 	add	r3, r3, #40	; 0x28
    a8f0:	9a000078 	bls	aad8 <free+0x274>
    a8f4:	e3a0c001 	mov	ip, #1
    a8f8:	e591e000 	ldr	lr, [r1]
    a8fc:	e1a0001c 	lsl	r0, ip, r0
    a900:	e11e0000 	tst	lr, r0
    a904:	1a00006f 	bne	aac8 <free+0x264>
    a908:	e1a0c003 	mov	ip, r3
    a90c:	e18e0000 	orr	r0, lr, r0
    a910:	e5810000 	str	r0, [r1]
    a914:	e5832008 	str	r2, [r3, #8]
    a918:	e58c200c 	str	r2, [ip, #12]
    a91c:	e582c008 	str	ip, [r2, #8]
    a920:	e582300c 	str	r3, [r2, #12]
    a924:	e8bd81f0 	pop	{r4, r5, r6, r7, r8, pc}
          if (is_mmapped(p)) {
    a928:	e3540000 	cmp	r4, #0
    a92c:	08bd81f0 	popeq	{r4, r5, r6, r7, r8, pc}
          size_t prevsize = p->prev_foot;
    a930:	e5104008 	ldr	r4, [r0, #-8]
            mchunkptr prev = chunk_minus_offset(p, prevsize);
    a934:	e0422004 	sub	r2, r2, r4
            psize += prevsize;
    a938:	e0833004 	add	r3, r3, r4
            if (RTCHECK(ok_address(fm, prev))) { /* consolidate backward */
    a93c:	e15e0002 	cmp	lr, r2
    a940:	8a00001b 	bhi	a9b4 <free+0x150>
              if (p != fm->dv) {
    a944:	e5910014 	ldr	r0, [r1, #20]
    a948:	e1500002 	cmp	r0, r2
    a94c:	0a00011b 	beq	adc0 <free+0x55c>
                unlink_chunk(fm, p, prevsize);
    a950:	e1a061a4 	lsr	r6, r4, #3
    a954:	e592000c 	ldr	r0, [r2, #12]
    a958:	e356001f 	cmp	r6, #31
    a95c:	8a000079 	bhi	ab48 <free+0x2e4>
    a960:	e1500002 	cmp	r0, r2
    a964:	e5925008 	ldr	r5, [r2, #8]
    a968:	0a00005a 	beq	aad8 <free+0x274>
    a96c:	e1520005 	cmp	r2, r5
    a970:	0a000058 	beq	aad8 <free+0x274>
    a974:	e5927004 	ldr	r7, [r2, #4]
    a978:	e3c44007 	bic	r4, r4, #7
    a97c:	e3c77007 	bic	r7, r7, #7
    a980:	e1570004 	cmp	r7, r4
    a984:	1a000053 	bne	aad8 <free+0x274>
    a988:	e0814186 	add	r4, r1, r6, lsl #3
    a98c:	e2844028 	add	r4, r4, #40	; 0x28
    a990:	e1540005 	cmp	r4, r5
    a994:	1a0000d6 	bne	acf4 <free+0x490>
    a998:	e1500005 	cmp	r0, r5
    a99c:	0a000125 	beq	ae38 <free+0x5d4>
    a9a0:	e1540000 	cmp	r4, r0
    a9a4:	1a000155 	bne	af00 <free+0x69c>
    a9a8:	e585000c 	str	r0, [r5, #12]
    a9ac:	e5805008 	str	r5, [r0, #8]
    a9b0:	eaffffbc 	b	a8a8 <free+0x44>
          }
          goto postaction;
        }
      }
    erroraction:
      USAGE_ERROR_ACTION(fm, p);
    a9b4:	e3e00000 	mvn	r0, #0
    a9b8:	ebfff590 	bl	8000 <exit>
            if (next == fm->top) {
    a9bc:	e5916018 	ldr	r6, [r1, #24]
    a9c0:	e5915014 	ldr	r5, [r1, #20]
    a9c4:	e156000c 	cmp	r6, ip
    a9c8:	0a0000ed 	beq	ad84 <free+0x520>
            else if (next == fm->dv) {
    a9cc:	e155000c 	cmp	r5, ip
    a9d0:	0a000105 	beq	adec <free+0x588>
              size_t nsize = chunksize(next);
    a9d4:	e3c00007 	bic	r0, r0, #7
    a9d8:	e59c400c 	ldr	r4, [ip, #12]
              unlink_chunk(fm, next, nsize);
    a9dc:	e1a061a0 	lsr	r6, r0, #3
              psize += nsize;
    a9e0:	e0833000 	add	r3, r3, r0
              unlink_chunk(fm, next, nsize);
    a9e4:	e356001f 	cmp	r6, #31
    a9e8:	9a000086 	bls	ac08 <free+0x3a4>
    a9ec:	e154000c 	cmp	r4, ip
    a9f0:	e59c8018 	ldr	r8, [ip, #24]
    a9f4:	0a000114 	beq	ae4c <free+0x5e8>
    a9f8:	e59c0008 	ldr	r0, [ip, #8]
    a9fc:	e15e0000 	cmp	lr, r0
    aa00:	8a000034 	bhi	aad8 <free+0x274>
    aa04:	e590500c 	ldr	r5, [r0, #12]
    aa08:	e155000c 	cmp	r5, ip
    aa0c:	1a000031 	bne	aad8 <free+0x274>
    aa10:	e5945008 	ldr	r5, [r4, #8]
    aa14:	e155000c 	cmp	r5, ip
    aa18:	1a00002e 	bne	aad8 <free+0x274>
    aa1c:	e580400c 	str	r4, [r0, #12]
    aa20:	e5840008 	str	r0, [r4, #8]
    aa24:	e3580000 	cmp	r8, #0
    aa28:	0a000100 	beq	ae30 <free+0x5cc>
    aa2c:	e59c001c 	ldr	r0, [ip, #28]
    aa30:	e280004c 	add	r0, r0, #76	; 0x4c
    aa34:	e7915100 	ldr	r5, [r1, r0, lsl #2]
    aa38:	e155000c 	cmp	r5, ip
    aa3c:	07814100 	streq	r4, [r1, r0, lsl #2]
    aa40:	0a000007 	beq	aa64 <free+0x200>
    aa44:	e15e0008 	cmp	lr, r8
    aa48:	8a000022 	bhi	aad8 <free+0x274>
    aa4c:	e5980010 	ldr	r0, [r8, #16]
    aa50:	e150000c 	cmp	r0, ip
    aa54:	05884010 	streq	r4, [r8, #16]
    aa58:	15884014 	strne	r4, [r8, #20]
    aa5c:	e3540000 	cmp	r4, #0
    aa60:	0a0000f2 	beq	ae30 <free+0x5cc>
    aa64:	e15e0004 	cmp	lr, r4
    aa68:	8a00001a 	bhi	aad8 <free+0x274>
    aa6c:	e59c0010 	ldr	r0, [ip, #16]
    aa70:	e5848018 	str	r8, [r4, #24]
    aa74:	e3500000 	cmp	r0, #0
    aa78:	0a000003 	beq	aa8c <free+0x228>
    aa7c:	e15e0000 	cmp	lr, r0
    aa80:	8a000014 	bhi	aad8 <free+0x274>
    aa84:	e5840010 	str	r0, [r4, #16]
    aa88:	e5804018 	str	r4, [r0, #24]
    aa8c:	e59c0014 	ldr	r0, [ip, #20]
    aa90:	e3500000 	cmp	r0, #0
    aa94:	0a0000e5 	beq	ae30 <free+0x5cc>
    aa98:	e15e0000 	cmp	lr, r0
    aa9c:	8a00000d 	bhi	aad8 <free+0x274>
    aaa0:	e5915014 	ldr	r5, [r1, #20]
    aaa4:	e5840014 	str	r0, [r4, #20]
    aaa8:	e5804018 	str	r4, [r0, #24]
              if (p == fm->dv) {
    aaac:	e1520005 	cmp	r2, r5
              set_size_and_pinuse_of_free_chunk(p, psize);
    aab0:	e3830001 	orr	r0, r3, #1
    aab4:	e5820004 	str	r0, [r2, #4]
    aab8:	e7823003 	str	r3, [r2, r3]
              if (p == fm->dv) {
    aabc:	1affff85 	bne	a8d8 <free+0x74>
                fm->dvsize = psize;
    aac0:	e5813008 	str	r3, [r1, #8]
                goto postaction;
    aac4:	e8bd81f0 	pop	{r4, r5, r6, r7, r8, pc}
            insert_small_chunk(fm, p, psize);
    aac8:	e5911010 	ldr	r1, [r1, #16]
    aacc:	e593c008 	ldr	ip, [r3, #8]
    aad0:	e15c0001 	cmp	ip, r1
    aad4:	2affff8e 	bcs	a914 <free+0xb0>
                unlink_chunk(fm, p, prevsize);
    aad8:	e3e00000 	mvn	r0, #0
    aadc:	ebfff547 	bl	8000 <exit>
            insert_large_chunk(fm, tp, psize);
    aae0:	e1a0c423 	lsr	ip, r3, #8
    aae4:	e35c0801 	cmp	ip, #65536	; 0x10000
    aae8:	3a000056 	bcc	ac48 <free+0x3e4>
    aaec:	e3a0e102 	mov	lr, #-2147483648	; 0x80000000
    aaf0:	e3a05f6b 	mov	r5, #428	; 0x1ac
    aaf4:	e3a0001f 	mov	r0, #31
    aaf8:	e3a0606b 	mov	r6, #107	; 0x6b
    aafc:	e5914004 	ldr	r4, [r1, #4]
    ab00:	e3a0c000 	mov	ip, #0
    ab04:	e582001c 	str	r0, [r2, #28]
    ab08:	e582c014 	str	ip, [r2, #20]
    ab0c:	e11e0004 	tst	lr, r4
    ab10:	e582c010 	str	ip, [r2, #16]
    ab14:	1a00007c 	bne	ad0c <free+0x4a8>
    ab18:	e18ee004 	orr	lr, lr, r4
    ab1c:	e0813005 	add	r3, r1, r5
    ab20:	e7812106 	str	r2, [r1, r6, lsl #2]
    ab24:	e581e004 	str	lr, [r1, #4]
    ab28:	e5823018 	str	r3, [r2, #24]
    ab2c:	e582200c 	str	r2, [r2, #12]
    ab30:	e5822008 	str	r2, [r2, #8]
            if (--fm->release_checks == 0)
    ab34:	e5913020 	ldr	r3, [r1, #32]
    ab38:	e2533001 	subs	r3, r3, #1
  m->release_checks = (((size_t) nsegs > (size_t) MAX_RELEASE_CHECK_RATE)?
    ab3c:	03e03000 	mvneq	r3, #0
    ab40:	e5813020 	str	r3, [r1, #32]
    }
  }
#if !FOOTERS
#undef fm
#endif /* FOOTERS */
}
    ab44:	e8bd81f0 	pop	{r4, r5, r6, r7, r8, pc}
                unlink_chunk(fm, p, prevsize);
    ab48:	e1500002 	cmp	r0, r2
    ab4c:	e5927018 	ldr	r7, [r2, #24]
    ab50:	0a000055 	beq	acac <free+0x448>
    ab54:	e5924008 	ldr	r4, [r2, #8]
    ab58:	e15e0004 	cmp	lr, r4
    ab5c:	8affffdd 	bhi	aad8 <free+0x274>
    ab60:	e594500c 	ldr	r5, [r4, #12]
    ab64:	e1550002 	cmp	r5, r2
    ab68:	1affffda 	bne	aad8 <free+0x274>
    ab6c:	e5905008 	ldr	r5, [r0, #8]
    ab70:	e1550002 	cmp	r5, r2
    ab74:	1affffd7 	bne	aad8 <free+0x274>
    ab78:	e584000c 	str	r0, [r4, #12]
    ab7c:	e5804008 	str	r4, [r0, #8]
    ab80:	e3570000 	cmp	r7, #0
    ab84:	0affff47 	beq	a8a8 <free+0x44>
    ab88:	e592401c 	ldr	r4, [r2, #28]
    ab8c:	e284404c 	add	r4, r4, #76	; 0x4c
    ab90:	e7915104 	ldr	r5, [r1, r4, lsl #2]
    ab94:	e1550002 	cmp	r5, r2
    ab98:	07810104 	streq	r0, [r1, r4, lsl #2]
    ab9c:	0a000007 	beq	abc0 <free+0x35c>
    aba0:	e15e0007 	cmp	lr, r7
    aba4:	8affffcb 	bhi	aad8 <free+0x274>
    aba8:	e5974010 	ldr	r4, [r7, #16]
    abac:	e1540002 	cmp	r4, r2
    abb0:	05870010 	streq	r0, [r7, #16]
    abb4:	15870014 	strne	r0, [r7, #20]
    abb8:	e3500000 	cmp	r0, #0
    abbc:	0affff39 	beq	a8a8 <free+0x44>
    abc0:	e15e0000 	cmp	lr, r0
    abc4:	8affffc3 	bhi	aad8 <free+0x274>
    abc8:	e5924010 	ldr	r4, [r2, #16]
    abcc:	e5807018 	str	r7, [r0, #24]
    abd0:	e3540000 	cmp	r4, #0
    abd4:	0a000003 	beq	abe8 <free+0x384>
    abd8:	e15e0004 	cmp	lr, r4
    abdc:	8affffbd 	bhi	aad8 <free+0x274>
    abe0:	e5804010 	str	r4, [r0, #16]
    abe4:	e5840018 	str	r0, [r4, #24]
    abe8:	e5924014 	ldr	r4, [r2, #20]
    abec:	e3540000 	cmp	r4, #0
    abf0:	0affff2c 	beq	a8a8 <free+0x44>
    abf4:	e15e0004 	cmp	lr, r4
    abf8:	8affffb6 	bhi	aad8 <free+0x274>
    abfc:	e5804014 	str	r4, [r0, #20]
    ac00:	e5840018 	str	r0, [r4, #24]
    ac04:	eaffff27 	b	a8a8 <free+0x44>
              unlink_chunk(fm, next, nsize);
    ac08:	e154000c 	cmp	r4, ip
    ac0c:	e59c0008 	ldr	r0, [ip, #8]
    ac10:	0affffb0 	beq	aad8 <free+0x274>
    ac14:	e15c0000 	cmp	ip, r0
    ac18:	0affffae 	beq	aad8 <free+0x274>
    ac1c:	e0817186 	add	r7, r1, r6, lsl #3
    ac20:	e2877028 	add	r7, r7, #40	; 0x28
    ac24:	e1570000 	cmp	r7, r0
    ac28:	1a0000a9 	bne	aed4 <free+0x670>
    ac2c:	e1540000 	cmp	r4, r0
    ac30:	0a00009d 	beq	aeac <free+0x648>
    ac34:	e1540007 	cmp	r4, r7
    ac38:	1a0000b6 	bne	af18 <free+0x6b4>
    ac3c:	e580400c 	str	r4, [r0, #12]
    ac40:	e5840008 	str	r0, [r4, #8]
    ac44:	eaffff98 	b	aaac <free+0x248>
            insert_large_chunk(fm, tp, psize);
    ac48:	e24c0c01 	sub	r0, ip, #256	; 0x100
    ac4c:	e3a0e001 	mov	lr, #1
    ac50:	e1a00820 	lsr	r0, r0, #16
    ac54:	e2000008 	and	r0, r0, #8
    ac58:	e1a0401c 	lsl	r4, ip, r0
    ac5c:	e244ca01 	sub	ip, r4, #4096	; 0x1000
    ac60:	e1a0c82c 	lsr	ip, ip, #16
    ac64:	e20cc004 	and	ip, ip, #4
    ac68:	e1a04c14 	lsl	r4, r4, ip
    ac6c:	e180c00c 	orr	ip, r0, ip
    ac70:	e2440901 	sub	r0, r4, #16384	; 0x4000
    ac74:	e1a00820 	lsr	r0, r0, #16
    ac78:	e2000002 	and	r0, r0, #2
    ac7c:	e1a04014 	lsl	r4, r4, r0
    ac80:	e08cc000 	add	ip, ip, r0
    ac84:	e06cc7a4 	rsb	ip, ip, r4, lsr #15
    ac88:	e28c0015 	add	r0, ip, #21
    ac8c:	e28cc00e 	add	ip, ip, #14
    ac90:	e1a00033 	lsr	r0, r3, r0
    ac94:	e000000e 	and	r0, r0, lr
    ac98:	e0800e1c 	add	r0, r0, ip, lsl lr
    ac9c:	e280604c 	add	r6, r0, #76	; 0x4c
    aca0:	e1a0e01e 	lsl	lr, lr, r0
    aca4:	e1a05106 	lsl	r5, r6, #2
    aca8:	eaffff93 	b	aafc <free+0x298>
                unlink_chunk(fm, p, prevsize);
    acac:	e5925014 	ldr	r5, [r2, #20]
    acb0:	e3550000 	cmp	r5, #0
    acb4:	12824014 	addne	r4, r2, #20
    acb8:	0a000080 	beq	aec0 <free+0x65c>
    acbc:	e1a06004 	mov	r6, r4
    acc0:	e1a04005 	mov	r4, r5
    acc4:	e1a00005 	mov	r0, r5
    acc8:	e5b45014 	ldr	r5, [r4, #20]!
    accc:	e3550000 	cmp	r5, #0
    acd0:	1afffff9 	bne	acbc <free+0x458>
    acd4:	e1a04000 	mov	r4, r0
    acd8:	e5b45010 	ldr	r5, [r4, #16]!
    acdc:	e3550000 	cmp	r5, #0
    ace0:	1afffff5 	bne	acbc <free+0x458>
    ace4:	e15e0006 	cmp	lr, r6
    ace8:	8affff7a 	bhi	aad8 <free+0x274>
    acec:	e5865000 	str	r5, [r6]
    acf0:	eaffffa2 	b	ab80 <free+0x31c>
    acf4:	e15e0005 	cmp	lr, r5
    acf8:	8affff76 	bhi	aad8 <free+0x274>
    acfc:	e595700c 	ldr	r7, [r5, #12]
    ad00:	e1570002 	cmp	r7, r2
    ad04:	0affff23 	beq	a998 <free+0x134>
    ad08:	eaffff72 	b	aad8 <free+0x274>
            insert_large_chunk(fm, tp, psize);
    ad0c:	e350001f 	cmp	r0, #31
    ad10:	e791e106 	ldr	lr, [r1, r6, lsl #2]
    ad14:	11a0c0a0 	lsrne	ip, r0, #1
    ad18:	01a0c003 	moveq	ip, r3
    ad1c:	126cc019 	rsbne	ip, ip, #25
    ad20:	11a0cc13 	lslne	ip, r3, ip
    ad24:	ea000006 	b	ad44 <free+0x4e0>
    ad28:	e1a00fac 	lsr	r0, ip, #31
    ad2c:	e1a0c08c 	lsl	ip, ip, #1
    ad30:	e2800004 	add	r0, r0, #4
    ad34:	e79e4100 	ldr	r4, [lr, r0, lsl #2]
    ad38:	e3540000 	cmp	r4, #0
    ad3c:	0a000032 	beq	ae0c <free+0x5a8>
    ad40:	e1a0e004 	mov	lr, r4
    ad44:	e59e0004 	ldr	r0, [lr, #4]
    ad48:	e3c00007 	bic	r0, r0, #7
    ad4c:	e1500003 	cmp	r0, r3
    ad50:	1afffff4 	bne	ad28 <free+0x4c4>
    ad54:	e59e3008 	ldr	r3, [lr, #8]
    ad58:	e5910010 	ldr	r0, [r1, #16]
    ad5c:	e1500003 	cmp	r0, r3
    ad60:	9150000e 	cmpls	r0, lr
    ad64:	8affff5b 	bhi	aad8 <free+0x274>
    ad68:	e3a00000 	mov	r0, #0
    ad6c:	e583200c 	str	r2, [r3, #12]
    ad70:	e58e2008 	str	r2, [lr, #8]
    ad74:	e5823008 	str	r3, [r2, #8]
    ad78:	e582e00c 	str	lr, [r2, #12]
    ad7c:	e5820018 	str	r0, [r2, #24]
    ad80:	eaffff6b 	b	ab34 <free+0x2d0>
              size_t tsize = fm->topsize += psize;
    ad84:	e591000c 	ldr	r0, [r1, #12]
              if (p == fm->dv) {
    ad88:	e1520005 	cmp	r2, r5
              fm->top = p;
    ad8c:	e5812018 	str	r2, [r1, #24]
              size_t tsize = fm->topsize += psize;
    ad90:	e0833000 	add	r3, r3, r0
              p->head = tsize | PINUSE_BIT;
    ad94:	e3830001 	orr	r0, r3, #1
              size_t tsize = fm->topsize += psize;
    ad98:	e581300c 	str	r3, [r1, #12]
              p->head = tsize | PINUSE_BIT;
    ad9c:	e5820004 	str	r0, [r2, #4]
              if (should_trim(fm, tsize))
    ada0:	e591201c 	ldr	r2, [r1, #28]
                fm->dv = 0;
    ada4:	05814014 	streq	r4, [r1, #20]
                fm->dvsize = 0;
    ada8:	05814008 	streq	r4, [r1, #8]
              if (should_trim(fm, tsize))
    adac:	e1530002 	cmp	r3, r2
    adb0:	98bd81f0 	popls	{r4, r5, r6, r7, r8, pc}
                sys_trim(fm, 0);
    adb4:	e3a00000 	mov	r0, #0
}
    adb8:	e8bd41f0 	pop	{r4, r5, r6, r7, r8, lr}
                sys_trim(fm, 0);
    adbc:	eafff86e 	b	8f7c <sys_trim.constprop.7>
              else if ((next->head & INUSE_BITS) == INUSE_BITS) {
    adc0:	e59c4004 	ldr	r4, [ip, #4]
    adc4:	e2045003 	and	r5, r4, #3
    adc8:	e3550003 	cmp	r5, #3
    adcc:	1afffeb5 	bne	a8a8 <free+0x44>
                set_free_with_pinuse(p, psize, next);
    add0:	e3c44001 	bic	r4, r4, #1
    add4:	e3832001 	orr	r2, r3, #1
                fm->dvsize = psize;
    add8:	e5813008 	str	r3, [r1, #8]
                set_free_with_pinuse(p, psize, next);
    addc:	e58c4004 	str	r4, [ip, #4]
    ade0:	e5802004 	str	r2, [r0, #4]
    ade4:	e58c3000 	str	r3, [ip]
                goto postaction;
    ade8:	e8bd81f0 	pop	{r4, r5, r6, r7, r8, pc}
              size_t dsize = fm->dvsize += psize;
    adec:	e5910008 	ldr	r0, [r1, #8]
              fm->dv = p;
    adf0:	e5812014 	str	r2, [r1, #20]
              size_t dsize = fm->dvsize += psize;
    adf4:	e0833000 	add	r3, r3, r0
              set_size_and_pinuse_of_free_chunk(p, dsize);
    adf8:	e3830001 	orr	r0, r3, #1
              size_t dsize = fm->dvsize += psize;
    adfc:	e5813008 	str	r3, [r1, #8]
              set_size_and_pinuse_of_free_chunk(p, dsize);
    ae00:	e5820004 	str	r0, [r2, #4]
    ae04:	e7823003 	str	r3, [r2, r3]
              goto postaction;
    ae08:	e8bd81f0 	pop	{r4, r5, r6, r7, r8, pc}
            insert_large_chunk(fm, tp, psize);
    ae0c:	e591c010 	ldr	ip, [r1, #16]
    ae10:	e08e3100 	add	r3, lr, r0, lsl #2
    ae14:	e15c0003 	cmp	ip, r3
    ae18:	8affff2e 	bhi	aad8 <free+0x274>
    ae1c:	e78e2100 	str	r2, [lr, r0, lsl #2]
    ae20:	e582e018 	str	lr, [r2, #24]
    ae24:	e582200c 	str	r2, [r2, #12]
    ae28:	e5822008 	str	r2, [r2, #8]
    ae2c:	eaffff40 	b	ab34 <free+0x2d0>
    ae30:	e5915014 	ldr	r5, [r1, #20]
    ae34:	eaffff1c 	b	aaac <free+0x248>
                unlink_chunk(fm, p, prevsize);
    ae38:	e5910000 	ldr	r0, [r1]
    ae3c:	e3a04001 	mov	r4, #1
    ae40:	e1c06614 	bic	r6, r0, r4, lsl r6
    ae44:	e5816000 	str	r6, [r1]
    ae48:	eafffe96 	b	a8a8 <free+0x44>
              unlink_chunk(fm, next, nsize);
    ae4c:	e59c7014 	ldr	r7, [ip, #20]
    ae50:	e3570000 	cmp	r7, #0
    ae54:	128c0014 	addne	r0, ip, #20
    ae58:	0a000023 	beq	aeec <free+0x688>
                unlink_chunk(fm, p, prevsize);
    ae5c:	e1a04007 	mov	r4, r7
    ae60:	e1a06000 	mov	r6, r0
              unlink_chunk(fm, next, nsize);
    ae64:	e1a00004 	mov	r0, r4
    ae68:	e5b05014 	ldr	r5, [r0, #20]!
    ae6c:	e3550000 	cmp	r5, #0
    ae70:	0a000005 	beq	ae8c <free+0x628>
    ae74:	e1a04005 	mov	r4, r5
    ae78:	e1a06000 	mov	r6, r0
    ae7c:	e1a00004 	mov	r0, r4
    ae80:	e5b05014 	ldr	r5, [r0, #20]!
    ae84:	e3550000 	cmp	r5, #0
    ae88:	1afffff9 	bne	ae74 <free+0x610>
    ae8c:	e1a00004 	mov	r0, r4
    ae90:	e5b07010 	ldr	r7, [r0, #16]!
    ae94:	e3570000 	cmp	r7, #0
    ae98:	1affffef 	bne	ae5c <free+0x5f8>
    ae9c:	e15e0006 	cmp	lr, r6
    aea0:	8affff0c 	bhi	aad8 <free+0x274>
    aea4:	e5867000 	str	r7, [r6]
    aea8:	eafffedd 	b	aa24 <free+0x1c0>
    aeac:	e5910000 	ldr	r0, [r1]
    aeb0:	e3a0c001 	mov	ip, #1
    aeb4:	e1c0661c 	bic	r6, r0, ip, lsl r6
    aeb8:	e5816000 	str	r6, [r1]
    aebc:	eafffefa 	b	aaac <free+0x248>
                unlink_chunk(fm, p, prevsize);
    aec0:	e5925010 	ldr	r5, [r2, #16]
    aec4:	e3550000 	cmp	r5, #0
    aec8:	0a000018 	beq	af30 <free+0x6cc>
    aecc:	e2824010 	add	r4, r2, #16
    aed0:	eaffff79 	b	acbc <free+0x458>
              unlink_chunk(fm, next, nsize);
    aed4:	e15e0000 	cmp	lr, r0
    aed8:	8afffefe 	bhi	aad8 <free+0x274>
    aedc:	e590800c 	ldr	r8, [r0, #12]
    aee0:	e158000c 	cmp	r8, ip
    aee4:	0affff50 	beq	ac2c <free+0x3c8>
    aee8:	eafffefa 	b	aad8 <free+0x274>
    aeec:	e59c7010 	ldr	r7, [ip, #16]
    aef0:	e3570000 	cmp	r7, #0
    aef4:	0a00001b 	beq	af68 <free+0x704>
    aef8:	e28c0010 	add	r0, ip, #16
    aefc:	eaffffd6 	b	ae5c <free+0x5f8>
                unlink_chunk(fm, p, prevsize);
    af00:	e15e0000 	cmp	lr, r0
    af04:	8afffef3 	bhi	aad8 <free+0x274>
    af08:	e5904008 	ldr	r4, [r0, #8]
    af0c:	e1540002 	cmp	r4, r2
    af10:	0afffea4 	beq	a9a8 <free+0x144>
    af14:	eafffeef 	b	aad8 <free+0x274>
              unlink_chunk(fm, next, nsize);
    af18:	e15e0004 	cmp	lr, r4
    af1c:	8afffeed 	bhi	aad8 <free+0x274>
    af20:	e594e008 	ldr	lr, [r4, #8]
    af24:	e15e000c 	cmp	lr, ip
    af28:	0affff43 	beq	ac3c <free+0x3d8>
    af2c:	eafffee9 	b	aad8 <free+0x274>
                unlink_chunk(fm, p, prevsize);
    af30:	e3570000 	cmp	r7, #0
    af34:	0afffe5b 	beq	a8a8 <free+0x44>
    af38:	e592401c 	ldr	r4, [r2, #28]
    af3c:	e284804c 	add	r8, r4, #76	; 0x4c
    af40:	e7910108 	ldr	r0, [r1, r8, lsl #2]
    af44:	e1500002 	cmp	r0, r2
    af48:	11a00005 	movne	r0, r5
    af4c:	1affff13 	bne	aba0 <free+0x33c>
    af50:	e5910004 	ldr	r0, [r1, #4]
    af54:	e3a06001 	mov	r6, #1
    af58:	e7815108 	str	r5, [r1, r8, lsl #2]
    af5c:	e1c00416 	bic	r0, r0, r6, lsl r4
    af60:	e5810004 	str	r0, [r1, #4]
    af64:	eafffe4f 	b	a8a8 <free+0x44>
              unlink_chunk(fm, next, nsize);
    af68:	e3580000 	cmp	r8, #0
    af6c:	0afffece 	beq	aaac <free+0x248>
    af70:	e59c401c 	ldr	r4, [ip, #28]
    af74:	e284504c 	add	r5, r4, #76	; 0x4c
    af78:	e7910105 	ldr	r0, [r1, r5, lsl #2]
    af7c:	e150000c 	cmp	r0, ip
    af80:	13a04000 	movne	r4, #0
    af84:	1afffeae 	bne	aa44 <free+0x1e0>
    af88:	e5910004 	ldr	r0, [r1, #4]
    af8c:	e3a0c001 	mov	ip, #1
    af90:	e3a0e000 	mov	lr, #0
    af94:	e781e105 	str	lr, [r1, r5, lsl #2]
    af98:	e5915014 	ldr	r5, [r1, #20]
    af9c:	e1c0041c 	bic	r0, r0, ip, lsl r4
    afa0:	e5810004 	str	r0, [r1, #4]
    afa4:	eafffec0 	b	aaac <free+0x248>

0000afa8 <_stdio_fgetc>:
}

static int _stdio_fgetc(void *ctx)
{
	return (unsigned char)0xff;
}
    afa8:	e3a000ff 	mov	r0, #255	; 0xff
    afac:	e12fff1e 	bx	lr

0000afb0 <_stdio_vfprintf>:
	return buffered_write(ctx, str, strnlen(str, len));
}

static int _stdio_vfprintf(void *ctx, const char *fmt, va_list ap)
{
	return _printf_engine(_output_func, ctx, fmt, ap);
    afb0:	e1a03002 	mov	r3, r2
    afb4:	e1a02001 	mov	r2, r1
    afb8:	e1a01000 	mov	r1, r0
    afbc:	e30b0084 	movw	r0, #45188	; 0xb084
    afc0:	e3400000 	movt	r0, #0
    afc4:	ea000fb1 	b	ee90 <_printf_engine>

0000afc8 <_stdio_fputc>:
{
    afc8:	e92d4010 	push	{r4, lr}
	buffered_put(fctx->buffer, fctx->fd, (char)c);
    afcc:	e6ef1071 	uxtb	r1, r1
    afd0:	e8900011 	ldm	r0, {r0, r4}
	buffer->data[buffer->pos++] = c;
    afd4:	e5943080 	ldr	r3, [r4, #128]	; 0x80
    afd8:	e2832001 	add	r2, r3, #1
	if (buffer->pos == sizeof(buffer->data) || c == '\n') {
    afdc:	e351000a 	cmp	r1, #10
    afe0:	13520080 	cmpne	r2, #128	; 0x80
	buffer->data[buffer->pos++] = c;
    afe4:	e5842080 	str	r2, [r4, #128]	; 0x80
    afe8:	e7c41003 	strb	r1, [r4, r3]
	if (buffer->pos == sizeof(buffer->data) || c == '\n') {
    afec:	1a000003 	bne	b000 <_stdio_fputc+0x38>
		result = write(fd, buffer->data, buffer->pos);
    aff0:	e1a01004 	mov	r1, r4
    aff4:	eb000086 	bl	b214 <write>
		buffer->pos = 0;
    aff8:	e3a03000 	mov	r3, #0
    affc:	e5843080 	str	r3, [r4, #128]	; 0x80
}
    b000:	e3e00102 	mvn	r0, #-2147483648	; 0x80000000
    b004:	e8bd8010 	pop	{r4, pc}

0000b008 <buffered_write.part.0>:
static int buffered_write(struct file_context *ctx, const char *str, size_t sz)
    b008:	e92d47f0 	push	{r4, r5, r6, r7, r8, r9, sl, lr}
	for (i = 0; i < sz; i++) {
    b00c:	e2528000 	subs	r8, r2, #0
    b010:	0a000019 	beq	b07c <buffered_write.part.0+0x74>
    b014:	e2489001 	sub	r9, r8, #1
    b018:	e1a06000 	mov	r6, r0
    b01c:	e2415001 	sub	r5, r1, #1
    b020:	e0819009 	add	r9, r1, r9
		buffer->pos = 0;
    b024:	e3a07000 	mov	r7, #0
    b028:	ea000001 	b	b034 <buffered_write.part.0+0x2c>
	for (i = 0; i < sz; i++) {
    b02c:	e1550009 	cmp	r5, r9
    b030:	0a000011 	beq	b07c <buffered_write.part.0+0x74>
		int result = buffered_put(ctx->buffer, ctx->fd, str[i]);
    b034:	e5964004 	ldr	r4, [r6, #4]
    b038:	e5f5e001 	ldrb	lr, [r5, #1]!
    b03c:	e5960000 	ldr	r0, [r6]
	buffer->data[buffer->pos++] = c;
    b040:	e594c080 	ldr	ip, [r4, #128]	; 0x80
		result = write(fd, buffer->data, buffer->pos);
    b044:	e1a01004 	mov	r1, r4
	buffer->data[buffer->pos++] = c;
    b048:	e28c3001 	add	r3, ip, #1
	if (buffer->pos == sizeof(buffer->data) || c == '\n') {
    b04c:	e35e000a 	cmp	lr, #10
    b050:	13530080 	cmpne	r3, #128	; 0x80
	buffer->data[buffer->pos++] = c;
    b054:	e5843080 	str	r3, [r4, #128]	; 0x80
		result = write(fd, buffer->data, buffer->pos);
    b058:	e1a02003 	mov	r2, r3
	buffer->data[buffer->pos++] = c;
    b05c:	e7c4e00c 	strb	lr, [r4, ip]
	if (buffer->pos == sizeof(buffer->data) || c == '\n') {
    b060:	1afffff1 	bne	b02c <buffered_write.part.0+0x24>
		result = write(fd, buffer->data, buffer->pos);
    b064:	eb00006a 	bl	b214 <write>
		if (result < 0) {
    b068:	e3500000 	cmp	r0, #0
		buffer->pos = 0;
    b06c:	e5847080 	str	r7, [r4, #128]	; 0x80
		if (result < 0) {
    b070:	b8bd87f0 	poplt	{r4, r5, r6, r7, r8, r9, sl, pc}
	for (i = 0; i < sz; i++) {
    b074:	e1550009 	cmp	r5, r9
    b078:	1affffed 	bne	b034 <buffered_write.part.0+0x2c>
	return sz;
    b07c:	e1a00008 	mov	r0, r8
}
    b080:	e8bd87f0 	pop	{r4, r5, r6, r7, r8, r9, sl, pc}

0000b084 <_output_func>:
{
    b084:	e92d4070 	push	{r4, r5, r6, lr}
    b088:	e1a04002 	mov	r4, r2
    b08c:	e1a05000 	mov	r5, r0
	return buffered_write(ctx, str, strnlen(str, len));
    b090:	eb00125b 	bl	fa04 <strnlen>
	if (!ctx->buffer) {
    b094:	e5943004 	ldr	r3, [r4, #4]
    b098:	e3530000 	cmp	r3, #0
    b09c:	0a000004 	beq	b0b4 <_output_func+0x30>
    b0a0:	e1a02000 	mov	r2, r0
    b0a4:	e1a01005 	mov	r1, r5
    b0a8:	e1a00004 	mov	r0, r4
}
    b0ac:	e8bd4070 	pop	{r4, r5, r6, lr}
    b0b0:	eaffffd4 	b	b008 <buffered_write.part.0>
    b0b4:	e3e00007 	mvn	r0, #7
    b0b8:	e8bd8070 	pop	{r4, r5, r6, pc}

0000b0bc <_stdio_fputs>:
{
    b0bc:	e92d4070 	push	{r4, r5, r6, lr}
    b0c0:	e1a04000 	mov	r4, r0
	return buffered_write(fctx, s, strlen(s));
    b0c4:	e1a00001 	mov	r0, r1
{
    b0c8:	e1a05001 	mov	r5, r1
	return buffered_write(fctx, s, strlen(s));
    b0cc:	eb001240 	bl	f9d4 <strlen>
	if (!ctx->buffer) {
    b0d0:	e5943004 	ldr	r3, [r4, #4]
    b0d4:	e3530000 	cmp	r3, #0
    b0d8:	0a000004 	beq	b0f0 <_stdio_fputs+0x34>
    b0dc:	e1a02000 	mov	r2, r0
    b0e0:	e1a01005 	mov	r1, r5
    b0e4:	e1a00004 	mov	r0, r4
}
    b0e8:	e8bd4070 	pop	{r4, r5, r6, lr}
    b0ec:	eaffffc5 	b	b008 <buffered_write.part.0>
    b0f0:	e3e00007 	mvn	r0, #7
    b0f4:	e8bd8070 	pop	{r4, r5, r6, pc}

0000b0f8 <__libc_fini>:
 * of the executable, if any.
 *
 * 'fini_array' points to a list of function addresses. The first
 * entry in the list has value -1, the last one has value 0.
 */
void __libc_fini(void* array) {
    b0f8:	e92d4070 	push	{r4, r5, r6, lr}
  void** fini_array = (void **)array;
  const size_t minus1 = ~(size_t)0; /* ensure proper sign extension */

  /* Sanity check - first entry must be -1 */
  if (array == NULL || (size_t)fini_array[0] != minus1) {
    b0fc:	e2505000 	subs	r5, r0, #0
    b100:	08bd8070 	popeq	{r4, r5, r6, pc}
    b104:	e5953000 	ldr	r3, [r5]
    b108:	e3730001 	cmn	r3, #1
    b10c:	18bd8070 	popne	{r4, r5, r6, pc}
  /* skip over it */
  fini_array += 1;

  /* Count the number of destructors. */
  int count = 0;
  while (fini_array[count] != NULL) {
    b110:	e5952004 	ldr	r2, [r5, #4]
  fini_array += 1;
    b114:	e2853004 	add	r3, r5, #4
  while (fini_array[count] != NULL) {
    b118:	e3520000 	cmp	r2, #0
    b11c:	08bd8070 	popeq	{r4, r5, r6, pc}
  int count = 0;
    b120:	e3a04000 	mov	r4, #0
  while (fini_array[count] != NULL) {
    b124:	e5b32004 	ldr	r2, [r3, #4]!
    ++count;
    b128:	e2844001 	add	r4, r4, #1
  while (fini_array[count] != NULL) {
    b12c:	e3520000 	cmp	r2, #0
    b130:	1afffffb 	bne	b124 <__libc_fini+0x2c>
    b134:	e0854104 	add	r4, r5, r4, lsl #2
  }

  /* Now call each destructor in reverse order. */
  while (count > 0) {
    void (*func)(void) = (void (*)(void)) fini_array[--count];
    b138:	e4143004 	ldr	r3, [r4], #-4

    /* Sanity check, any -1 in the list is ignored */
    if ((size_t)func == minus1) {
    b13c:	e3730001 	cmn	r3, #1
    b140:	0a000000 	beq	b148 <__libc_fini+0x50>
      continue;
    }

    func();
    b144:	e12fff33 	blx	r3
  while (count > 0) {
    b148:	e1550004 	cmp	r5, r4
    b14c:	1afffff9 	bne	b138 <__libc_fini+0x40>
    b150:	e8bd8070 	pop	{r4, r5, r6, pc}

0000b154 <__libc_init>:
{
    b154:	e92d4010 	push	{r4, lr}
    b158:	e1a05002 	mov	r5, r2
	call_array(structors->preinit_array);
    b15c:	e5924000 	ldr	r4, [r2]
{
    b160:	e1a06001 	mov	r6, r1
  while (*++list) {
    b164:	e5943004 	ldr	r3, [r4, #4]
    b168:	e3530000 	cmp	r3, #0
    b16c:	0a000004 	beq	b184 <__libc_init+0x30>
    b170:	e2844004 	add	r4, r4, #4
    (*list)();
    b174:	e12fff33 	blx	r3
  while (*++list) {
    b178:	e5b43004 	ldr	r3, [r4, #4]!
    b17c:	e3530000 	cmp	r3, #0
    b180:	1afffffb 	bne	b174 <__libc_init+0x20>
	call_array(structors->init_array);
    b184:	e5954004 	ldr	r4, [r5, #4]
  while (*++list) {
    b188:	e5943004 	ldr	r3, [r4, #4]
    b18c:	e2844004 	add	r4, r4, #4
    b190:	e3530000 	cmp	r3, #0
    b194:	0a000003 	beq	b1a8 <__libc_init+0x54>
    (*list)();
    b198:	e12fff33 	blx	r3
  while (*++list) {
    b19c:	e5b43004 	ldr	r3, [r4, #4]!
    b1a0:	e3530000 	cmp	r3, #0
    b1a4:	1afffffb 	bne	b198 <__libc_init+0x44>
	if (structors->fini_array != NULL) {
    b1a8:	e5951008 	ldr	r1, [r5, #8]
    b1ac:	e3510000 	cmp	r1, #0
    b1b0:	1a000004 	bne	b1c8 <__libc_init+0x74>
	exit(slingshot(0, NULL, NULL));
    b1b4:	e3a02000 	mov	r2, #0
    b1b8:	e1a01002 	mov	r1, r2
    b1bc:	e1a00002 	mov	r0, r2
    b1c0:	e12fff36 	blx	r6
    b1c4:	ebfff38d 	bl	8000 <exit>
		ret = __cxa_atexit(__libc_fini, structors->fini_array);
    b1c8:	e30b00f8 	movw	r0, #45304	; 0xb0f8
    b1cc:	e3400000 	movt	r0, #0
    b1d0:	ebfff6dc 	bl	8d48 <__cxa_atexit>
		if (ret)
    b1d4:	e3500000 	cmp	r0, #0
    b1d8:	0afffff5 	beq	b1b4 <__libc_init+0x60>
			__libc_fatal("__cxa_atexit failed\n");
    b1dc:	e300056c 	movw	r0, #1388	; 0x56c
    b1e0:	e3400001 	movt	r0, #1
    b1e4:	ebffffff 	bl	b1e8 <__libc_fatal>

0000b1e8 <__libc_fatal>:
    __libc_log_fatal(format, args);
    va_end(args);
}

void __libc_fatal(const char* format, ...)
{
    b1e8:	e92d000f 	push	{r0, r1, r2, r3}
    b1ec:	e52de004 	push	{lr}		; (str lr, [sp, #-4]!)
    b1f0:	e24dd00c 	sub	sp, sp, #12
    va_list args;
    va_start(args, format);
    b1f4:	e28d3014 	add	r3, sp, #20
    vfprintf(stderr, format, args);
    b1f8:	e1a02003 	mov	r2, r3
    b1fc:	e59d1010 	ldr	r1, [sp, #16]
    b200:	e59f0008 	ldr	r0, [pc, #8]	; b210 <__libc_fatal+0x28>
    va_start(args, format);
    b204:	e58d3004 	str	r3, [sp, #4]
    vfprintf(stderr, format, args);
    b208:	eb00117b 	bl	f7fc <vfprintf>
    __libc_log_fatal(format, args);
    va_end(args);
    abort();
    b20c:	ebfff6c1 	bl	8d18 <abort>
    b210:	0001305c 	.word	0x0001305c

0000b214 <write>:
#include <asm.h>
#include <trusty_syscalls.h>

.section .text.write
FUNCTION(write)
    ldr     r12, =__NR_write
    b214:	e3a0c001 	mov	ip, #1
    swi     #0
    b218:	ef000000 	svc	0x00000000
    bx      lr
    b21c:	e12fff1e 	bx	lr

0000b220 <brk>:

.section .text.brk
FUNCTION(brk)
    ldr     r12, =__NR_brk
    b220:	e3a0c002 	mov	ip, #2
    swi     #0
    b224:	ef000000 	svc	0x00000000
    bx      lr
    b228:	e12fff1e 	bx	lr

0000b22c <exit_group>:

.section .text.exit_group
FUNCTION(exit_group)
    ldr     r12, =__NR_exit_group
    b22c:	e3a0c003 	mov	ip, #3
    swi     #0
    b230:	ef000000 	svc	0x00000000
    bx      lr
    b234:	e12fff1e 	bx	lr

0000b238 <port_create>:
    swi     #0
    bx      lr

.section .text.port_create
FUNCTION(port_create)
    ldr     r12, =__NR_port_create
    b238:	e3a0c010 	mov	ip, #16
    swi     #0
    b23c:	ef000000 	svc	0x00000000
    bx      lr
    b240:	e12fff1e 	bx	lr

0000b244 <connect>:

.section .text.connect
FUNCTION(connect)
    ldr     r12, =__NR_connect
    b244:	e3a0c011 	mov	ip, #17
    swi     #0
    b248:	ef000000 	svc	0x00000000
    bx      lr
    b24c:	e12fff1e 	bx	lr

0000b250 <accept>:

.section .text.accept
FUNCTION(accept)
    ldr     r12, =__NR_accept
    b250:	e3a0c012 	mov	ip, #18
    swi     #0
    b254:	ef000000 	svc	0x00000000
    bx      lr
    b258:	e12fff1e 	bx	lr

0000b25c <close>:

.section .text.close
FUNCTION(close)
    ldr     r12, =__NR_close
    b25c:	e3a0c013 	mov	ip, #19
    swi     #0
    b260:	ef000000 	svc	0x00000000
    bx      lr
    b264:	e12fff1e 	bx	lr

0000b268 <set_cookie>:

.section .text.set_cookie
FUNCTION(set_cookie)
    ldr     r12, =__NR_set_cookie
    b268:	e3a0c014 	mov	ip, #20
    swi     #0
    b26c:	ef000000 	svc	0x00000000
    bx      lr
    b270:	e12fff1e 	bx	lr

0000b274 <wait>:

.section .text.wait
FUNCTION(wait)
    ldr     r12, =__NR_wait
    b274:	e3a0c018 	mov	ip, #24
    swi     #0
    b278:	ef000000 	svc	0x00000000
    bx      lr
    b27c:	e12fff1e 	bx	lr

0000b280 <wait_any>:

.section .text.wait_any
FUNCTION(wait_any)
    ldr     r12, =__NR_wait_any
    b280:	e3a0c019 	mov	ip, #25
    swi     #0
    b284:	ef000000 	svc	0x00000000
    bx      lr
    b288:	e12fff1e 	bx	lr

0000b28c <get_msg>:

.section .text.get_msg
FUNCTION(get_msg)
    ldr     r12, =__NR_get_msg
    b28c:	e3a0c020 	mov	ip, #32
    swi     #0
    b290:	ef000000 	svc	0x00000000
    bx      lr
    b294:	e12fff1e 	bx	lr

0000b298 <read_msg>:

.section .text.read_msg
FUNCTION(read_msg)
    ldr     r12, =__NR_read_msg
    b298:	e3a0c021 	mov	ip, #33	; 0x21
    swi     #0
    b29c:	ef000000 	svc	0x00000000
    bx      lr
    b2a0:	e12fff1e 	bx	lr

0000b2a4 <put_msg>:

.section .text.put_msg
FUNCTION(put_msg)
    ldr     r12, =__NR_put_msg
    b2a4:	e3a0c022 	mov	ip, #34	; 0x22
    swi     #0
    b2a8:	ef000000 	svc	0x00000000
    bx      lr
    b2ac:	e12fff1e 	bx	lr

0000b2b0 <send_msg>:

.section .text.send_msg
FUNCTION(send_msg)
    ldr     r12, =__NR_send_msg
    b2b0:	e3a0c023 	mov	ip, #35	; 0x23
    swi     #0
    b2b4:	ef000000 	svc	0x00000000
    bx      lr
    b2b8:	e12fff1e 	bx	lr

0000b2bc <AES_cbc_encrypt>:
#include <openssl/modes.h>

void AES_cbc_encrypt(const unsigned char *in, unsigned char *out,
                     size_t len, const AES_KEY *key,
                     unsigned char *ivec, const int enc)
{
    b2bc:	e59dc004 	ldr	ip, [sp, #4]

    if (enc)
    b2c0:	e35c0000 	cmp	ip, #0
    b2c4:	1a000003 	bne	b2d8 <AES_cbc_encrypt+0x1c>
        CRYPTO_cbc128_encrypt(in, out, len, key, ivec,
                              (block128_f) AES_encrypt);
    else
        CRYPTO_cbc128_decrypt(in, out, len, key, ivec,
    b2c8:	e30bce7c 	movw	ip, #48764	; 0xbe7c
    b2cc:	e340c000 	movt	ip, #0
    b2d0:	e58dc004 	str	ip, [sp, #4]
    b2d4:	ea000b84 	b	e0ec <CRYPTO_cbc128_decrypt>
        CRYPTO_cbc128_encrypt(in, out, len, key, ivec,
    b2d8:	e30bc97c 	movw	ip, #47484	; 0xb97c
    b2dc:	e340c000 	movt	ip, #0
    b2e0:	e58dc004 	str	ip, [sp, #4]
    b2e4:	ea000b46 	b	e004 <CRYPTO_cbc128_encrypt>

0000b2e8 <AES_set_encrypt_key>:

    u32 *rk;
    int i = 0;
    u32 temp;

    if (!userKey || !key)
    b2e8:	e3520000 	cmp	r2, #0
    b2ec:	13500000 	cmpne	r0, #0
    b2f0:	0a000111 	beq	b73c <AES_set_encrypt_key+0x454>
        return -1;
    if (bits != 128 && bits != 192 && bits != 256)
    b2f4:	e3c13040 	bic	r3, r1, #64	; 0x40
    b2f8:	e3530080 	cmp	r3, #128	; 0x80
    b2fc:	1a00005a 	bne	b46c <AES_set_encrypt_key+0x184>
        return -2;

    rk = key->rd_key;

    if (bits == 128)
    b300:	e3510080 	cmp	r1, #128	; 0x80
        key->rounds = 10;
    b304:	03a0300a 	moveq	r3, #10
    b308:	058230f0 	streq	r3, [r2, #240]	; 0xf0
    if (bits == 128)
    b30c:	0a000003 	beq	b320 <AES_set_encrypt_key+0x38>
    else if (bits == 192)
    b310:	e35100c0 	cmp	r1, #192	; 0xc0
    b314:	1a000056 	bne	b474 <AES_set_encrypt_key+0x18c>
        key->rounds = 12;
    b318:	e3a0300c 	mov	r3, #12
    b31c:	e58230f0 	str	r3, [r2, #240]	; 0xf0
{
    b320:	e92d4ff0 	push	{r4, r5, r6, r7, r8, r9, sl, fp, lr}

    rk[0] = GETU32(userKey     );
    rk[1] = GETU32(userKey +  4);
    rk[2] = GETU32(userKey +  8);
    rk[3] = GETU32(userKey + 12);
    if (bits == 128) {
    b324:	e3510080 	cmp	r1, #128	; 0x80
    rk[0] = GETU32(userKey     );
    b328:	e5d03001 	ldrb	r3, [r0, #1]
{
    b32c:	e24dd014 	sub	sp, sp, #20
    rk[0] = GETU32(userKey     );
    b330:	e5d04000 	ldrb	r4, [r0]
    b334:	e5d0e003 	ldrb	lr, [r0, #3]
    b338:	e1a03803 	lsl	r3, r3, #16
    b33c:	e5d0c002 	ldrb	ip, [r0, #2]
    b340:	e1833c04 	orr	r3, r3, r4, lsl #24
    b344:	e023300e 	eor	r3, r3, lr
    b348:	e183340c 	orr	r3, r3, ip, lsl #8
    b34c:	e5823000 	str	r3, [r2]
    rk[1] = GETU32(userKey +  4);
    b350:	e5d05005 	ldrb	r5, [r0, #5]
    b354:	e5d04004 	ldrb	r4, [r0, #4]
    b358:	e5d0e007 	ldrb	lr, [r0, #7]
    b35c:	e5d0c006 	ldrb	ip, [r0, #6]
    b360:	e1a05805 	lsl	r5, r5, #16
    b364:	e1855c04 	orr	r5, r5, r4, lsl #24
    b368:	e025500e 	eor	r5, r5, lr
    b36c:	e185540c 	orr	r5, r5, ip, lsl #8
    b370:	e5825004 	str	r5, [r2, #4]
    rk[2] = GETU32(userKey +  8);
    b374:	e5d06009 	ldrb	r6, [r0, #9]
    b378:	e5d04008 	ldrb	r4, [r0, #8]
    b37c:	e5d0e00b 	ldrb	lr, [r0, #11]
    b380:	e5d0c00a 	ldrb	ip, [r0, #10]
    b384:	e1a06806 	lsl	r6, r6, #16
    b388:	e1866c04 	orr	r6, r6, r4, lsl #24
    b38c:	e026600e 	eor	r6, r6, lr
    b390:	e186640c 	orr	r6, r6, ip, lsl #8
    b394:	e5826008 	str	r6, [r2, #8]
    rk[3] = GETU32(userKey + 12);
    b398:	e5d0400d 	ldrb	r4, [r0, #13]
    b39c:	e5d0700c 	ldrb	r7, [r0, #12]
    b3a0:	e5d0e00f 	ldrb	lr, [r0, #15]
    b3a4:	e5d0c00e 	ldrb	ip, [r0, #14]
    b3a8:	e1a04804 	lsl	r4, r4, #16
    b3ac:	e1844c07 	orr	r4, r4, r7, lsl #24
    b3b0:	e024400e 	eor	r4, r4, lr
    b3b4:	e184440c 	orr	r4, r4, ip, lsl #8
    b3b8:	e582400c 	str	r4, [r2, #12]
    if (bits == 128) {
    b3bc:	0a00002f 	beq	b480 <AES_set_encrypt_key+0x198>
                return 0;
            }
            rk += 4;
        }
    }
    rk[4] = GETU32(userKey + 16);
    b3c0:	e5d0c011 	ldrb	ip, [r0, #17]
    rk[5] = GETU32(userKey + 20);
    if (bits == 192) {
    b3c4:	e35100c0 	cmp	r1, #192	; 0xc0
    rk[4] = GETU32(userKey + 16);
    b3c8:	e5d08010 	ldrb	r8, [r0, #16]
    b3cc:	e5d07013 	ldrb	r7, [r0, #19]
    b3d0:	e5d0e012 	ldrb	lr, [r0, #18]
    b3d4:	e1a0c80c 	lsl	ip, ip, #16
    b3d8:	e18ccc08 	orr	ip, ip, r8, lsl #24
    b3dc:	e02cc007 	eor	ip, ip, r7
    b3e0:	e18cc40e 	orr	ip, ip, lr, lsl #8
    b3e4:	e582c010 	str	ip, [r2, #16]
    rk[5] = GETU32(userKey + 20);
    b3e8:	e5d07015 	ldrb	r7, [r0, #21]
    b3ec:	e5d08014 	ldrb	r8, [r0, #20]
    b3f0:	e5d0e017 	ldrb	lr, [r0, #23]
    b3f4:	e5d0c016 	ldrb	ip, [r0, #22]
    b3f8:	e1a07807 	lsl	r7, r7, #16
    b3fc:	e1877c08 	orr	r7, r7, r8, lsl #24
    b400:	e027700e 	eor	r7, r7, lr
    b404:	e187740c 	orr	r7, r7, ip, lsl #8
    b408:	e5827014 	str	r7, [r2, #20]
    if (bits == 192) {
    b40c:	0a00004a 	beq	b53c <AES_set_encrypt_key+0x254>
            rk[10] = rk[ 4] ^ rk[ 9];
            rk[11] = rk[ 5] ^ rk[10];
            rk += 6;
        }
    }
    rk[6] = GETU32(userKey + 24);
    b410:	e5d0c019 	ldrb	ip, [r0, #25]
    rk[7] = GETU32(userKey + 28);
    if (bits == 256) {
    b414:	e3510c01 	cmp	r1, #256	; 0x100
    rk[6] = GETU32(userKey + 24);
    b418:	e5d07018 	ldrb	r7, [r0, #24]
    b41c:	e5d0e01b 	ldrb	lr, [r0, #27]
    b420:	e1a0180c 	lsl	r1, ip, #16
    b424:	e5d0c01a 	ldrb	ip, [r0, #26]
    b428:	e1811c07 	orr	r1, r1, r7, lsl #24
    b42c:	e021100e 	eor	r1, r1, lr
    b430:	e181140c 	orr	r1, r1, ip, lsl #8
    b434:	e5821018 	str	r1, [r2, #24]
    rk[7] = GETU32(userKey + 28);
    b438:	e5d0701d 	ldrb	r7, [r0, #29]
    b43c:	e5d0e01c 	ldrb	lr, [r0, #28]
    b440:	e5d0c01f 	ldrb	ip, [r0, #31]
    b444:	e5d0101e 	ldrb	r1, [r0, #30]
    b448:	e1a07807 	lsl	r7, r7, #16
    b44c:	e1877c0e 	orr	r7, r7, lr, lsl #24
    b450:	e027700c 	eor	r7, r7, ip
    b454:	e1877401 	orr	r7, r7, r1, lsl #8
    b458:	e582701c 	str	r7, [r2, #28]
    if (bits == 256) {
    b45c:	0a00006b 	beq	b610 <AES_set_encrypt_key+0x328>
                return 0;
    b460:	e3a00000 	mov	r0, #0

            rk += 8;
            }
    }
    return 0;
}
    b464:	e28dd014 	add	sp, sp, #20
    b468:	e8bd8ff0 	pop	{r4, r5, r6, r7, r8, r9, sl, fp, pc}
    if (bits != 128 && bits != 192 && bits != 256)
    b46c:	e3510c01 	cmp	r1, #256	; 0x100
    b470:	1a0000b3 	bne	b744 <AES_set_encrypt_key+0x45c>
        key->rounds = 14;
    b474:	e3a0300e 	mov	r3, #14
    b478:	e58230f0 	str	r3, [r2, #240]	; 0xf0
    b47c:	eaffffa7 	b	b320 <AES_set_encrypt_key+0x38>
    b480:	e3011e84 	movw	r1, #7812	; 0x1e84
    b484:	e3020284 	movw	r0, #8836	; 0x2284
    b488:	e3027684 	movw	r7, #9860	; 0x2684
    b48c:	e3019684 	movw	r9, #5764	; 0x1684
    b490:	e3018a84 	movw	r8, #6788	; 0x1a84
    b494:	e3401001 	movt	r1, #1
    b498:	e3400001 	movt	r0, #1
    b49c:	e3407001 	movt	r7, #1
    b4a0:	e3409001 	movt	r9, #1
    b4a4:	e3408001 	movt	r8, #1
    b4a8:	e58d1004 	str	r1, [sp, #4]
    if (bits == 128) {
    b4ac:	e3a0a401 	mov	sl, #16777216	; 0x1000000
    b4b0:	e58d0008 	str	r0, [sp, #8]
    b4b4:	ea000001 	b	b4c0 <AES_set_encrypt_key+0x1d8>
    b4b8:	e5b7a004 	ldr	sl, [r7, #4]!
    b4bc:	e2822010 	add	r2, r2, #16
                (Te1[(temp >> 24)       ] & 0x000000ff) ^
    b4c0:	e1a0cc24 	lsr	ip, r4, #24
                (Te0[(temp      ) & 0xff] & 0x0000ff00) ^
    b4c4:	e6ef1074 	uxtb	r1, r4
                (Te3[(temp >>  8) & 0xff] & 0x00ff0000) ^
    b4c8:	e59db008 	ldr	fp, [sp, #8]
                (Te1[(temp >> 24)       ] & 0x000000ff) ^
    b4cc:	e7d8e10c 	ldrb	lr, [r8, ip, lsl #2]
            if (++i == 10) {
    b4d0:	e59fc274 	ldr	ip, [pc, #628]	; b74c <AES_set_encrypt_key+0x464>
                (Te0[(temp      ) & 0xff] & 0x0000ff00) ^
    b4d4:	e7990101 	ldr	r0, [r9, r1, lsl #2]
                (Te2[(temp >> 16) & 0xff] & 0xff000000) ^
    b4d8:	e7e71854 	ubfx	r1, r4, #16, #8
            if (++i == 10) {
    b4dc:	e15c0007 	cmp	ip, r7
                (Te2[(temp >> 16) & 0xff] & 0xff000000) ^
    b4e0:	e59dc004 	ldr	ip, [sp, #4]
                (Te0[(temp      ) & 0xff] & 0x0000ff00) ^
    b4e4:	e2000cff 	and	r0, r0, #65280	; 0xff00
                (Te1[(temp >> 24)       ] & 0x000000ff) ^
    b4e8:	e180000e 	orr	r0, r0, lr
                (Te2[(temp >> 16) & 0xff] & 0xff000000) ^
    b4ec:	e79c1101 	ldr	r1, [ip, r1, lsl #2]
                (Te3[(temp >>  8) & 0xff] & 0x00ff0000) ^
    b4f0:	e7e7c454 	ubfx	ip, r4, #8, #8
    b4f4:	e79bc10c 	ldr	ip, [fp, ip, lsl #2]
                (Te2[(temp >> 16) & 0xff] & 0xff000000) ^
    b4f8:	e20114ff 	and	r1, r1, #-16777216	; 0xff000000
                (Te1[(temp >> 24)       ] & 0x000000ff) ^
    b4fc:	e0200001 	eor	r0, r0, r1
                (Te3[(temp >>  8) & 0xff] & 0x00ff0000) ^
    b500:	e20cc8ff 	and	ip, ip, #16711680	; 0xff0000
                (Te1[(temp >> 24)       ] & 0x000000ff) ^
    b504:	e020000c 	eor	r0, r0, ip
    b508:	e0233000 	eor	r3, r3, r0
    b50c:	e023300a 	eor	r3, r3, sl
            rk[5] = rk[1] ^ rk[4];
    b510:	e0255003 	eor	r5, r5, r3
            rk[4] = rk[0] ^
    b514:	e5823010 	str	r3, [r2, #16]
            rk[6] = rk[2] ^ rk[5];
    b518:	e0266005 	eor	r6, r6, r5
            rk[5] = rk[1] ^ rk[4];
    b51c:	e5825014 	str	r5, [r2, #20]
            rk[7] = rk[3] ^ rk[6];
    b520:	e0244006 	eor	r4, r4, r6
            rk[6] = rk[2] ^ rk[5];
    b524:	e5826018 	str	r6, [r2, #24]
            rk[7] = rk[3] ^ rk[6];
    b528:	e582401c 	str	r4, [r2, #28]
            if (++i == 10) {
    b52c:	1affffe1 	bne	b4b8 <AES_set_encrypt_key+0x1d0>
                return 0;
    b530:	e3a00000 	mov	r0, #0
}
    b534:	e28dd014 	add	sp, sp, #20
    b538:	e8bd8ff0 	pop	{r4, r5, r6, r7, r8, r9, sl, fp, pc}
    b53c:	e3018a84 	movw	r8, #6788	; 0x1a84
    b540:	e3011e84 	movw	r1, #7812	; 0x1e84
    b544:	e3020284 	movw	r0, #8836	; 0x2284
    b548:	e3019684 	movw	r9, #5764	; 0x1684
    b54c:	e3408001 	movt	r8, #1
    b550:	e3401001 	movt	r1, #1
    b554:	e3400001 	movt	r0, #1
    b558:	e59fa1f0 	ldr	sl, [pc, #496]	; b750 <AES_set_encrypt_key+0x468>
    b55c:	e3409001 	movt	r9, #1
    b560:	e58d1004 	str	r1, [sp, #4]
    b564:	e58d0008 	str	r0, [sp, #8]
    if (bits == 192) {
    b568:	e3a0b401 	mov	fp, #16777216	; 0x1000000
    b56c:	e58d800c 	str	r8, [sp, #12]
    b570:	ea000006 	b	b590 <AES_set_encrypt_key+0x2a8>
            rk[10] = rk[ 4] ^ rk[ 9];
    b574:	e5921010 	ldr	r1, [r2, #16]
    b578:	e2822018 	add	r2, r2, #24
    b57c:	e0211004 	eor	r1, r1, r4
            rk[11] = rk[ 5] ^ rk[10];
    b580:	e0277001 	eor	r7, r7, r1
            rk[10] = rk[ 4] ^ rk[ 9];
    b584:	e5821010 	str	r1, [r2, #16]
            rk[11] = rk[ 5] ^ rk[10];
    b588:	e5827014 	str	r7, [r2, #20]
    b58c:	e49ab004 	ldr	fp, [sl], #4
                (Te1[(temp >> 24)       ] & 0x000000ff) ^
    b590:	e59de00c 	ldr	lr, [sp, #12]
    b594:	e1a0cc27 	lsr	ip, r7, #24
                (Te0[(temp      ) & 0xff] & 0x0000ff00) ^
    b598:	e6ef1077 	uxtb	r1, r7
                (Te3[(temp >>  8) & 0xff] & 0x00ff0000) ^
    b59c:	e59d8008 	ldr	r8, [sp, #8]
                (Te1[(temp >> 24)       ] & 0x000000ff) ^
    b5a0:	e7dee10c 	ldrb	lr, [lr, ip, lsl #2]
            if (++i == 8) {
    b5a4:	e59fc1a8 	ldr	ip, [pc, #424]	; b754 <AES_set_encrypt_key+0x46c>
                (Te0[(temp      ) & 0xff] & 0x0000ff00) ^
    b5a8:	e7990101 	ldr	r0, [r9, r1, lsl #2]
                (Te2[(temp >> 16) & 0xff] & 0xff000000) ^
    b5ac:	e7e71857 	ubfx	r1, r7, #16, #8
            if (++i == 8) {
    b5b0:	e15c000a 	cmp	ip, sl
                (Te2[(temp >> 16) & 0xff] & 0xff000000) ^
    b5b4:	e59dc004 	ldr	ip, [sp, #4]
                (Te0[(temp      ) & 0xff] & 0x0000ff00) ^
    b5b8:	e2000cff 	and	r0, r0, #65280	; 0xff00
                (Te1[(temp >> 24)       ] & 0x000000ff) ^
    b5bc:	e180000e 	orr	r0, r0, lr
                (Te2[(temp >> 16) & 0xff] & 0xff000000) ^
    b5c0:	e79c1101 	ldr	r1, [ip, r1, lsl #2]
                (Te3[(temp >>  8) & 0xff] & 0x00ff0000) ^
    b5c4:	e7e7c457 	ubfx	ip, r7, #8, #8
    b5c8:	e798c10c 	ldr	ip, [r8, ip, lsl #2]
                (Te2[(temp >> 16) & 0xff] & 0xff000000) ^
    b5cc:	e20114ff 	and	r1, r1, #-16777216	; 0xff000000
                (Te1[(temp >> 24)       ] & 0x000000ff) ^
    b5d0:	e0200001 	eor	r0, r0, r1
                (Te3[(temp >>  8) & 0xff] & 0x00ff0000) ^
    b5d4:	e20cc8ff 	and	ip, ip, #16711680	; 0xff0000
                (Te1[(temp >> 24)       ] & 0x000000ff) ^
    b5d8:	e020000c 	eor	r0, r0, ip
    b5dc:	e0233000 	eor	r3, r3, r0
    b5e0:	e023300b 	eor	r3, r3, fp
            rk[ 7] = rk[ 1] ^ rk[ 6];
    b5e4:	e0255003 	eor	r5, r5, r3
            rk[ 6] = rk[ 0] ^
    b5e8:	e5823018 	str	r3, [r2, #24]
            rk[ 8] = rk[ 2] ^ rk[ 7];
    b5ec:	e0266005 	eor	r6, r6, r5
            rk[ 7] = rk[ 1] ^ rk[ 6];
    b5f0:	e582501c 	str	r5, [r2, #28]
            rk[ 9] = rk[ 3] ^ rk[ 8];
    b5f4:	e0244006 	eor	r4, r4, r6
            rk[ 8] = rk[ 2] ^ rk[ 7];
    b5f8:	e5826020 	str	r6, [r2, #32]
            rk[ 9] = rk[ 3] ^ rk[ 8];
    b5fc:	e5824024 	str	r4, [r2, #36]	; 0x24
            if (++i == 8) {
    b600:	1affffdb 	bne	b574 <AES_set_encrypt_key+0x28c>
                return 0;
    b604:	e3a00000 	mov	r0, #0
}
    b608:	e28dd014 	add	sp, sp, #20
    b60c:	e8bd8ff0 	pop	{r4, r5, r6, r7, r8, r9, sl, fp, pc}
    b610:	e3018a84 	movw	r8, #6788	; 0x1a84
    b614:	e3011e84 	movw	r1, #7812	; 0x1e84
    b618:	e3020284 	movw	r0, #8836	; 0x2284
    b61c:	e3019684 	movw	r9, #5764	; 0x1684
    b620:	e3408001 	movt	r8, #1
    b624:	e3401001 	movt	r1, #1
    b628:	e3400001 	movt	r0, #1
    b62c:	e59fb11c 	ldr	fp, [pc, #284]	; b750 <AES_set_encrypt_key+0x468>
    b630:	e3409001 	movt	r9, #1
    b634:	e58d1004 	str	r1, [sp, #4]
    b638:	e58d0008 	str	r0, [sp, #8]
    if (bits == 256) {
    b63c:	e3a0a401 	mov	sl, #16777216	; 0x1000000
    b640:	e58d800c 	str	r8, [sp, #12]
    b644:	ea000018 	b	b6ac <AES_set_encrypt_key+0x3c4>
                (Te3[(temp >> 16) & 0xff] & 0x00ff0000) ^
    b648:	e798c10c 	ldr	ip, [r8, ip, lsl #2]
    b64c:	e2822020 	add	r2, r2, #32
                (Te2[(temp >> 24)       ] & 0xff000000) ^
    b650:	e59d8004 	ldr	r8, [sp, #4]
                (Te0[(temp >>  8) & 0xff] & 0x0000ff00) ^
    b654:	e7991101 	ldr	r1, [r9, r1, lsl #2]
    b658:	e512a010 	ldr	sl, [r2, #-16]
                (Te3[(temp >> 16) & 0xff] & 0x00ff0000) ^
    b65c:	e20cc8ff 	and	ip, ip, #16711680	; 0xff0000
                (Te2[(temp >> 24)       ] & 0xff000000) ^
    b660:	e7980100 	ldr	r0, [r8, r0, lsl #2]
                (Te1[(temp      ) & 0xff] & 0x000000ff);
    b664:	e59d800c 	ldr	r8, [sp, #12]
                (Te0[(temp >>  8) & 0xff] & 0x0000ff00) ^
    b668:	e2011cff 	and	r1, r1, #65280	; 0xff00
    b66c:	e18c1001 	orr	r1, ip, r1
                (Te2[(temp >> 24)       ] & 0xff000000) ^
    b670:	e20004ff 	and	r0, r0, #-16777216	; 0xff000000
                (Te0[(temp >>  8) & 0xff] & 0x0000ff00) ^
    b674:	e021100a 	eor	r1, r1, sl
                (Te1[(temp      ) & 0xff] & 0x000000ff);
    b678:	e7d8e10e 	ldrb	lr, [r8, lr, lsl #2]
                (Te0[(temp >>  8) & 0xff] & 0x0000ff00) ^
    b67c:	e180000e 	orr	r0, r0, lr
    b680:	e0200001 	eor	r0, r0, r1
            rk[13] = rk[ 5] ^ rk[12];
    b684:	e512100c 	ldr	r1, [r2, #-12]
            rk[12] = rk[ 4] ^
    b688:	e5820010 	str	r0, [r2, #16]
            rk[13] = rk[ 5] ^ rk[12];
    b68c:	e0201001 	eor	r1, r0, r1
            rk[14] = rk[ 6] ^ rk[13];
    b690:	e5120008 	ldr	r0, [r2, #-8]
            rk[13] = rk[ 5] ^ rk[12];
    b694:	e5821014 	str	r1, [r2, #20]
            rk[14] = rk[ 6] ^ rk[13];
    b698:	e0210000 	eor	r0, r1, r0
            rk[15] = rk[ 7] ^ rk[14];
    b69c:	e0277000 	eor	r7, r7, r0
            rk[14] = rk[ 6] ^ rk[13];
    b6a0:	e5820018 	str	r0, [r2, #24]
            rk[15] = rk[ 7] ^ rk[14];
    b6a4:	e582701c 	str	r7, [r2, #28]
    b6a8:	e49ba004 	ldr	sl, [fp], #4
                (Te1[(temp >> 24)       ] & 0x000000ff) ^
    b6ac:	e59d800c 	ldr	r8, [sp, #12]
    b6b0:	e1a0cc27 	lsr	ip, r7, #24
                (Te0[(temp      ) & 0xff] & 0x0000ff00) ^
    b6b4:	e6ef1077 	uxtb	r1, r7
                (Te1[(temp >> 24)       ] & 0x000000ff) ^
    b6b8:	e7d8e10c 	ldrb	lr, [r8, ip, lsl #2]
            if (++i == 7) {
    b6bc:	e59fc094 	ldr	ip, [pc, #148]	; b758 <AES_set_encrypt_key+0x470>
                (Te3[(temp >>  8) & 0xff] & 0x00ff0000) ^
    b6c0:	e59d8008 	ldr	r8, [sp, #8]
                (Te0[(temp      ) & 0xff] & 0x0000ff00) ^
    b6c4:	e7990101 	ldr	r0, [r9, r1, lsl #2]
                (Te2[(temp >> 16) & 0xff] & 0xff000000) ^
    b6c8:	e7e71857 	ubfx	r1, r7, #16, #8
            if (++i == 7) {
    b6cc:	e15c000b 	cmp	ip, fp
                (Te2[(temp >> 16) & 0xff] & 0xff000000) ^
    b6d0:	e59dc004 	ldr	ip, [sp, #4]
                (Te0[(temp      ) & 0xff] & 0x0000ff00) ^
    b6d4:	e2000cff 	and	r0, r0, #65280	; 0xff00
                (Te2[(temp >> 16) & 0xff] & 0xff000000) ^
    b6d8:	e79c1101 	ldr	r1, [ip, r1, lsl #2]
                (Te3[(temp >>  8) & 0xff] & 0x00ff0000) ^
    b6dc:	e7e7c457 	ubfx	ip, r7, #8, #8
    b6e0:	e798c10c 	ldr	ip, [r8, ip, lsl #2]
                (Te1[(temp >> 24)       ] & 0x000000ff) ^
    b6e4:	e180000e 	orr	r0, r0, lr
                (Te2[(temp >> 16) & 0xff] & 0xff000000) ^
    b6e8:	e20114ff 	and	r1, r1, #-16777216	; 0xff000000
                (Te1[(temp >> 24)       ] & 0x000000ff) ^
    b6ec:	e0200001 	eor	r0, r0, r1
                (Te3[(temp >>  8) & 0xff] & 0x00ff0000) ^
    b6f0:	e20cc8ff 	and	ip, ip, #16711680	; 0xff0000
                (Te1[(temp >> 24)       ] & 0x000000ff) ^
    b6f4:	e020000c 	eor	r0, r0, ip
    b6f8:	e0233000 	eor	r3, r3, r0
    b6fc:	e023300a 	eor	r3, r3, sl
            rk[ 9] = rk[ 1] ^ rk[ 8];
    b700:	e0255003 	eor	r5, r5, r3
            rk[ 8] = rk[ 0] ^
    b704:	e5823020 	str	r3, [r2, #32]
            rk[10] = rk[ 2] ^ rk[ 9];
    b708:	e0266005 	eor	r6, r6, r5
            rk[ 9] = rk[ 1] ^ rk[ 8];
    b70c:	e5825024 	str	r5, [r2, #36]	; 0x24
            rk[11] = rk[ 3] ^ rk[10];
    b710:	e0244006 	eor	r4, r4, r6
            rk[10] = rk[ 2] ^ rk[ 9];
    b714:	e5826028 	str	r6, [r2, #40]	; 0x28
                (Te3[(temp >> 16) & 0xff] & 0x00ff0000) ^
    b718:	e7e7c854 	ubfx	ip, r4, #16, #8
                (Te0[(temp >>  8) & 0xff] & 0x0000ff00) ^
    b71c:	e7e71454 	ubfx	r1, r4, #8, #8
                (Te2[(temp >> 24)       ] & 0xff000000) ^
    b720:	e1a00c24 	lsr	r0, r4, #24
                (Te1[(temp      ) & 0xff] & 0x000000ff);
    b724:	e6efe074 	uxtb	lr, r4
            rk[11] = rk[ 3] ^ rk[10];
    b728:	e582402c 	str	r4, [r2, #44]	; 0x2c
            if (++i == 7) {
    b72c:	1affffc5 	bne	b648 <AES_set_encrypt_key+0x360>
                return 0;
    b730:	e3a00000 	mov	r0, #0
}
    b734:	e28dd014 	add	sp, sp, #20
    b738:	e8bd8ff0 	pop	{r4, r5, r6, r7, r8, r9, sl, fp, pc}
        return -1;
    b73c:	e3e00000 	mvn	r0, #0
    b740:	e12fff1e 	bx	lr
        return -2;
    b744:	e3e00001 	mvn	r0, #1
}
    b748:	e12fff1e 	bx	lr
    b74c:	000126a8 	.word	0x000126a8
    b750:	00012688 	.word	0x00012688
    b754:	000126a4 	.word	0x000126a4
    b758:	000126a0 	.word	0x000126a0

0000b75c <AES_set_decrypt_key>:
/**
 * Expand the cipher key into the decryption key schedule.
 */
int AES_set_decrypt_key(const unsigned char *userKey, const int bits,
                        AES_KEY *key)
{
    b75c:	e92d4ff0 	push	{r4, r5, r6, r7, r8, r9, sl, fp, lr}
    b760:	e24dd014 	sub	sp, sp, #20
    b764:	e1a04002 	mov	r4, r2
    b768:	e58d200c 	str	r2, [sp, #12]
    u32 *rk;
    int i, j, status;
    u32 temp;

    /* first, start with an encryption schedule */
    status = AES_set_encrypt_key(userKey, bits, key);
    b76c:	ebfffedd 	bl	b2e8 <AES_set_encrypt_key>
    if (status < 0)
    b770:	e3500000 	cmp	r0, #0
    b774:	ba00007e 	blt	b974 <AES_set_decrypt_key+0x218>
        return status;

    rk = key->rd_key;

    /* invert the order of the round keys: */
    for (i = 0, j = 4*(key->rounds); i < j; i += 4, j -= 4) {
    b778:	e59430f0 	ldr	r3, [r4, #240]	; 0xf0
    b77c:	e1a02004 	mov	r2, r4
    b780:	e1a0e103 	lsl	lr, r3, #2
    b784:	e35e0000 	cmp	lr, #0
    b788:	da000019 	ble	b7f4 <AES_set_decrypt_key+0x98>
    b78c:	e0843203 	add	r3, r4, r3, lsl #4
    b790:	e3a01000 	mov	r1, #0
        temp = rk[i    ]; rk[i    ] = rk[j    ]; rk[j    ] = temp;
    b794:	e5920000 	ldr	r0, [r2]
    for (i = 0, j = 4*(key->rounds); i < j; i += 4, j -= 4) {
    b798:	e2811004 	add	r1, r1, #4
        temp = rk[i    ]; rk[i    ] = rk[j    ]; rk[j    ] = temp;
    b79c:	e593c000 	ldr	ip, [r3]
    for (i = 0, j = 4*(key->rounds); i < j; i += 4, j -= 4) {
    b7a0:	e04e4001 	sub	r4, lr, r1
    b7a4:	e1510004 	cmp	r1, r4
    b7a8:	e2822010 	add	r2, r2, #16
    b7ac:	e2433010 	sub	r3, r3, #16
        temp = rk[i    ]; rk[i    ] = rk[j    ]; rk[j    ] = temp;
    b7b0:	e502c010 	str	ip, [r2, #-16]
    b7b4:	e5830010 	str	r0, [r3, #16]
        temp = rk[i + 1]; rk[i + 1] = rk[j + 1]; rk[j + 1] = temp;
    b7b8:	e593c014 	ldr	ip, [r3, #20]
    b7bc:	e512000c 	ldr	r0, [r2, #-12]
    b7c0:	e502c00c 	str	ip, [r2, #-12]
    b7c4:	e5830014 	str	r0, [r3, #20]
        temp = rk[i + 2]; rk[i + 2] = rk[j + 2]; rk[j + 2] = temp;
    b7c8:	e593c018 	ldr	ip, [r3, #24]
    b7cc:	e5120008 	ldr	r0, [r2, #-8]
    b7d0:	e502c008 	str	ip, [r2, #-8]
    b7d4:	e5830018 	str	r0, [r3, #24]
        temp = rk[i + 3]; rk[i + 3] = rk[j + 3]; rk[j + 3] = temp;
    b7d8:	e593c01c 	ldr	ip, [r3, #28]
    b7dc:	e5120004 	ldr	r0, [r2, #-4]
    b7e0:	e502c004 	str	ip, [r2, #-4]
    b7e4:	e583001c 	str	r0, [r3, #28]
    for (i = 0, j = 4*(key->rounds); i < j; i += 4, j -= 4) {
    b7e8:	baffffe9 	blt	b794 <AES_set_decrypt_key+0x38>
    b7ec:	e59d300c 	ldr	r3, [sp, #12]
    b7f0:	e59330f0 	ldr	r3, [r3, #240]	; 0xf0
    }
    /* apply the inverse MixColumn transform to all round keys but the first and the last: */
    for (i = 1; i < (key->rounds); i++) {
    b7f4:	e3530001 	cmp	r3, #1
    b7f8:	da00005c 	ble	b970 <AES_set_decrypt_key+0x214>
    b7fc:	e59d100c 	ldr	r1, [sp, #12]
    b800:	e3008584 	movw	r8, #1412	; 0x584
    b804:	e3013a84 	movw	r3, #6788	; 0x1a84
    b808:	e3017184 	movw	r7, #4484	; 0x1184
    b80c:	e3006984 	movw	r6, #2436	; 0x984
    b810:	e3002d84 	movw	r2, #3460	; 0xd84
    b814:	e3402001 	movt	r2, #1
    b818:	e3408001 	movt	r8, #1
    b81c:	e3403001 	movt	r3, #1
    b820:	e3407001 	movt	r7, #1
    b824:	e3406001 	movt	r6, #1
    b828:	e58d2008 	str	r2, [sp, #8]
    b82c:	e3a02001 	mov	r2, #1
    b830:	e58d2004 	str	r2, [sp, #4]
        rk += 4;
        rk[0] =
            Td0[Te1[(rk[0] >> 24)       ] & 0xff] ^
    b834:	e591b010 	ldr	fp, [r1, #16]
    b838:	e2811010 	add	r1, r1, #16
    for (i = 1; i < (key->rounds); i++) {
    b83c:	e59d2004 	ldr	r2, [sp, #4]
            Td1[Te1[(rk[0] >> 16) & 0xff] & 0xff] ^
            Td2[Te1[(rk[0] >>  8) & 0xff] & 0xff] ^
            Td3[Te1[(rk[0]      ) & 0xff] & 0xff];
        rk[1] =
            Td0[Te1[(rk[1] >> 24)       ] & 0xff] ^
    b840:	e5919004 	ldr	r9, [r1, #4]
            Td0[Te1[(rk[0] >> 24)       ] & 0xff] ^
    b844:	e1a04c2b 	lsr	r4, fp, #24
            Td3[Te1[(rk[0]      ) & 0xff] & 0xff];
    b848:	e6efe07b 	uxtb	lr, fp
    for (i = 1; i < (key->rounds); i++) {
    b84c:	e2822001 	add	r2, r2, #1
            Td0[Te1[(rk[0] >> 24)       ] & 0xff] ^
    b850:	e7d35104 	ldrb	r5, [r3, r4, lsl #2]
    for (i = 1; i < (key->rounds); i++) {
    b854:	e58d2004 	str	r2, [sp, #4]
            Td0[Te1[(rk[1] >> 24)       ] & 0xff] ^
    b858:	e1a0cc29 	lsr	ip, r9, #24
            Td1[Te1[(rk[1] >> 16) & 0xff] & 0xff] ^
            Td2[Te1[(rk[1] >>  8) & 0xff] & 0xff] ^
            Td3[Te1[(rk[1]      ) & 0xff] & 0xff];
        rk[2] =
            Td0[Te1[(rk[2] >> 24)       ] & 0xff] ^
    b85c:	e5912008 	ldr	r2, [r1, #8]
            Td3[Te1[(rk[1]      ) & 0xff] & 0xff];
    b860:	e6ef0079 	uxtb	r0, r9
            Td3[Te1[(rk[0]      ) & 0xff] & 0xff];
    b864:	e7d3e10e 	ldrb	lr, [r3, lr, lsl #2]
            Td2[Te1[(rk[0] >>  8) & 0xff] & 0xff] ^
    b868:	e7985105 	ldr	r5, [r8, r5, lsl #2]
            Td0[Te1[(rk[1] >> 24)       ] & 0xff] ^
    b86c:	e7d3410c 	ldrb	r4, [r3, ip, lsl #2]
            Td2[Te1[(rk[0] >>  8) & 0xff] & 0xff] ^
    b870:	e797e10e 	ldr	lr, [r7, lr, lsl #2]
            Td0[Te1[(rk[2] >> 24)       ] & 0xff] ^
    b874:	e1a0cc22 	lsr	ip, r2, #24
            Td3[Te1[(rk[1]      ) & 0xff] & 0xff];
    b878:	e7d30100 	ldrb	r0, [r3, r0, lsl #2]
            Td0[Te1[(rk[2] >> 24)       ] & 0xff] ^
    b87c:	e7d3a10c 	ldrb	sl, [r3, ip, lsl #2]
            Td1[Te1[(rk[2] >> 16) & 0xff] & 0xff] ^
            Td2[Te1[(rk[2] >>  8) & 0xff] & 0xff] ^
            Td3[Te1[(rk[2]      ) & 0xff] & 0xff];
    b880:	e6efc072 	uxtb	ip, r2
            Td2[Te1[(rk[0] >>  8) & 0xff] & 0xff] ^
    b884:	e025500e 	eor	r5, r5, lr
            Td2[Te1[(rk[1] >>  8) & 0xff] & 0xff] ^
    b888:	e7984104 	ldr	r4, [r8, r4, lsl #2]
            Td1[Te1[(rk[0] >> 16) & 0xff] & 0xff] ^
    b88c:	e7e7e85b 	ubfx	lr, fp, #16, #8
            Td3[Te1[(rk[2]      ) & 0xff] & 0xff];
    b890:	e7d3c10c 	ldrb	ip, [r3, ip, lsl #2]
            Td1[Te1[(rk[0] >> 16) & 0xff] & 0xff] ^
    b894:	e7d3e10e 	ldrb	lr, [r3, lr, lsl #2]
            Td2[Te1[(rk[0] >>  8) & 0xff] & 0xff] ^
    b898:	e7e7b45b 	ubfx	fp, fp, #8, #8
            Td2[Te1[(rk[1] >>  8) & 0xff] & 0xff] ^
    b89c:	e7970100 	ldr	r0, [r7, r0, lsl #2]
            Td2[Te1[(rk[2] >>  8) & 0xff] & 0xff] ^
    b8a0:	e798a10a 	ldr	sl, [r8, sl, lsl #2]
            Td2[Te1[(rk[0] >>  8) & 0xff] & 0xff] ^
    b8a4:	e796e10e 	ldr	lr, [r6, lr, lsl #2]
            Td2[Te1[(rk[2] >>  8) & 0xff] & 0xff] ^
    b8a8:	e797c10c 	ldr	ip, [r7, ip, lsl #2]
            Td2[Te1[(rk[1] >>  8) & 0xff] & 0xff] ^
    b8ac:	e0244000 	eor	r4, r4, r0
            Td2[Te1[(rk[0] >>  8) & 0xff] & 0xff] ^
    b8b0:	e7d3b10b 	ldrb	fp, [r3, fp, lsl #2]
            Td1[Te1[(rk[1] >> 16) & 0xff] & 0xff] ^
    b8b4:	e7e70859 	ubfx	r0, r9, #16, #8
            Td2[Te1[(rk[0] >>  8) & 0xff] & 0xff] ^
    b8b8:	e02ee005 	eor	lr, lr, r5
    b8bc:	e59d5008 	ldr	r5, [sp, #8]
            Td2[Te1[(rk[2] >>  8) & 0xff] & 0xff] ^
    b8c0:	e02cc00a 	eor	ip, ip, sl
            Td1[Te1[(rk[2] >> 16) & 0xff] & 0xff] ^
    b8c4:	e7e7a852 	ubfx	sl, r2, #16, #8
            Td1[Te1[(rk[1] >> 16) & 0xff] & 0xff] ^
    b8c8:	e7d30100 	ldrb	r0, [r3, r0, lsl #2]
            Td2[Te1[(rk[2] >>  8) & 0xff] & 0xff] ^
    b8cc:	e7e72452 	ubfx	r2, r2, #8, #8
            Td1[Te1[(rk[2] >> 16) & 0xff] & 0xff] ^
    b8d0:	e7d3a10a 	ldrb	sl, [r3, sl, lsl #2]
            Td2[Te1[(rk[1] >>  8) & 0xff] & 0xff] ^
    b8d4:	e7e79459 	ubfx	r9, r9, #8, #8
            Td2[Te1[(rk[0] >>  8) & 0xff] & 0xff] ^
    b8d8:	e795510b 	ldr	r5, [r5, fp, lsl #2]
            Td2[Te1[(rk[2] >>  8) & 0xff] & 0xff] ^
    b8dc:	e7d32102 	ldrb	r2, [r3, r2, lsl #2]
            Td2[Te1[(rk[1] >>  8) & 0xff] & 0xff] ^
    b8e0:	e59db008 	ldr	fp, [sp, #8]
    b8e4:	e7d39109 	ldrb	r9, [r3, r9, lsl #2]
            Td2[Te1[(rk[0] >>  8) & 0xff] & 0xff] ^
    b8e8:	e02ee005 	eor	lr, lr, r5
            Td2[Te1[(rk[1] >>  8) & 0xff] & 0xff] ^
    b8ec:	e7960100 	ldr	r0, [r6, r0, lsl #2]
            Td2[Te1[(rk[2] >>  8) & 0xff] & 0xff] ^
    b8f0:	e796a10a 	ldr	sl, [r6, sl, lsl #2]
        rk[3] =
            Td0[Te1[(rk[3] >> 24)       ] & 0xff] ^
    b8f4:	e591500c 	ldr	r5, [r1, #12]
            Td2[Te1[(rk[2] >>  8) & 0xff] & 0xff] ^
    b8f8:	e79b2102 	ldr	r2, [fp, r2, lsl #2]
            Td2[Te1[(rk[1] >>  8) & 0xff] & 0xff] ^
    b8fc:	e0200004 	eor	r0, r0, r4
            Td2[Te1[(rk[2] >>  8) & 0xff] & 0xff] ^
    b900:	e02cc00a 	eor	ip, ip, sl
            Td2[Te1[(rk[1] >>  8) & 0xff] & 0xff] ^
    b904:	e79b4109 	ldr	r4, [fp, r9, lsl #2]
        rk[0] =
    b908:	e581e000 	str	lr, [r1]
            Td2[Te1[(rk[2] >>  8) & 0xff] & 0xff] ^
    b90c:	e022200c 	eor	r2, r2, ip
            Td1[Te1[(rk[3] >> 16) & 0xff] & 0xff] ^
            Td2[Te1[(rk[3] >>  8) & 0xff] & 0xff] ^
            Td3[Te1[(rk[3]      ) & 0xff] & 0xff];
    b910:	e6efc075 	uxtb	ip, r5
        rk[2] =
    b914:	e5812008 	str	r2, [r1, #8]
            Td0[Te1[(rk[3] >> 24)       ] & 0xff] ^
    b918:	e1a02c25 	lsr	r2, r5, #24
            Td2[Te1[(rk[1] >>  8) & 0xff] & 0xff] ^
    b91c:	e0200004 	eor	r0, r0, r4
            Td3[Te1[(rk[3]      ) & 0xff] & 0xff];
    b920:	e7d3e10c 	ldrb	lr, [r3, ip, lsl #2]
        rk[1] =
    b924:	e5810004 	str	r0, [r1, #4]
            Td1[Te1[(rk[3] >> 16) & 0xff] & 0xff] ^
    b928:	e7e70855 	ubfx	r0, r5, #16, #8
            Td0[Te1[(rk[3] >> 24)       ] & 0xff] ^
    b92c:	e7d32102 	ldrb	r2, [r3, r2, lsl #2]
            Td2[Te1[(rk[3] >>  8) & 0xff] & 0xff] ^
    b930:	e7e75455 	ubfx	r5, r5, #8, #8
            Td1[Te1[(rk[3] >> 16) & 0xff] & 0xff] ^
    b934:	e7d3c100 	ldrb	ip, [r3, r0, lsl #2]
            Td2[Te1[(rk[3] >>  8) & 0xff] & 0xff] ^
    b938:	e797e10e 	ldr	lr, [r7, lr, lsl #2]
    b93c:	e7d30105 	ldrb	r0, [r3, r5, lsl #2]
    b940:	e7982102 	ldr	r2, [r8, r2, lsl #2]
    b944:	e796c10c 	ldr	ip, [r6, ip, lsl #2]
    b948:	e79b0100 	ldr	r0, [fp, r0, lsl #2]
    b94c:	e022200e 	eor	r2, r2, lr
    b950:	e022200c 	eor	r2, r2, ip
    for (i = 1; i < (key->rounds); i++) {
    b954:	e59dc00c 	ldr	ip, [sp, #12]
            Td2[Te1[(rk[3] >>  8) & 0xff] & 0xff] ^
    b958:	e0222000 	eor	r2, r2, r0
    for (i = 1; i < (key->rounds); i++) {
    b95c:	e59d0004 	ldr	r0, [sp, #4]
        rk[3] =
    b960:	e581200c 	str	r2, [r1, #12]
    for (i = 1; i < (key->rounds); i++) {
    b964:	e59c20f0 	ldr	r2, [ip, #240]	; 0xf0
    b968:	e1520000 	cmp	r2, r0
    b96c:	caffffb0 	bgt	b834 <AES_set_decrypt_key+0xd8>
    }
    return 0;
    b970:	e3a00000 	mov	r0, #0
}
    b974:	e28dd014 	add	sp, sp, #20
    b978:	e8bd8ff0 	pop	{r4, r5, r6, r7, r8, r9, sl, fp, pc}

0000b97c <AES_encrypt>:
/*
 * Encrypt a single block
 * in and out can overlap
 */
void AES_encrypt(const unsigned char *in, unsigned char *out,
                 const AES_KEY *key) {
    b97c:	e92d4ff0 	push	{r4, r5, r6, r7, r8, r9, sl, fp, lr}
    b980:	e24dd044 	sub	sp, sp, #68	; 0x44
    b984:	e1a08002 	mov	r8, r2
    b988:	e58d2034 	str	r2, [sp, #52]	; 0x34
    b98c:	e301ae84 	movw	sl, #7812	; 0x1e84
    b990:	e3029284 	movw	r9, #8836	; 0x2284

    /*
     * map byte array block to cipher state
     * and add initial round key:
     */
    s0 = GETU32(in     ) ^ rk[0];
    b994:	e5d02001 	ldrb	r2, [r0, #1]
    b998:	e340a001 	movt	sl, #1
    s1 = GETU32(in +  4) ^ rk[1];
    s2 = GETU32(in +  8) ^ rk[2];
    b99c:	e5d04009 	ldrb	r4, [r0, #9]
    b9a0:	e301ba84 	movw	fp, #6788	; 0x1a84
    s3 = GETU32(in + 12) ^ rk[3];
    b9a4:	e5d0300d 	ldrb	r3, [r0, #13]
    b9a8:	e340b001 	movt	fp, #1
    s0 = GETU32(in     ) ^ rk[0];
    b9ac:	e5d07000 	ldrb	r7, [r0]
    b9b0:	e3409001 	movt	r9, #1
    s1 = GETU32(in +  4) ^ rk[1];
    b9b4:	e5d0c005 	ldrb	ip, [r0, #5]
    s0 = GETU32(in     ) ^ rk[0];
    b9b8:	e1a02802 	lsl	r2, r2, #16
    s2 = GETU32(in +  8) ^ rk[2];
    b9bc:	e5d0e008 	ldrb	lr, [r0, #8]
    b9c0:	e1a04804 	lsl	r4, r4, #16
    s3 = GETU32(in + 12) ^ rk[3];
    b9c4:	e5d0500c 	ldrb	r5, [r0, #12]
    b9c8:	e1a03803 	lsl	r3, r3, #16
    s1 = GETU32(in +  4) ^ rk[1];
    b9cc:	e5d06004 	ldrb	r6, [r0, #4]
    s0 = GETU32(in     ) ^ rk[0];
    b9d0:	e1827c07 	orr	r7, r2, r7, lsl #24
    b9d4:	e5d02003 	ldrb	r2, [r0, #3]
    s1 = GETU32(in +  4) ^ rk[1];
    b9d8:	e1a0c80c 	lsl	ip, ip, #16
    s2 = GETU32(in +  8) ^ rk[2];
    b9dc:	e1844c0e 	orr	r4, r4, lr, lsl #24
                 const AES_KEY *key) {
    b9e0:	e58d103c 	str	r1, [sp, #60]	; 0x3c
    s2 = GETU32(in +  8) ^ rk[2];
    b9e4:	e5d0e00b 	ldrb	lr, [r0, #11]
    s3 = GETU32(in + 12) ^ rk[3];
    b9e8:	e1831c05 	orr	r1, r3, r5, lsl #24
    s1 = GETU32(in +  4) ^ rk[1];
    b9ec:	e5d03007 	ldrb	r3, [r0, #7]
    s0 = GETU32(in     ) ^ rk[0];
    b9f0:	e0222007 	eor	r2, r2, r7
    s1 = GETU32(in +  4) ^ rk[1];
    b9f4:	e18ccc06 	orr	ip, ip, r6, lsl #24
    b9f8:	e3017684 	movw	r7, #5764	; 0x1684
    b9fc:	e3407001 	movt	r7, #1
    ba00:	e5d05006 	ldrb	r5, [r0, #6]
    s2 = GETU32(in +  8) ^ rk[2];
    ba04:	e02ee004 	eor	lr, lr, r4
    s0 = GETU32(in     ) ^ rk[0];
    ba08:	e5d06002 	ldrb	r6, [r0, #2]
    s1 = GETU32(in +  4) ^ rk[1];
    ba0c:	e02cc003 	eor	ip, ip, r3
    rk += key->rounds << 2;
#else  /* !FULL_UNROLL */
    /*
     * Nr - 1 full rounds:
     */
    r = key->rounds >> 1;
    ba10:	e59840f0 	ldr	r4, [r8, #240]	; 0xf0
    s3 = GETU32(in + 12) ^ rk[3];
    ba14:	e5d0300f 	ldrb	r3, [r0, #15]
    ba18:	e58d7008 	str	r7, [sp, #8]
    s1 = GETU32(in +  4) ^ rk[1];
    ba1c:	e18cc405 	orr	ip, ip, r5, lsl #8
    s2 = GETU32(in +  8) ^ rk[2];
    ba20:	e5d0700a 	ldrb	r7, [r0, #10]
    s0 = GETU32(in     ) ^ rk[0];
    ba24:	e1826406 	orr	r6, r2, r6, lsl #8
    s3 = GETU32(in + 12) ^ rk[3];
    ba28:	e5d0000e 	ldrb	r0, [r0, #14]
    ba2c:	e0233001 	eor	r3, r3, r1
    s1 = GETU32(in +  4) ^ rk[1];
    ba30:	e5981004 	ldr	r1, [r8, #4]
    s0 = GETU32(in     ) ^ rk[0];
    ba34:	e5985000 	ldr	r5, [r8]
    s2 = GETU32(in +  8) ^ rk[2];
    ba38:	e18e2407 	orr	r2, lr, r7, lsl #8
    r = key->rounds >> 1;
    ba3c:	e1a070c4 	asr	r7, r4, #1
    s3 = GETU32(in + 12) ^ rk[3];
    ba40:	e1833400 	orr	r3, r3, r0, lsl #8
    ba44:	e598400c 	ldr	r4, [r8, #12]
    s2 = GETU32(in +  8) ^ rk[2];
    ba48:	e5980008 	ldr	r0, [r8, #8]
    s1 = GETU32(in +  4) ^ rk[1];
    ba4c:	e02ce001 	eor	lr, ip, r1
    ba50:	e1a0100a 	mov	r1, sl
    r = key->rounds >> 1;
    ba54:	e58d7038 	str	r7, [sp, #56]	; 0x38
    ba58:	e1a0a00b 	mov	sl, fp
    s0 = GETU32(in     ) ^ rk[0];
    ba5c:	e0255006 	eor	r5, r5, r6
    s2 = GETU32(in +  8) ^ rk[2];
    ba60:	e0222000 	eor	r2, r2, r0
    s3 = GETU32(in + 12) ^ rk[3];
    ba64:	e0233004 	eor	r3, r3, r4
    r = key->rounds >> 1;
    ba68:	e58d7010 	str	r7, [sp, #16]
    ba6c:	e1a0b001 	mov	fp, r1
    ba70:	e58d8004 	str	r8, [sp, #4]
    ba74:	e58d900c 	str	r9, [sp, #12]
    ba78:	ea00002f 	b	bb3c <AES_encrypt+0x1c0>
        rk += 8;
        if (--r == 0) {
            break;
        }

        s0 =
    ba7c:	e59dc008 	ldr	ip, [sp, #8]
    ba80:	e79c0104 	ldr	r0, [ip, r4, lsl #2]
    ba84:	e59d400c 	ldr	r4, [sp, #12]
            Te0[(t0 >> 24)       ] ^
            Te1[(t1 >> 16) & 0xff] ^
            Te2[(t2 >>  8) & 0xff] ^
            Te3[(t3      ) & 0xff] ^
            rk[0];
        s1 =
    ba88:	e79cc103 	ldr	ip, [ip, r3, lsl #2]
            Te0[(t1 >> 24)       ] ^
            Te1[(t2 >> 16) & 0xff] ^
            Te2[(t3 >>  8) & 0xff] ^
            Te3[(t0      ) & 0xff] ^
            rk[1];
        s2 =
    ba8c:	e59d3008 	ldr	r3, [sp, #8]
        s0 =
    ba90:	e7945105 	ldr	r5, [r4, r5, lsl #2]
        s1 =
    ba94:	e7944102 	ldr	r4, [r4, r2, lsl #2]
        s2 =
    ba98:	e7932107 	ldr	r2, [r3, r7, lsl #2]
        s0 =
    ba9c:	e0255000 	eor	r5, r5, r0
        s2 =
    baa0:	e59d701c 	ldr	r7, [sp, #28]
        s0 =
    baa4:	e025500e 	eor	r5, r5, lr
            Te0[(t2 >> 24)       ] ^
            Te1[(t3 >> 16) & 0xff] ^
            Te2[(t0 >>  8) & 0xff] ^
            Te3[(t1      ) & 0xff] ^
            rk[2];
        s3 =
    baa8:	e59de020 	ldr	lr, [sp, #32]
        s2 =
    baac:	e59d000c 	ldr	r0, [sp, #12]
        s3 =
    bab0:	e793310e 	ldr	r3, [r3, lr, lsl #2]
        s1 =
    bab4:	e02ce004 	eor	lr, ip, r4
        s3 =
    bab8:	e59dc02c 	ldr	ip, [sp, #44]	; 0x2c
        s2 =
    babc:	e7907107 	ldr	r7, [r0, r7, lsl #2]
        s1 =
    bac0:	e59d4004 	ldr	r4, [sp, #4]
        s3 =
    bac4:	e790010c 	ldr	r0, [r0, ip, lsl #2]
        s2 =
    bac8:	e0222007 	eor	r2, r2, r7
        s1 =
    bacc:	e594c004 	ldr	ip, [r4, #4]
        s2 =
    bad0:	e1a07004 	mov	r7, r4
        s3 =
    bad4:	e0233000 	eor	r3, r3, r0
        s0 =
    bad8:	e79a0106 	ldr	r0, [sl, r6, lsl #2]
        s2 =
    badc:	e5944008 	ldr	r4, [r4, #8]
        s1 =
    bae0:	e02ee00c 	eor	lr, lr, ip
        s0 =
    bae4:	e79b6101 	ldr	r6, [fp, r1, lsl #2]
        s1 =
    bae8:	e79ac109 	ldr	ip, [sl, r9, lsl #2]
        s0 =
    baec:	e0255000 	eor	r5, r5, r0
        s2 =
    baf0:	e59d1018 	ldr	r1, [sp, #24]
    baf4:	e0222004 	eor	r2, r2, r4
        s1 =
    baf8:	e59d0014 	ldr	r0, [sp, #20]
        s0 =
    bafc:	e0255006 	eor	r5, r5, r6
        s3 =
    bb00:	e597700c 	ldr	r7, [r7, #12]
        s1 =
    bb04:	e02ee00c 	eor	lr, lr, ip
        s3 =
    bb08:	e59d4024 	ldr	r4, [sp, #36]	; 0x24
        s1 =
    bb0c:	e79bc100 	ldr	ip, [fp, r0, lsl #2]
        s2 =
    bb10:	e79b0101 	ldr	r0, [fp, r1, lsl #2]
        s3 =
    bb14:	e0233007 	eor	r3, r3, r7
    bb18:	e59d1028 	ldr	r1, [sp, #40]	; 0x28
        s2 =
    bb1c:	e79a9108 	ldr	r9, [sl, r8, lsl #2]
        s1 =
    bb20:	e02ee00c 	eor	lr, lr, ip
        s3 =
    bb24:	e79a7104 	ldr	r7, [sl, r4, lsl #2]
    bb28:	e79b1101 	ldr	r1, [fp, r1, lsl #2]
        s2 =
    bb2c:	e0222009 	eor	r2, r2, r9
        s3 =
    bb30:	e0233007 	eor	r3, r3, r7
        s2 =
    bb34:	e0222000 	eor	r2, r2, r0
        s3 =
    bb38:	e0233001 	eor	r3, r3, r1
        t0 =
    bb3c:	e59d900c 	ldr	r9, [sp, #12]
            Te3[(s3      ) & 0xff] ^
    bb40:	e6ef4073 	uxtb	r4, r3
            Te0[(s3 >> 24)       ] ^
    bb44:	e1a08c23 	lsr	r8, r3, #24
            Te3[(s0      ) & 0xff] ^
    bb48:	e6ef7075 	uxtb	r7, r5
            Te0[(s0 >> 24)       ] ^
    bb4c:	e1a00c25 	lsr	r0, r5, #24
            Te0[(s1 >> 24)       ] ^
    bb50:	e1a01c2e 	lsr	r1, lr, #24
        t0 =
    bb54:	e7999104 	ldr	r9, [r9, r4, lsl #2]
            Te0[(s2 >> 24)       ] ^
    bb58:	e1a06c22 	lsr	r6, r2, #24
            Te0[(s3 >> 24)       ] ^
    bb5c:	e58d8024 	str	r8, [sp, #36]	; 0x24
            Te3[(s2      ) & 0xff] ^
    bb60:	e6efc072 	uxtb	ip, r2
        t0 =
    bb64:	e59d8008 	ldr	r8, [sp, #8]
            Te1[(s1 >> 16) & 0xff] ^
    bb68:	e7e7485e 	ubfx	r4, lr, #16, #8
        t0 =
    bb6c:	e58d9014 	str	r9, [sp, #20]
        t1 =
    bb70:	e59d900c 	ldr	r9, [sp, #12]
        t0 =
    bb74:	e7980100 	ldr	r0, [r8, r0, lsl #2]
        t1 =
    bb78:	e7981101 	ldr	r1, [r8, r1, lsl #2]
            Te1[(s2 >> 16) & 0xff] ^
    bb7c:	e7e78852 	ubfx	r8, r2, #16, #8
        t1 =
    bb80:	e7997107 	ldr	r7, [r9, r7, lsl #2]
            Te2[(s2 >>  8) & 0xff] ^
    bb84:	e7e72452 	ubfx	r2, r2, #8, #8
        t2 =
    bb88:	e59d9008 	ldr	r9, [sp, #8]
            Te1[(s2 >> 16) & 0xff] ^
    bb8c:	e58d8018 	str	r8, [sp, #24]
            Te1[(s3 >> 16) & 0xff] ^
    bb90:	e7e78853 	ubfx	r8, r3, #16, #8
    bb94:	e58d8020 	str	r8, [sp, #32]
        t2 =
    bb98:	e6ef807e 	uxtb	r8, lr
    bb9c:	e7996106 	ldr	r6, [r9, r6, lsl #2]
            Te1[(s0 >> 16) & 0xff] ^
    bba0:	e7e79855 	ubfx	r9, r5, #16, #8
    bba4:	e58d9028 	str	r9, [sp, #40]	; 0x28
        t1 =
    bba8:	e0211007 	eor	r1, r1, r7
        t3 =
    bbac:	e59d900c 	ldr	r9, [sp, #12]
            Te2[(s0 >>  8) & 0xff] ^
    bbb0:	e7e75455 	ubfx	r5, r5, #8, #8
        t0 =
    bbb4:	e79a4104 	ldr	r4, [sl, r4, lsl #2]
            Te2[(s3 >>  8) & 0xff] ^
    bbb8:	e7e73453 	ubfx	r3, r3, #8, #8
            Te2[(s1 >>  8) & 0xff] ^
    bbbc:	e7e7e45e 	ubfx	lr, lr, #8, #8
        t3 =
    bbc0:	e799c10c 	ldr	ip, [r9, ip, lsl #2]
        t2 =
    bbc4:	e7999108 	ldr	r9, [r9, r8, lsl #2]
        t3 =
    bbc8:	e59d8024 	ldr	r8, [sp, #36]	; 0x24
        t2 =
    bbcc:	e58d901c 	str	r9, [sp, #28]
        t3 =
    bbd0:	e59d9008 	ldr	r9, [sp, #8]
        t2 =
    bbd4:	e59d701c 	ldr	r7, [sp, #28]
        t3 =
    bbd8:	e7998108 	ldr	r8, [r9, r8, lsl #2]
        t2 =
    bbdc:	e0266007 	eor	r6, r6, r7
        t0 =
    bbe0:	e59d9014 	ldr	r9, [sp, #20]
        t3 =
    bbe4:	e02cc008 	eor	ip, ip, r8
        t1 =
    bbe8:	e59d8018 	ldr	r8, [sp, #24]
        t0 =
    bbec:	e0200009 	eor	r0, r0, r9
        t1 =
    bbf0:	e79a7108 	ldr	r7, [sl, r8, lsl #2]
        t0 =
    bbf4:	e59d8004 	ldr	r8, [sp, #4]
        t1 =
    bbf8:	e58d7014 	str	r7, [sp, #20]
        t0 =
    bbfc:	e5987010 	ldr	r7, [r8, #16]
        t2 =
    bc00:	e59d8020 	ldr	r8, [sp, #32]
        t0 =
    bc04:	e0200007 	eor	r0, r0, r7
        t2 =
    bc08:	e79a9108 	ldr	r9, [sl, r8, lsl #2]
        t0 =
    bc0c:	e0200004 	eor	r0, r0, r4
        t1 =
    bc10:	e59d8004 	ldr	r8, [sp, #4]
    bc14:	e5988014 	ldr	r8, [r8, #20]
        t3 =
    bc18:	e59d7028 	ldr	r7, [sp, #40]	; 0x28
        t2 =
    bc1c:	e79b5105 	ldr	r5, [fp, r5, lsl #2]
        t1 =
    bc20:	e0211008 	eor	r1, r1, r8
        t2 =
    bc24:	e59d8004 	ldr	r8, [sp, #4]
        t3 =
    bc28:	e79a7107 	ldr	r7, [sl, r7, lsl #2]
        t1 =
    bc2c:	e79b3103 	ldr	r3, [fp, r3, lsl #2]
        t2 =
    bc30:	e5988018 	ldr	r8, [r8, #24]
        t3 =
    bc34:	e79be10e 	ldr	lr, [fp, lr, lsl #2]
        t0 =
    bc38:	e79b2102 	ldr	r2, [fp, r2, lsl #2]
        t2 =
    bc3c:	e0266008 	eor	r6, r6, r8
        t3 =
    bc40:	e59d8004 	ldr	r8, [sp, #4]
        t2 =
    bc44:	e0266009 	eor	r6, r6, r9
    bc48:	e0269005 	eor	r9, r6, r5
        t0 =
    bc4c:	e0200002 	eor	r0, r0, r2
        t3 =
    bc50:	e598801c 	ldr	r8, [r8, #28]
    bc54:	e6ef6079 	uxtb	r6, r9
    bc58:	e1a04c20 	lsr	r4, r0, #24
    bc5c:	e6ef2070 	uxtb	r2, r0
    bc60:	e58d602c 	str	r6, [sp, #44]	; 0x2c
    bc64:	e02cc008 	eor	ip, ip, r8
        if (--r == 0) {
    bc68:	e59d8010 	ldr	r8, [sp, #16]
        t3 =
    bc6c:	e02cc007 	eor	ip, ip, r7
    bc70:	e1a07c29 	lsr	r7, r9, #24
    bc74:	e02cc00e 	eor	ip, ip, lr
        if (--r == 0) {
    bc78:	e2588001 	subs	r8, r8, #1
    bc7c:	e1a06c2c 	lsr	r6, ip, #24
    bc80:	e58d8010 	str	r8, [sp, #16]
    bc84:	e6ef507c 	uxtb	r5, ip
        t1 =
    bc88:	e59d8014 	ldr	r8, [sp, #20]
    bc8c:	e58d6020 	str	r6, [sp, #32]
    bc90:	e7e76450 	ubfx	r6, r0, #8, #8
    bc94:	e7e70850 	ubfx	r0, r0, #16, #8
    bc98:	e58d6018 	str	r6, [sp, #24]
    bc9c:	e0211008 	eor	r1, r1, r8
    bca0:	e59d8004 	ldr	r8, [sp, #4]
    bca4:	e0211003 	eor	r1, r1, r3
    bca8:	e58d0024 	str	r0, [sp, #36]	; 0x24
    bcac:	e6efe071 	uxtb	lr, r1
    bcb0:	e7e7045c 	ubfx	r0, ip, #8, #8
    bcb4:	e1a03c21 	lsr	r3, r1, #24
    bcb8:	e7e76851 	ubfx	r6, r1, #16, #8
    bcbc:	e58de01c 	str	lr, [sp, #28]
    bcc0:	e7e71451 	ubfx	r1, r1, #8, #8
    bcc4:	e5b8e020 	ldr	lr, [r8, #32]!
    bcc8:	e58d0014 	str	r0, [sp, #20]
    bccc:	e7e7085c 	ubfx	r0, ip, #16, #8
    bcd0:	e58d1028 	str	r1, [sp, #40]	; 0x28
    bcd4:	e7e71459 	ubfx	r1, r9, #8, #8
    bcd8:	e58d8004 	str	r8, [sp, #4]
    bcdc:	e7e79859 	ubfx	r9, r9, #16, #8
    bce0:	e1a08000 	mov	r8, r0
    bce4:	e58d0030 	str	r0, [sp, #48]	; 0x30
        if (--r == 0) {
    bce8:	1affff63 	bne	ba7c <AES_encrypt+0x100>
     * map cipher state to byte array block:
     */
    s0 =
        (Te2[(t0 >> 24)       ] & 0xff000000) ^
        (Te3[(t1 >> 16) & 0xff] & 0x00ff0000) ^
        (Te0[(t2 >>  8) & 0xff] & 0x0000ff00) ^
    bcec:	e59d8008 	ldr	r8, [sp, #8]
    bcf0:	e1a0c001 	mov	ip, r1
    bcf4:	e1a0000b 	mov	r0, fp
    bcf8:	e1a01004 	mov	r1, r4
    bcfc:	e1a0b00a 	mov	fp, sl
    bd00:	e59d4038 	ldr	r4, [sp, #56]	; 0x38
    bd04:	e1a0a000 	mov	sl, r0
    bd08:	e798010c 	ldr	r0, [r8, ip, lsl #2]
    bd0c:	e59dc034 	ldr	ip, [sp, #52]	; 0x34
    bd10:	e58d9004 	str	r9, [sp, #4]
    bd14:	e59d900c 	ldr	r9, [sp, #12]
    bd18:	e2000cff 	and	r0, r0, #65280	; 0xff00
    bd1c:	e58d7010 	str	r7, [sp, #16]
    bd20:	e08c7284 	add	r7, ip, r4, lsl #5
        (Te1[(t3      ) & 0xff] & 0x000000ff) ^
    bd24:	e7dbc105 	ldrb	ip, [fp, r5, lsl #2]
        (Te3[(t1 >> 16) & 0xff] & 0x00ff0000) ^
    bd28:	e7994106 	ldr	r4, [r9, r6, lsl #2]
        (Te2[(t0 >> 24)       ] & 0xff000000) ^
    bd2c:	e79a1101 	ldr	r1, [sl, r1, lsl #2]
    s0 =
    bd30:	e180000c 	orr	r0, r0, ip
        rk[0];
    PUTU32(out     , s0);
    s1 =
        (Te2[(t1 >> 24)       ] & 0xff000000) ^
        (Te3[(t2 >> 16) & 0xff] & 0x00ff0000) ^
        (Te0[(t3 >>  8) & 0xff] & 0x0000ff00) ^
    bd34:	e59dc014 	ldr	ip, [sp, #20]
    s0 =
    bd38:	e020000e 	eor	r0, r0, lr
        (Te2[(t1 >> 24)       ] & 0xff000000) ^
    bd3c:	e79ae103 	ldr	lr, [sl, r3, lsl #2]
        (Te3[(t2 >> 16) & 0xff] & 0x00ff0000) ^
    bd40:	e59d3004 	ldr	r3, [sp, #4]
        (Te3[(t1 >> 16) & 0xff] & 0x00ff0000) ^
    bd44:	e20448ff 	and	r4, r4, #16711680	; 0xff0000
        (Te2[(t0 >> 24)       ] & 0xff000000) ^
    bd48:	e20114ff 	and	r1, r1, #-16777216	; 0xff000000
    PUTU32(out     , s0);
    bd4c:	e59d603c 	ldr	r6, [sp, #60]	; 0x3c
        (Te2[(t0 >> 24)       ] & 0xff000000) ^
    bd50:	e1811004 	orr	r1, r1, r4
        (Te0[(t3 >>  8) & 0xff] & 0x0000ff00) ^
    bd54:	e798510c 	ldr	r5, [r8, ip, lsl #2]
    s0 =
    bd58:	e0200001 	eor	r0, r0, r1
        (Te3[(t2 >> 16) & 0xff] & 0x00ff0000) ^
    bd5c:	e7994103 	ldr	r4, [r9, r3, lsl #2]
        (Te1[(t0      ) & 0xff] & 0x000000ff) ^
    bd60:	e7dbc102 	ldrb	ip, [fp, r2, lsl #2]
    PUTU32(out     , s0);
    bd64:	e1a01c20 	lsr	r1, r0, #24
    bd68:	e1a02820 	lsr	r2, r0, #16
    bd6c:	e1a03420 	lsr	r3, r0, #8
    bd70:	e5c61000 	strb	r1, [r6]
    bd74:	e5c62001 	strb	r2, [r6, #1]
        (Te0[(t3 >>  8) & 0xff] & 0x0000ff00) ^
    bd78:	e2051cff 	and	r1, r5, #65280	; 0xff00
    PUTU32(out     , s0);
    bd7c:	e5c63002 	strb	r3, [r6, #2]
        (Te2[(t1 >> 24)       ] & 0xff000000) ^
    bd80:	e20e24ff 	and	r2, lr, #-16777216	; 0xff000000
        (Te3[(t2 >> 16) & 0xff] & 0x00ff0000) ^
    bd84:	e20438ff 	and	r3, r4, #16711680	; 0xff0000
    PUTU32(out     , s0);
    bd88:	e5c60003 	strb	r0, [r6, #3]
    s1 =
    bd8c:	e181100c 	orr	r1, r1, ip
        (Te2[(t1 >> 24)       ] & 0xff000000) ^
    bd90:	e1820003 	orr	r0, r2, r3
    s1 =
    bd94:	e597c004 	ldr	ip, [r7, #4]
    PUTU32(out +  4, s1);
    s2 =
        (Te2[(t2 >> 24)       ] & 0xff000000) ^
        (Te3[(t3 >> 16) & 0xff] & 0x00ff0000) ^
        (Te0[(t0 >>  8) & 0xff] & 0x0000ff00) ^
        (Te1[(t1      ) & 0xff] & 0x000000ff) ^
    bd98:	e59d201c 	ldr	r2, [sp, #28]
        (Te0[(t0 >>  8) & 0xff] & 0x0000ff00) ^
    bd9c:	e59d3018 	ldr	r3, [sp, #24]
        (Te1[(t1      ) & 0xff] & 0x000000ff) ^
    bda0:	e7db5102 	ldrb	r5, [fp, r2, lsl #2]
    s1 =
    bda4:	e021200c 	eor	r2, r1, ip
        (Te2[(t2 >> 24)       ] & 0xff000000) ^
    bda8:	e59d1010 	ldr	r1, [sp, #16]
    s1 =
    bdac:	e0222000 	eor	r2, r2, r0
        (Te0[(t0 >>  8) & 0xff] & 0x0000ff00) ^
    bdb0:	e7983103 	ldr	r3, [r8, r3, lsl #2]
    PUTU32(out +  4, s1);
    bdb4:	e1a04c22 	lsr	r4, r2, #24
    bdb8:	e1a0e822 	lsr	lr, r2, #16
    bdbc:	e1a00422 	lsr	r0, r2, #8
        (Te2[(t2 >> 24)       ] & 0xff000000) ^
    bdc0:	e79ac101 	ldr	ip, [sl, r1, lsl #2]
        (Te3[(t3 >> 16) & 0xff] & 0x00ff0000) ^
    bdc4:	e59d1030 	ldr	r1, [sp, #48]	; 0x30
        (Te0[(t0 >>  8) & 0xff] & 0x0000ff00) ^
    bdc8:	e2033cff 	and	r3, r3, #65280	; 0xff00
    PUTU32(out +  4, s1);
    bdcc:	e5c62007 	strb	r2, [r6, #7]
    s2 =
    bdd0:	e1835005 	orr	r5, r3, r5
    PUTU32(out +  4, s1);
    bdd4:	e5c64004 	strb	r4, [r6, #4]
        (Te2[(t2 >> 24)       ] & 0xff000000) ^
    bdd8:	e20cc4ff 	and	ip, ip, #-16777216	; 0xff000000
        (Te3[(t3 >> 16) & 0xff] & 0x00ff0000) ^
    bddc:	e7991101 	ldr	r1, [r9, r1, lsl #2]
    PUTU32(out +  4, s1);
    bde0:	e5c6e005 	strb	lr, [r6, #5]
    bde4:	e5c60006 	strb	r0, [r6, #6]
    s2 =
    bde8:	e5972008 	ldr	r2, [r7, #8]
        (Te3[(t3 >> 16) & 0xff] & 0x00ff0000) ^
    bdec:	e20118ff 	and	r1, r1, #16711680	; 0xff0000
        rk[2];
    PUTU32(out +  8, s2);
    s3 =
        (Te2[(t3 >> 24)       ] & 0xff000000) ^
        (Te3[(t0 >> 16) & 0xff] & 0x00ff0000) ^
        (Te0[(t1 >>  8) & 0xff] & 0x0000ff00) ^
    bdf0:	e59d3028 	ldr	r3, [sp, #40]	; 0x28
        (Te2[(t2 >> 24)       ] & 0xff000000) ^
    bdf4:	e18c1001 	orr	r1, ip, r1
        (Te1[(t2      ) & 0xff] & 0x000000ff) ^
    bdf8:	e59d002c 	ldr	r0, [sp, #44]	; 0x2c
    s2 =
    bdfc:	e0255002 	eor	r5, r5, r2
        (Te2[(t3 >> 24)       ] & 0xff000000) ^
    be00:	e59d2020 	ldr	r2, [sp, #32]
    s2 =
    be04:	e0255001 	eor	r5, r5, r1
        (Te0[(t1 >>  8) & 0xff] & 0x0000ff00) ^
    be08:	e7983103 	ldr	r3, [r8, r3, lsl #2]
        (Te3[(t0 >> 16) & 0xff] & 0x00ff0000) ^
    be0c:	e59d1024 	ldr	r1, [sp, #36]	; 0x24
    PUTU32(out +  8, s2);
    be10:	e1a04c25 	lsr	r4, r5, #24
        (Te1[(t2      ) & 0xff] & 0x000000ff) ^
    be14:	e7db0100 	ldrb	r0, [fp, r0, lsl #2]
    PUTU32(out +  8, s2);
    be18:	e1a0e825 	lsr	lr, r5, #16
    be1c:	e1a0c425 	lsr	ip, r5, #8
        (Te2[(t3 >> 24)       ] & 0xff000000) ^
    be20:	e79a2102 	ldr	r2, [sl, r2, lsl #2]
        (Te3[(t0 >> 16) & 0xff] & 0x00ff0000) ^
    be24:	e7991101 	ldr	r1, [r9, r1, lsl #2]
        (Te0[(t1 >>  8) & 0xff] & 0x0000ff00) ^
    be28:	e2033cff 	and	r3, r3, #65280	; 0xff00
    PUTU32(out +  8, s2);
    be2c:	e5c6500b 	strb	r5, [r6, #11]
    s3 =
    be30:	e1833000 	orr	r3, r3, r0
    PUTU32(out +  8, s2);
    be34:	e5c64008 	strb	r4, [r6, #8]
        (Te2[(t3 >> 24)       ] & 0xff000000) ^
    be38:	e20224ff 	and	r2, r2, #-16777216	; 0xff000000
    PUTU32(out +  8, s2);
    be3c:	e5c6e009 	strb	lr, [r6, #9]
        (Te3[(t0 >> 16) & 0xff] & 0x00ff0000) ^
    be40:	e20118ff 	and	r1, r1, #16711680	; 0xff0000
    PUTU32(out +  8, s2);
    be44:	e5c6c00a 	strb	ip, [r6, #10]
        (Te2[(t3 >> 24)       ] & 0xff000000) ^
    be48:	e1822001 	orr	r2, r2, r1
    s3 =
    be4c:	e597000c 	ldr	r0, [r7, #12]
    be50:	e0233000 	eor	r3, r3, r0
    be54:	e0233002 	eor	r3, r3, r2
        rk[3];
    PUTU32(out + 12, s3);
    be58:	e1a00c23 	lsr	r0, r3, #24
    be5c:	e1a01823 	lsr	r1, r3, #16
    be60:	e1a02423 	lsr	r2, r3, #8
    be64:	e5c6300f 	strb	r3, [r6, #15]
    be68:	e5c6000c 	strb	r0, [r6, #12]
    be6c:	e5c6100d 	strb	r1, [r6, #13]
    be70:	e5c6200e 	strb	r2, [r6, #14]
}
    be74:	e28dd044 	add	sp, sp, #68	; 0x44
    be78:	e8bd8ff0 	pop	{r4, r5, r6, r7, r8, r9, sl, fp, pc}

0000be7c <AES_decrypt>:
 * Decrypt a single block
 * in and out can overlap
 */
void AES_decrypt(const unsigned char *in, unsigned char *out,
                 const AES_KEY *key)
{
    be7c:	e92d4ff0 	push	{r4, r5, r6, r7, r8, r9, sl, fp, lr}
    be80:	e24dd03c 	sub	sp, sp, #60	; 0x3c
     * and add initial round key:
     */
    s0 = GETU32(in     ) ^ rk[0];
    s1 = GETU32(in +  4) ^ rk[1];
    s2 = GETU32(in +  8) ^ rk[2];
    s3 = GETU32(in + 12) ^ rk[3];
    be84:	e5d0300d 	ldrb	r3, [r0, #13]
    be88:	e3008584 	movw	r8, #1412	; 0x584
    be8c:	e3408001 	movt	r8, #1
    be90:	e301b184 	movw	fp, #4484	; 0x1184
    s1 = GETU32(in +  4) ^ rk[1];
    be94:	e5d0c005 	ldrb	ip, [r0, #5]
    be98:	e300a984 	movw	sl, #2436	; 0x984
    s3 = GETU32(in + 12) ^ rk[3];
    be9c:	e5d0500c 	ldrb	r5, [r0, #12]
    bea0:	e3009d84 	movw	r9, #3460	; 0xd84
{
    bea4:	e58d202c 	str	r2, [sp, #44]	; 0x2c
    s3 = GETU32(in + 12) ^ rk[3];
    bea8:	e1a03803 	lsl	r3, r3, #16
    s1 = GETU32(in +  4) ^ rk[1];
    beac:	e5d06004 	ldrb	r6, [r0, #4]
    beb0:	e340a001 	movt	sl, #1
    s0 = GETU32(in     ) ^ rk[0];
    beb4:	e5d02001 	ldrb	r2, [r0, #1]
    s1 = GETU32(in +  4) ^ rk[1];
    beb8:	e1a0c80c 	lsl	ip, ip, #16
    s2 = GETU32(in +  8) ^ rk[2];
    bebc:	e5d04009 	ldrb	r4, [r0, #9]
    bec0:	e3409001 	movt	r9, #1
    s0 = GETU32(in     ) ^ rk[0];
    bec4:	e5d07000 	ldrb	r7, [r0]
    bec8:	e340b001 	movt	fp, #1
    s2 = GETU32(in +  8) ^ rk[2];
    becc:	e5d0e008 	ldrb	lr, [r0, #8]
    s1 = GETU32(in +  4) ^ rk[1];
    bed0:	e18ccc06 	orr	ip, ip, r6, lsl #24
{
    bed4:	e58d1034 	str	r1, [sp, #52]	; 0x34
    s3 = GETU32(in + 12) ^ rk[3];
    bed8:	e1831c05 	orr	r1, r3, r5, lsl #24
    s1 = GETU32(in +  4) ^ rk[1];
    bedc:	e5d03007 	ldrb	r3, [r0, #7]
    s0 = GETU32(in     ) ^ rk[0];
    bee0:	e1a02802 	lsl	r2, r2, #16
    s2 = GETU32(in +  8) ^ rk[2];
    bee4:	e1a04804 	lsl	r4, r4, #16
    s1 = GETU32(in +  4) ^ rk[1];
    bee8:	e5d05006 	ldrb	r5, [r0, #6]
    s0 = GETU32(in     ) ^ rk[0];
    beec:	e1822c07 	orr	r2, r2, r7, lsl #24
    bef0:	e5d07003 	ldrb	r7, [r0, #3]
    s2 = GETU32(in +  8) ^ rk[2];
    bef4:	e1844c0e 	orr	r4, r4, lr, lsl #24
    s1 = GETU32(in +  4) ^ rk[1];
    bef8:	e02cc003 	eor	ip, ip, r3
    s2 = GETU32(in +  8) ^ rk[2];
    befc:	e5d0e00b 	ldrb	lr, [r0, #11]
    rk += key->rounds << 2;
#else  /* !FULL_UNROLL */
    /*
     * Nr - 1 full rounds:
     */
    r = key->rounds >> 1;
    bf00:	e59d302c 	ldr	r3, [sp, #44]	; 0x2c
    s0 = GETU32(in     ) ^ rk[0];
    bf04:	e0222007 	eor	r2, r2, r7
    bf08:	e58d8000 	str	r8, [sp]
    s1 = GETU32(in +  4) ^ rk[1];
    bf0c:	e18cc405 	orr	ip, ip, r5, lsl #8
    s3 = GETU32(in + 12) ^ rk[3];
    bf10:	e5d0800f 	ldrb	r8, [r0, #15]
    s2 = GETU32(in +  8) ^ rk[2];
    bf14:	e02ee004 	eor	lr, lr, r4
    bf18:	e5d0700a 	ldrb	r7, [r0, #10]
    r = key->rounds >> 1;
    bf1c:	e59340f0 	ldr	r4, [r3, #240]	; 0xf0
    s0 = GETU32(in     ) ^ rk[0];
    bf20:	e5d06002 	ldrb	r6, [r0, #2]
    s3 = GETU32(in + 12) ^ rk[3];
    bf24:	e5d0000e 	ldrb	r0, [r0, #14]
    s0 = GETU32(in     ) ^ rk[0];
    bf28:	e5935000 	ldr	r5, [r3]
    s3 = GETU32(in + 12) ^ rk[3];
    bf2c:	e0213008 	eor	r3, r1, r8
    s1 = GETU32(in +  4) ^ rk[1];
    bf30:	e59d802c 	ldr	r8, [sp, #44]	; 0x2c
    s0 = GETU32(in     ) ^ rk[0];
    bf34:	e1826406 	orr	r6, r2, r6, lsl #8
    s2 = GETU32(in +  8) ^ rk[2];
    bf38:	e18e2407 	orr	r2, lr, r7, lsl #8
    s3 = GETU32(in + 12) ^ rk[3];
    bf3c:	e1833400 	orr	r3, r3, r0, lsl #8
    r = key->rounds >> 1;
    bf40:	e1a070c4 	asr	r7, r4, #1
    s1 = GETU32(in +  4) ^ rk[1];
    bf44:	e5981004 	ldr	r1, [r8, #4]
    s2 = GETU32(in +  8) ^ rk[2];
    bf48:	e5980008 	ldr	r0, [r8, #8]
    s0 = GETU32(in     ) ^ rk[0];
    bf4c:	e0255006 	eor	r5, r5, r6
    s3 = GETU32(in + 12) ^ rk[3];
    bf50:	e598400c 	ldr	r4, [r8, #12]
    bf54:	e58d9004 	str	r9, [sp, #4]
    s1 = GETU32(in +  4) ^ rk[1];
    bf58:	e02ce001 	eor	lr, ip, r1
    bf5c:	e1a0900a 	mov	r9, sl
    r = key->rounds >> 1;
    bf60:	e58d7030 	str	r7, [sp, #48]	; 0x30
    s2 = GETU32(in +  8) ^ rk[2];
    bf64:	e0222000 	eor	r2, r2, r0
    s3 = GETU32(in + 12) ^ rk[3];
    bf68:	e0233004 	eor	r3, r3, r4
    r = key->rounds >> 1;
    bf6c:	e58d7008 	str	r7, [sp, #8]
    bf70:	e1a0a00b 	mov	sl, fp
    bf74:	ea00002f 	b	c038 <AES_decrypt+0x1bc>
        rk += 8;
        if (--r == 0) {
            break;
        }

        s0 =
    bf78:	e59de000 	ldr	lr, [sp]
    bf7c:	e79a010c 	ldr	r0, [sl, ip, lsl #2]
            Td0[(t0 >> 24)       ] ^
            Td1[(t3 >> 16) & 0xff] ^
            Td2[(t2 >>  8) & 0xff] ^
            Td3[(t1      ) & 0xff] ^
            rk[0];
        s1 =
    bf80:	e79a1101 	ldr	r1, [sl, r1, lsl #2]
        s0 =
    bf84:	e79e5105 	ldr	r5, [lr, r5, lsl #2]
        s1 =
    bf88:	e1a0c00e 	mov	ip, lr
    bf8c:	e79ee102 	ldr	lr, [lr, r2, lsl #2]
            Td0[(t1 >> 24)       ] ^
            Td1[(t0 >> 16) & 0xff] ^
            Td2[(t3 >>  8) & 0xff] ^
            Td3[(t2      ) & 0xff] ^
            rk[1];
        s2 =
    bf90:	e79c210b 	ldr	r2, [ip, fp, lsl #2]
        s0 =
    bf94:	e0255000 	eor	r5, r5, r0
        s2 =
    bf98:	e79ac103 	ldr	ip, [sl, r3, lsl #2]
        s0 =
    bf9c:	e0255006 	eor	r5, r5, r6
        s1 =
    bfa0:	e02ee001 	eor	lr, lr, r1
            Td0[(t2 >> 24)       ] ^
            Td1[(t1 >> 16) & 0xff] ^
            Td2[(t0 >>  8) & 0xff] ^
            Td3[(t3      ) & 0xff] ^
            rk[2];
        s3 =
    bfa4:	e59d6020 	ldr	r6, [sp, #32]
    bfa8:	e59d3000 	ldr	r3, [sp]
        s2 =
    bfac:	e022200c 	eor	r2, r2, ip
        s3 =
    bfb0:	e59d1028 	ldr	r1, [sp, #40]	; 0x28
        s1 =
    bfb4:	e5980004 	ldr	r0, [r8, #4]
        s3 =
    bfb8:	e7933106 	ldr	r3, [r3, r6, lsl #2]
    bfbc:	e79a1101 	ldr	r1, [sl, r1, lsl #2]
        s2 =
    bfc0:	e598c008 	ldr	ip, [r8, #8]
        s1 =
    bfc4:	e02ee000 	eor	lr, lr, r0
        s0 =
    bfc8:	e7996104 	ldr	r6, [r9, r4, lsl #2]
        s3 =
    bfcc:	e0233001 	eor	r3, r3, r1
        s1 =
    bfd0:	e59d1010 	ldr	r1, [sp, #16]
        s2 =
    bfd4:	e59d0018 	ldr	r0, [sp, #24]
    bfd8:	e022200c 	eor	r2, r2, ip
        s0 =
    bfdc:	e59dc004 	ldr	ip, [sp, #4]
    bfe0:	e0255006 	eor	r5, r5, r6
        s1 =
    bfe4:	e7991101 	ldr	r1, [r9, r1, lsl #2]
        s2 =
    bfe8:	e7990100 	ldr	r0, [r9, r0, lsl #2]
    bfec:	e59d601c 	ldr	r6, [sp, #28]
        s0 =
    bff0:	e59d400c 	ldr	r4, [sp, #12]
        s1 =
    bff4:	e02ee001 	eor	lr, lr, r1
    bff8:	e1a0100c 	mov	r1, ip
        s2 =
    bffc:	e0222000 	eor	r2, r2, r0
    c000:	e7910106 	ldr	r0, [r1, r6, lsl #2]
        s0 =
    c004:	e79c4104 	ldr	r4, [ip, r4, lsl #2]
        s3 =
    c008:	e59d6024 	ldr	r6, [sp, #36]	; 0x24
        s1 =
    c00c:	e59dc014 	ldr	ip, [sp, #20]
        s2 =
    c010:	e0222000 	eor	r2, r2, r0
        s3 =
    c014:	e598b00c 	ldr	fp, [r8, #12]
        s0 =
    c018:	e0255004 	eor	r5, r5, r4
        s3 =
    c01c:	e7997107 	ldr	r7, [r9, r7, lsl #2]
        s1 =
    c020:	e791c10c 	ldr	ip, [r1, ip, lsl #2]
        s3 =
    c024:	e7911106 	ldr	r1, [r1, r6, lsl #2]
    c028:	e023300b 	eor	r3, r3, fp
    c02c:	e0233007 	eor	r3, r3, r7
        s1 =
    c030:	e02ee00c 	eor	lr, lr, ip
        s3 =
    c034:	e0233001 	eor	r3, r3, r1
        t0 =
    c038:	e59db000 	ldr	fp, [sp]
            Td0[(s0 >> 24)       ] ^
    c03c:	e1a0cc25 	lsr	ip, r5, #24
            Td0[(s1 >> 24)       ] ^
    c040:	e1a00c2e 	lsr	r0, lr, #24
            Td3[(s1      ) & 0xff] ^
    c044:	e6ef407e 	uxtb	r4, lr
            Td0[(s2 >> 24)       ] ^
    c048:	e1a06c22 	lsr	r6, r2, #24
            Td3[(s2      ) & 0xff] ^
    c04c:	e6ef7072 	uxtb	r7, r2
        t0 =
    c050:	e79bc10c 	ldr	ip, [fp, ip, lsl #2]
            Td3[(s3      ) & 0xff] ^
    c054:	e6ef1073 	uxtb	r1, r3
        t1 =
    c058:	e79b0100 	ldr	r0, [fp, r0, lsl #2]
            Td1[(s0 >> 16) & 0xff] ^
    c05c:	e7e7b855 	ubfx	fp, r5, #16, #8
    c060:	e58db014 	str	fp, [sp, #20]
            Td1[(s2 >> 16) & 0xff] ^
    c064:	e7e7b852 	ubfx	fp, r2, #16, #8
    c068:	e58db020 	str	fp, [sp, #32]
            Td2[(s2 >>  8) & 0xff] ^
    c06c:	e7e72452 	ubfx	r2, r2, #8, #8
        t2 =
    c070:	e59db000 	ldr	fp, [sp]
        t0 =
    c074:	e79a4104 	ldr	r4, [sl, r4, lsl #2]
            Td2[(s2 >>  8) & 0xff] ^
    c078:	e58d2010 	str	r2, [sp, #16]
        t2 =
    c07c:	e79b6106 	ldr	r6, [fp, r6, lsl #2]
            Td1[(s1 >> 16) & 0xff] ^
    c080:	e7e7b85e 	ubfx	fp, lr, #16, #8
        t3 =
    c084:	e59d2000 	ldr	r2, [sp]
            Td2[(s1 >>  8) & 0xff] ^
    c088:	e7e7e45e 	ubfx	lr, lr, #8, #8
            Td1[(s1 >> 16) & 0xff] ^
    c08c:	e58db018 	str	fp, [sp, #24]
        t3 =
    c090:	e1a0bc23 	lsr	fp, r3, #24
        t1 =
    c094:	e79a7107 	ldr	r7, [sl, r7, lsl #2]
        t0 =
    c098:	e58d400c 	str	r4, [sp, #12]
            Td1[(s3 >> 16) & 0xff] ^
    c09c:	e7e74853 	ubfx	r4, r3, #16, #8
        t3 =
    c0a0:	e792210b 	ldr	r2, [r2, fp, lsl #2]
            Td2[(s3 >>  8) & 0xff] ^
    c0a4:	e7e7b453 	ubfx	fp, r3, #8, #8
        t3 =
    c0a8:	e6ef3075 	uxtb	r3, r5
            Td2[(s0 >>  8) & 0xff] ^
    c0ac:	e7e75455 	ubfx	r5, r5, #8, #8
    c0b0:	e58d501c 	str	r5, [sp, #28]
        t1 =
    c0b4:	e0200007 	eor	r0, r0, r7
        t0 =
    c0b8:	e59d500c 	ldr	r5, [sp, #12]
    c0bc:	e5987010 	ldr	r7, [r8, #16]
        t3 =
    c0c0:	e79a3103 	ldr	r3, [sl, r3, lsl #2]
        t0 =
    c0c4:	e02cc005 	eor	ip, ip, r5
        t2 =
    c0c8:	e79a1101 	ldr	r1, [sl, r1, lsl #2]
    c0cc:	e59d5018 	ldr	r5, [sp, #24]
        t0 =
    c0d0:	e02cc007 	eor	ip, ip, r7
        t3 =
    c0d4:	e0222003 	eor	r2, r2, r3
        t1 =
    c0d8:	e5987014 	ldr	r7, [r8, #20]
    c0dc:	e59d3014 	ldr	r3, [sp, #20]
        t2 =
    c0e0:	e0211006 	eor	r1, r1, r6
        t0 =
    c0e4:	e7994104 	ldr	r4, [r9, r4, lsl #2]
        t1 =
    c0e8:	e0200007 	eor	r0, r0, r7
        t2 =
    c0ec:	e7997105 	ldr	r7, [r9, r5, lsl #2]
        t1 =
    c0f0:	e7996103 	ldr	r6, [r9, r3, lsl #2]
        t2 =
    c0f4:	e5985018 	ldr	r5, [r8, #24]
        t0 =
    c0f8:	e02cc004 	eor	ip, ip, r4
        t3 =
    c0fc:	e59d3020 	ldr	r3, [sp, #32]
        t1 =
    c100:	e58d600c 	str	r6, [sp, #12]
        t2 =
    c104:	e0211005 	eor	r1, r1, r5
        t0 =
    c108:	e59d6004 	ldr	r6, [sp, #4]
    c10c:	e59d5010 	ldr	r5, [sp, #16]
        t2 =
    c110:	e0211007 	eor	r1, r1, r7
        t3 =
    c114:	e7993103 	ldr	r3, [r9, r3, lsl #2]
        t0 =
    c118:	e7966105 	ldr	r6, [r6, r5, lsl #2]
        t3 =
    c11c:	e598501c 	ldr	r5, [r8, #28]
        t0 =
    c120:	e02cc006 	eor	ip, ip, r6
        t3 =
    c124:	e0222005 	eor	r2, r2, r5
        t1 =
    c128:	e59d5004 	ldr	r5, [sp, #4]
        t3 =
    c12c:	e0222003 	eor	r2, r2, r3
    c130:	e7e7385c 	ubfx	r3, ip, #16, #8
    c134:	e7e7645c 	ubfx	r6, ip, #8, #8
    c138:	e58d3010 	str	r3, [sp, #16]
        t1 =
    c13c:	e795b10b 	ldr	fp, [r5, fp, lsl #2]
    c140:	e6ef307c 	uxtb	r3, ip
        if (--r == 0) {
    c144:	e59d5008 	ldr	r5, [sp, #8]
    c148:	e58d3028 	str	r3, [sp, #40]	; 0x28
    c14c:	e2555001 	subs	r5, r5, #1
    c150:	e58d5008 	str	r5, [sp, #8]
        t3 =
    c154:	e59d5004 	ldr	r5, [sp, #4]
        t2 =
    c158:	e1a04005 	mov	r4, r5
        t3 =
    c15c:	e795e10e 	ldr	lr, [r5, lr, lsl #2]
        t2 =
    c160:	e59d501c 	ldr	r5, [sp, #28]
    c164:	e58d601c 	str	r6, [sp, #28]
        t3 =
    c168:	e02ee002 	eor	lr, lr, r2
        t2 =
    c16c:	e7945105 	ldr	r5, [r4, r5, lsl #2]
    c170:	e1a06c2e 	lsr	r6, lr, #24
        t1 =
    c174:	e59d400c 	ldr	r4, [sp, #12]
    c178:	e6ef307e 	uxtb	r3, lr
    c17c:	e58d6020 	str	r6, [sp, #32]
        t2 =
    c180:	e0217005 	eor	r7, r1, r5
    c184:	e1a05c2c 	lsr	r5, ip, #24
        t1 =
    c188:	e0200004 	eor	r0, r0, r4
    c18c:	e6ef1077 	uxtb	r1, r7
    c190:	e020000b 	eor	r0, r0, fp
    c194:	e5b86020 	ldr	r6, [r8, #32]!
    c198:	e7e74850 	ubfx	r4, r0, #16, #8
    c19c:	e6efc070 	uxtb	ip, r0
    c1a0:	e1a02c20 	lsr	r2, r0, #24
    c1a4:	e7e70450 	ubfx	r0, r0, #8, #8
    c1a8:	e58d4018 	str	r4, [sp, #24]
    c1ac:	e7e7485e 	ubfx	r4, lr, #16, #8
    c1b0:	e58d0024 	str	r0, [sp, #36]	; 0x24
    c1b4:	e7e7e45e 	ubfx	lr, lr, #8, #8
    c1b8:	e7e70457 	ubfx	r0, r7, #8, #8
    c1bc:	e1a0bc27 	lsr	fp, r7, #24
    c1c0:	e58d000c 	str	r0, [sp, #12]
    c1c4:	e7e77857 	ubfx	r7, r7, #16, #8
    c1c8:	e58de014 	str	lr, [sp, #20]
        if (--r == 0) {
    c1cc:	1affff69 	bne	bf78 <AES_decrypt+0xfc>
    /*
     * apply last round and
     * map cipher state to byte array block:
     */
    s0 =
        ((u32)Td4[(t0 >> 24)       ] << 24) ^
    c1d0:	e301e584 	movw	lr, #5508	; 0x1584
    c1d4:	e1cd82dc 	ldrd	r8, [sp, #44]	; 0x2c
    c1d8:	e340e001 	movt	lr, #1
    c1dc:	e1a00005 	mov	r0, r5
        ((u32)Td4[(t3 >> 16) & 0xff] << 16) ^
        ((u32)Td4[(t2 >>  8) & 0xff] <<  8) ^
        ((u32)Td4[(t1      ) & 0xff])       ^
    c1e0:	e7dec00c 	ldrb	ip, [lr, ip]
    c1e4:	e1a0500b 	mov	r5, fp
        ((u32)Td4[(t0 >> 24)       ] << 24) ^
    c1e8:	e7de0000 	ldrb	r0, [lr, r0]
        ((u32)Td4[(t3 >> 16) & 0xff] << 16) ^
    c1ec:	e7de4004 	ldrb	r4, [lr, r4]
    c1f0:	e0888289 	add	r8, r8, r9, lsl #5
    s0 =
    c1f4:	e026600c 	eor	r6, r6, ip
        ((u32)Td4[(t2 >>  8) & 0xff] <<  8) ^
    c1f8:	e59dc00c 	ldr	ip, [sp, #12]
    c1fc:	e58d8000 	str	r8, [sp]
    s0 =
    c200:	e0266c00 	eor	r6, r6, r0, lsl #24
        rk[0];
    PUTU32(out     , s0);
    s1 =
        ((u32)Td4[(t1 >> 24)       ] << 24) ^
        ((u32)Td4[(t0 >> 16) & 0xff] << 16) ^
    c204:	e59d0010 	ldr	r0, [sp, #16]
        ((u32)Td4[(t2 >>  8) & 0xff] <<  8) ^
    c208:	e7de800c 	ldrb	r8, [lr, ip]
    s0 =
    c20c:	e0266804 	eor	r6, r6, r4, lsl #16
    PUTU32(out     , s0);
    c210:	e59da034 	ldr	sl, [sp, #52]	; 0x34
        ((u32)Td4[(t0 >> 16) & 0xff] << 16) ^
    c214:	e7deb000 	ldrb	fp, [lr, r0]
        ((u32)Td4[(t3 >>  8) & 0xff] <<  8) ^
        ((u32)Td4[(t2      ) & 0xff])       ^
    c218:	e7de1001 	ldrb	r1, [lr, r1]
        ((u32)Td4[(t3 >>  8) & 0xff] <<  8) ^
    c21c:	e59d0014 	ldr	r0, [sp, #20]
    s0 =
    c220:	e0268408 	eor	r8, r6, r8, lsl #8
        ((u32)Td4[(t1 >> 24)       ] << 24) ^
    c224:	e7de2002 	ldrb	r2, [lr, r2]
        ((u32)Td4[(t2      ) & 0xff])       ^
    c228:	e58d1004 	str	r1, [sp, #4]
    PUTU32(out     , s0);
    c22c:	e1a0cc28 	lsr	ip, r8, #24
        ((u32)Td4[(t3 >>  8) & 0xff] <<  8) ^
    c230:	e7de9000 	ldrb	r9, [lr, r0]
    PUTU32(out     , s0);
    c234:	e1a01428 	lsr	r1, r8, #8
    c238:	e5ca8003 	strb	r8, [sl, #3]
    c23c:	e1a00828 	lsr	r0, r8, #16
    s1 =
    c240:	e59d8000 	ldr	r8, [sp]
    PUTU32(out     , s0);
    c244:	e5ca0001 	strb	r0, [sl, #1]
    c248:	e5ca1002 	strb	r1, [sl, #2]
        rk[1];
    PUTU32(out +  4, s1);
    s2 =
        ((u32)Td4[(t2 >> 24)       ] << 24) ^
        ((u32)Td4[(t1 >> 16) & 0xff] << 16) ^
        ((u32)Td4[(t0 >>  8) & 0xff] <<  8) ^
    c24c:	e59d001c 	ldr	r0, [sp, #28]
        ((u32)Td4[(t1 >> 24)       ] << 24) ^
    c250:	e58d2008 	str	r2, [sp, #8]
    PUTU32(out     , s0);
    c254:	e5cac000 	strb	ip, [sl]
        ((u32)Td4[(t2 >> 24)       ] << 24) ^
    c258:	e7de2005 	ldrb	r2, [lr, r5]
    s1 =
    c25c:	e598c004 	ldr	ip, [r8, #4]
    c260:	e59d5004 	ldr	r5, [sp, #4]
        ((u32)Td4[(t3      ) & 0xff])       ^
    c264:	e7de4003 	ldrb	r4, [lr, r3]
        ((u32)Td4[(t0 >>  8) & 0xff] <<  8) ^
    c268:	e7de1000 	ldrb	r1, [lr, r0]
        ((u32)Td4[(t1 >> 16) & 0xff] << 16) ^
    c26c:	e59d3018 	ldr	r3, [sp, #24]
    s1 =
    c270:	e02cc005 	eor	ip, ip, r5
    PUTU32(out +  8, s2);
    s3 =
        ((u32)Td4[(t3 >> 24)       ] << 24) ^
        ((u32)Td4[(t2 >> 16) & 0xff] << 16) ^
        ((u32)Td4[(t1 >>  8) & 0xff] <<  8) ^
        ((u32)Td4[(t0      ) & 0xff])       ^
    c274:	e59d0028 	ldr	r0, [sp, #40]	; 0x28
        ((u32)Td4[(t3 >> 24)       ] << 24) ^
    c278:	e59d5020 	ldr	r5, [sp, #32]
        ((u32)Td4[(t1 >> 16) & 0xff] << 16) ^
    c27c:	e7de3003 	ldrb	r3, [lr, r3]
        ((u32)Td4[(t0      ) & 0xff])       ^
    c280:	e7de0000 	ldrb	r0, [lr, r0]
        ((u32)Td4[(t3 >> 24)       ] << 24) ^
    c284:	e7de5005 	ldrb	r5, [lr, r5]
    s1 =
    c288:	e59d6008 	ldr	r6, [sp, #8]
    c28c:	e02ccc06 	eor	ip, ip, r6, lsl #24
        ((u32)Td4[(t2 >> 16) & 0xff] << 16) ^
    c290:	e7de6007 	ldrb	r6, [lr, r7]
        ((u32)Td4[(t1 >>  8) & 0xff] <<  8) ^
    c294:	e59d7024 	ldr	r7, [sp, #36]	; 0x24
    s1 =
    c298:	e02cc80b 	eor	ip, ip, fp, lsl #16
    c29c:	e02c9409 	eor	r9, ip, r9, lsl #8
        ((u32)Td4[(t1 >>  8) & 0xff] <<  8) ^
    c2a0:	e7dee007 	ldrb	lr, [lr, r7]
    PUTU32(out +  4, s1);
    c2a4:	e1a07829 	lsr	r7, r9, #16
    c2a8:	e1a0c429 	lsr	ip, r9, #8
    c2ac:	e1a08c29 	lsr	r8, r9, #24
    c2b0:	e5ca9007 	strb	r9, [sl, #7]
    c2b4:	e5ca7005 	strb	r7, [sl, #5]
    s2 =
    c2b8:	e59d7000 	ldr	r7, [sp]
    PUTU32(out +  4, s1);
    c2bc:	e5ca8004 	strb	r8, [sl, #4]
    c2c0:	e5cac006 	strb	ip, [sl, #6]
    s2 =
    c2c4:	e597c008 	ldr	ip, [r7, #8]
    c2c8:	e024400c 	eor	r4, r4, ip
    c2cc:	e0242c02 	eor	r2, r4, r2, lsl #24
    c2d0:	e0223803 	eor	r3, r2, r3, lsl #16
    c2d4:	e0231401 	eor	r1, r3, r1, lsl #8
    PUTU32(out +  8, s2);
    c2d8:	e1a0cc21 	lsr	ip, r1, #24
    c2dc:	e1a02821 	lsr	r2, r1, #16
    c2e0:	e1a03421 	lsr	r3, r1, #8
    c2e4:	e5ca100b 	strb	r1, [sl, #11]
    c2e8:	e5ca2009 	strb	r2, [sl, #9]
    c2ec:	e5cac008 	strb	ip, [sl, #8]
    c2f0:	e5ca300a 	strb	r3, [sl, #10]
    s3 =
    c2f4:	e597300c 	ldr	r3, [r7, #12]
    c2f8:	e0200003 	eor	r0, r0, r3
    c2fc:	e0205c05 	eor	r5, r0, r5, lsl #24
    c300:	e0255806 	eor	r5, r5, r6, lsl #16
    c304:	e025540e 	eor	r5, r5, lr, lsl #8
        rk[3];
    PUTU32(out + 12, s3);
    c308:	e1a01c25 	lsr	r1, r5, #24
    c30c:	e1a02825 	lsr	r2, r5, #16
    c310:	e1a03425 	lsr	r3, r5, #8
    c314:	e5ca500f 	strb	r5, [sl, #15]
    c318:	e5ca100c 	strb	r1, [sl, #12]
    c31c:	e5ca200d 	strb	r2, [sl, #13]
    c320:	e5ca300e 	strb	r3, [sl, #14]
}
    c324:	e28dd03c 	add	sp, sp, #60	; 0x3c
    c328:	e8bd8ff0 	pop	{r4, r5, r6, r7, r8, r9, sl, fp, pc}

0000c32c <async_local_cleanup>:
    return 0;
}

void async_local_cleanup(void)
{
}
    c32c:	e12fff1e 	bx	lr

0000c330 <async_job_free.part.0>:
    job->status = ASYNC_JOB_RUNNING;

    return job;
}

static void async_job_free(ASYNC_JOB *job)
    c330:	e92d4070 	push	{r4, r5, r6, lr}
{
    if (job != NULL) {
        OPENSSL_free(job->funcargs);
    c334:	e30f4f8c 	movw	r4, #65420	; 0xff8c
    c338:	e3404000 	movt	r4, #0
static void async_job_free(ASYNC_JOB *job)
    c33c:	e1a05000 	mov	r5, r0
        OPENSSL_free(job->funcargs);
    c340:	e1a01004 	mov	r1, r4
    c344:	e3a02000 	mov	r2, #0
    c348:	e5900008 	ldr	r0, [r0, #8]
    c34c:	eb0006db 	bl	dec0 <CRYPTO_free>
        async_fibre_free(&job->fibrectx);
        OPENSSL_free(job);
    c350:	e1a01004 	mov	r1, r4
    c354:	e1a00005 	mov	r0, r5
    c358:	e3a02000 	mov	r2, #0
    }
}
    c35c:	e8bd4070 	pop	{r4, r5, r6, lr}
        OPENSSL_free(job);
    c360:	ea0006d6 	b	dec0 <CRYPTO_free>

0000c364 <async_empty_pool.part.1>:
    async_wait_ctx_reset_counts(job->waitctx);

    return 1;
}

static void async_empty_pool(async_pool *pool)
    c364:	e92d4010 	push	{r4, lr}
    c368:	e1a04000 	mov	r4, r0
    struct fd_lookup_st *fds;
    size_t numadd;
    size_t numdel;
};

DEFINE_STACK_OF(ASYNC_JOB)
    c36c:	e5940000 	ldr	r0, [r4]
    c370:	eb0007ee 	bl	e330 <OPENSSL_sk_pop>
    if (job != NULL) {
    c374:	e3500000 	cmp	r0, #0
    c378:	08bd8010 	popeq	{r4, pc}
    c37c:	ebffffeb 	bl	c330 <async_job_free.part.0>
    c380:	eafffff9 	b	c36c <async_empty_pool.part.1+0x8>

0000c384 <async_init>:
    } while (job);
}

int async_init(void)
{
    if (!CRYPTO_THREAD_init_local(&ctxkey, NULL))
    c384:	e30303e8 	movw	r0, #13288	; 0x33e8
{
    c388:	e92d4010 	push	{r4, lr}
    if (!CRYPTO_THREAD_init_local(&ctxkey, NULL))
    c38c:	e3a01000 	mov	r1, #0
    c390:	e3400001 	movt	r0, #1
    c394:	eb00082e 	bl	e454 <CRYPTO_THREAD_init_local>
    c398:	e2504000 	subs	r4, r0, #0
    c39c:	1a000001 	bne	c3a8 <async_init+0x24>
        CRYPTO_THREAD_cleanup_local(&ctxkey);
        return 0;
    }

    return 1;
}
    c3a0:	e1a00004 	mov	r0, r4
    c3a4:	e8bd8010 	pop	{r4, pc}
    if (!CRYPTO_THREAD_init_local(&poolkey, NULL)) {
    c3a8:	e30303ec 	movw	r0, #13292	; 0x33ec
    c3ac:	e3a01000 	mov	r1, #0
    c3b0:	e3400001 	movt	r0, #1
    c3b4:	eb000826 	bl	e454 <CRYPTO_THREAD_init_local>
    c3b8:	e2504000 	subs	r4, r0, #0
    return 1;
    c3bc:	13a04001 	movne	r4, #1
    if (!CRYPTO_THREAD_init_local(&poolkey, NULL)) {
    c3c0:	1afffff6 	bne	c3a0 <async_init+0x1c>
        CRYPTO_THREAD_cleanup_local(&ctxkey);
    c3c4:	e30303e8 	movw	r0, #13288	; 0x33e8
    c3c8:	e3400001 	movt	r0, #1
    c3cc:	eb000840 	bl	e4d4 <CRYPTO_THREAD_cleanup_local>
}
    c3d0:	e1a00004 	mov	r0, r4
    c3d4:	e8bd8010 	pop	{r4, pc}

0000c3d8 <async_delete_thread_state>:
    return 0;
}

void async_delete_thread_state(void)
{
    async_pool *pool = (async_pool *)CRYPTO_THREAD_get_local(&poolkey);
    c3d8:	e30303ec 	movw	r0, #13292	; 0x33ec
{
    c3dc:	e92d4010 	push	{r4, lr}
    async_pool *pool = (async_pool *)CRYPTO_THREAD_get_local(&poolkey);
    c3e0:	e3400001 	movt	r0, #1
    c3e4:	eb00082b 	bl	e498 <CRYPTO_THREAD_get_local>

    if (pool != NULL) {
    c3e8:	e2504000 	subs	r4, r0, #0
    c3ec:	0a00000f 	beq	c430 <async_delete_thread_state+0x58>
    if (!pool || !pool->jobs)
    c3f0:	e5943000 	ldr	r3, [r4]
    c3f4:	e3530000 	cmp	r3, #0
    c3f8:	0a000001 	beq	c404 <async_delete_thread_state+0x2c>
    c3fc:	ebffffd8 	bl	c364 <async_empty_pool.part.1>
    c400:	e5943000 	ldr	r3, [r4]
    c404:	e1a00003 	mov	r0, r3
    c408:	eb0007d6 	bl	e368 <OPENSSL_sk_free>
        async_empty_pool(pool);
        sk_ASYNC_JOB_free(pool->jobs);
        OPENSSL_free(pool);
    c40c:	e30f1f8c 	movw	r1, #65420	; 0xff8c
    c410:	e1a00004 	mov	r0, r4
    c414:	e3401000 	movt	r1, #0
    c418:	e3a02000 	mov	r2, #0
    c41c:	eb0006a7 	bl	dec0 <CRYPTO_free>
        CRYPTO_THREAD_set_local(&poolkey, NULL);
    c420:	e30303ec 	movw	r0, #13292	; 0x33ec
    c424:	e3a01000 	mov	r1, #0
    c428:	e3400001 	movt	r0, #1
    c42c:	eb000820 	bl	e4b4 <CRYPTO_THREAD_set_local>
    }
    async_local_cleanup();
    c430:	ebffffbd 	bl	c32c <async_local_cleanup>
    return (async_ctx *)CRYPTO_THREAD_get_local(&ctxkey);
    c434:	e30303e8 	movw	r0, #13288	; 0x33e8
    c438:	e3400001 	movt	r0, #1
    c43c:	eb000815 	bl	e498 <CRYPTO_THREAD_get_local>
    c440:	e1a04000 	mov	r4, r0
    if (!CRYPTO_THREAD_set_local(&ctxkey, NULL))
    c444:	e30303e8 	movw	r0, #13288	; 0x33e8
    c448:	e3400001 	movt	r0, #1
    c44c:	e3a01000 	mov	r1, #0
    c450:	eb000817 	bl	e4b4 <CRYPTO_THREAD_set_local>
    c454:	e3500000 	cmp	r0, #0
    c458:	08bd8010 	popeq	{r4, pc}
    OPENSSL_free(ctx);
    c45c:	e30f1f8c 	movw	r1, #65420	; 0xff8c
    c460:	e1a00004 	mov	r0, r4
    c464:	e3401000 	movt	r1, #0
    c468:	e3a02000 	mov	r2, #0
    async_ctx_free();
}
    c46c:	e8bd4010 	pop	{r4, lr}
    OPENSSL_free(ctx);
    c470:	ea000692 	b	dec0 <CRYPTO_free>

0000c474 <make_kn>:
/* Make temporary keys K1 and K2 */

static void make_kn(unsigned char *k1, const unsigned char *l, int bl)
{
    int i;
    unsigned char c = l[0], carry = c >> 7, cnext;
    c474:	e5d1c000 	ldrb	ip, [r1]

    /* Shift block to left, including carry */
    for (i = 0; i < bl - 1; i++, c = cnext)
    c478:	e3520001 	cmp	r2, #1
{
    c47c:	e92d4070 	push	{r4, r5, r6, lr}
    unsigned char c = l[0], carry = c >> 7, cnext;
    c480:	e1a043ac 	lsr	r4, ip, #7
    for (i = 0; i < bl - 1; i++, c = cnext)
    c484:	da00000a 	ble	c4b4 <make_kn+0x40>
    c488:	e2426001 	sub	r6, r2, #1
    c48c:	e240e001 	sub	lr, r0, #1
    c490:	e0815006 	add	r5, r1, r6
        k1[i] = (c << 1) | ((cnext = l[i + 1]) >> 7);
    c494:	e1a0308c 	lsl	r3, ip, #1
    c498:	e5f1c001 	ldrb	ip, [r1, #1]!
    c49c:	e6af3073 	sxtb	r3, r3
    for (i = 0; i < bl - 1; i++, c = cnext)
    c4a0:	e1550001 	cmp	r5, r1
        k1[i] = (c << 1) | ((cnext = l[i + 1]) >> 7);
    c4a4:	e18333ac 	orr	r3, r3, ip, lsr #7
    c4a8:	e5ee3001 	strb	r3, [lr, #1]!
    for (i = 0; i < bl - 1; i++, c = cnext)
    c4ac:	1afffff8 	bne	c494 <make_kn+0x20>
    c4b0:	e0800006 	add	r0, r0, r6

    /* If MSB set fixup with R */
    k1[i] = (c << 1) ^ ((0 - carry) & (bl == 16 ? 0x87 : 0x1b));
    c4b4:	e3520010 	cmp	r2, #16
    c4b8:	e2643000 	rsb	r3, r4, #0
    c4bc:	13a0201b 	movne	r2, #27
    c4c0:	03e02078 	mvneq	r2, #120	; 0x78
    c4c4:	e7a6c05c 	sbfx	ip, ip, #0, #7
    c4c8:	e0033002 	and	r3, r3, r2
    c4cc:	e023c08c 	eor	ip, r3, ip, lsl #1
    c4d0:	e5c0c000 	strb	ip, [r0]
}
    c4d4:	e8bd8070 	pop	{r4, r5, r6, pc}

0000c4d8 <CMAC_CTX_new>:

CMAC_CTX *CMAC_CTX_new(void)
{
    CMAC_CTX *ctx;

    if ((ctx = OPENSSL_malloc(sizeof(*ctx))) == NULL) {
    c4d8:	e30f1f8c 	movw	r1, #65420	; 0xff8c
{
    c4dc:	e92d4030 	push	{r4, r5, lr}
    if ((ctx = OPENSSL_malloc(sizeof(*ctx))) == NULL) {
    c4e0:	e3a02000 	mov	r2, #0
{
    c4e4:	e24dd00c 	sub	sp, sp, #12
    if ((ctx = OPENSSL_malloc(sizeof(*ctx))) == NULL) {
    c4e8:	e3401000 	movt	r1, #0
    c4ec:	e3a00088 	mov	r0, #136	; 0x88
    c4f0:	eb000680 	bl	def8 <CRYPTO_malloc>
    c4f4:	e2504000 	subs	r4, r0, #0
    c4f8:	0a000009 	beq	c524 <CMAC_CTX_new+0x4c>
        CRYPTOerr(CRYPTO_F_CMAC_CTX_NEW, ERR_R_MALLOC_FAILURE);
        return NULL;
    }
    ctx->cctx = EVP_CIPHER_CTX_new();
    c4fc:	eb0002b1 	bl	cfc8 <EVP_CIPHER_CTX_new>
    if (ctx->cctx == NULL) {
    c500:	e3500000 	cmp	r0, #0
    ctx->cctx = EVP_CIPHER_CTX_new();
    c504:	e1a05000 	mov	r5, r0
        OPENSSL_free(ctx);
        return NULL;
    }
    ctx->nlast_block = -1;
    c508:	13e03000 	mvnne	r3, #0
    ctx->cctx = EVP_CIPHER_CTX_new();
    c50c:	e5840000 	str	r0, [r4]
    ctx->nlast_block = -1;
    c510:	15843084 	strne	r3, [r4, #132]	; 0x84
    if (ctx->cctx == NULL) {
    c514:	0a000009 	beq	c540 <CMAC_CTX_new+0x68>
    return ctx;
}
    c518:	e1a00004 	mov	r0, r4
    c51c:	e28dd00c 	add	sp, sp, #12
    c520:	e8bd8030 	pop	{r4, r5, pc}
        CRYPTOerr(CRYPTO_F_CMAC_CTX_NEW, ERR_R_MALLOC_FAILURE);
    c524:	e58d4000 	str	r4, [sp]
    c528:	e1a03004 	mov	r3, r4
    c52c:	e3a02041 	mov	r2, #65	; 0x41
    c530:	e3a01078 	mov	r1, #120	; 0x78
    c534:	e3a0000f 	mov	r0, #15
    c538:	eb0001b9 	bl	cc24 <ERR_put_error>
        return NULL;
    c53c:	eafffff5 	b	c518 <CMAC_CTX_new+0x40>
        OPENSSL_free(ctx);
    c540:	e30f1f8c 	movw	r1, #65420	; 0xff8c
    c544:	e1a00004 	mov	r0, r4
    c548:	e3401000 	movt	r1, #0
    c54c:	e1a02005 	mov	r2, r5
    c550:	eb00065a 	bl	dec0 <CRYPTO_free>
        return NULL;
    c554:	e1a04005 	mov	r4, r5
    c558:	eaffffee 	b	c518 <CMAC_CTX_new+0x40>

0000c55c <CMAC_CTX_cleanup>:

void CMAC_CTX_cleanup(CMAC_CTX *ctx)
{
    c55c:	e92d4070 	push	{r4, r5, r6, lr}
    EVP_CIPHER_CTX_reset(ctx->cctx);
    c560:	e1a05000 	mov	r5, r0
{
    c564:	e1a04000 	mov	r4, r0
    EVP_CIPHER_CTX_reset(ctx->cctx);
    c568:	e4950044 	ldr	r0, [r5], #68	; 0x44
    c56c:	eb000273 	bl	cf40 <EVP_CIPHER_CTX_reset>
    OPENSSL_cleanse(ctx->tbl, EVP_MAX_BLOCK_LENGTH);
    c570:	e3a01020 	mov	r1, #32
    c574:	e1a00005 	mov	r0, r5
    c578:	eb00068f 	bl	dfbc <OPENSSL_cleanse>
    OPENSSL_cleanse(ctx->k1, EVP_MAX_BLOCK_LENGTH);
    c57c:	e2840004 	add	r0, r4, #4
    c580:	e3a01020 	mov	r1, #32
    c584:	eb00068c 	bl	dfbc <OPENSSL_cleanse>
    OPENSSL_cleanse(ctx->k2, EVP_MAX_BLOCK_LENGTH);
    c588:	e2840024 	add	r0, r4, #36	; 0x24
    c58c:	e3a01020 	mov	r1, #32
    c590:	eb000689 	bl	dfbc <OPENSSL_cleanse>
    OPENSSL_cleanse(ctx->last_block, EVP_MAX_BLOCK_LENGTH);
    c594:	e2840064 	add	r0, r4, #100	; 0x64
    c598:	e3a01020 	mov	r1, #32
    c59c:	eb000686 	bl	dfbc <OPENSSL_cleanse>
    ctx->nlast_block = -1;
    c5a0:	e3e03000 	mvn	r3, #0
    c5a4:	e5843084 	str	r3, [r4, #132]	; 0x84
}
    c5a8:	e8bd8070 	pop	{r4, r5, r6, pc}

0000c5ac <CMAC_CTX_free>:
{
    return ctx->cctx;
}

void CMAC_CTX_free(CMAC_CTX *ctx)
{
    c5ac:	e92d4010 	push	{r4, lr}
    if (!ctx)
    c5b0:	e2504000 	subs	r4, r0, #0
    c5b4:	08bd8010 	popeq	{r4, pc}
        return;
    CMAC_CTX_cleanup(ctx);
    c5b8:	ebffffe7 	bl	c55c <CMAC_CTX_cleanup>
    EVP_CIPHER_CTX_free(ctx->cctx);
    c5bc:	e5940000 	ldr	r0, [r4]
    c5c0:	eb000285 	bl	cfdc <EVP_CIPHER_CTX_free>
    OPENSSL_free(ctx);
    c5c4:	e30f1f8c 	movw	r1, #65420	; 0xff8c
    c5c8:	e1a00004 	mov	r0, r4
    c5cc:	e3401000 	movt	r1, #0
    c5d0:	e3a02000 	mov	r2, #0
}
    c5d4:	e8bd4010 	pop	{r4, lr}
    OPENSSL_free(ctx);
    c5d8:	ea000638 	b	dec0 <CRYPTO_free>

0000c5dc <CMAC_Init>:
int CMAC_Init(CMAC_CTX *ctx, const void *key, size_t keylen,
              const EVP_CIPHER *cipher, ENGINE *impl)
{
    static const unsigned char zero_iv[EVP_MAX_BLOCK_LENGTH] = { 0 };
    /* All zeros means restart */
    if (!key && !cipher && !impl && keylen == 0) {
    c5dc:	e16fcf13 	clz	ip, r3
    c5e0:	e3510000 	cmp	r1, #0
    c5e4:	e1a0c2ac 	lsr	ip, ip, #5
    c5e8:	13a0c000 	movne	ip, #0
{
    c5ec:	e92d41f0 	push	{r4, r5, r6, r7, r8, lr}
    if (!key && !cipher && !impl && keylen == 0) {
    c5f0:	e35c0000 	cmp	ip, #0
{
    c5f4:	e24dd008 	sub	sp, sp, #8
    c5f8:	e1a04000 	mov	r4, r0
    c5fc:	e1a05002 	mov	r5, r2
    if (!key && !cipher && !impl && keylen == 0) {
    c600:	0a000006 	beq	c620 <CMAC_Init+0x44>
    c604:	e59d3020 	ldr	r3, [sp, #32]
    c608:	e3530000 	cmp	r3, #0
    c60c:	03520000 	cmpeq	r2, #0
    c610:	0a000026 	beq	c6b0 <CMAC_Init+0xd4>
            return 0;
        /* Zero tbl so resume works */
        memset(ctx->tbl, 0, bl);
        ctx->nlast_block = 0;
    }
    return 1;
    c614:	e3a00001 	mov	r0, #1
}
    c618:	e28dd008 	add	sp, sp, #8
    c61c:	e8bd81f0 	pop	{r4, r5, r6, r7, r8, pc}
    if (cipher && !EVP_EncryptInit_ex(ctx->cctx, cipher, impl, NULL, NULL))
    c620:	e3530000 	cmp	r3, #0
    c624:	e1a02003 	mov	r2, r3
    c628:	e1a06001 	mov	r6, r1
    c62c:	0a000007 	beq	c650 <CMAC_Init+0x74>
    c630:	e5900000 	ldr	r0, [r0]
    c634:	e1a01002 	mov	r1, r2
    c638:	e1a0300c 	mov	r3, ip
    c63c:	e58dc000 	str	ip, [sp]
    c640:	e59d2020 	ldr	r2, [sp, #32]
    c644:	eb00035e 	bl	d3c4 <EVP_EncryptInit_ex>
    c648:	e3500000 	cmp	r0, #0
    c64c:	0a000014 	beq	c6a4 <CMAC_Init+0xc8>
    if (key) {
    c650:	e3560000 	cmp	r6, #0
    c654:	0affffee 	beq	c614 <CMAC_Init+0x38>
        if (!EVP_CIPHER_CTX_cipher(ctx->cctx))
    c658:	e5940000 	ldr	r0, [r4]
    c65c:	eb000395 	bl	d4b8 <EVP_CIPHER_CTX_cipher>
    c660:	e3500000 	cmp	r0, #0
    c664:	0a00000e 	beq	c6a4 <CMAC_Init+0xc8>
        if (!EVP_CIPHER_CTX_set_key_length(ctx->cctx, keylen))
    c668:	e1a01005 	mov	r1, r5
    c66c:	e5940000 	ldr	r0, [r4]
    c670:	eb00035b 	bl	d3e4 <EVP_CIPHER_CTX_set_key_length>
    c674:	e3500000 	cmp	r0, #0
    c678:	0a000009 	beq	c6a4 <CMAC_Init+0xc8>
        if (!EVP_EncryptInit_ex(ctx->cctx, NULL, NULL, key, zero_iv))
    c67c:	e30256ac 	movw	r5, #9900	; 0x26ac
    c680:	e3a02000 	mov	r2, #0
    c684:	e3405001 	movt	r5, #1
    c688:	e5940000 	ldr	r0, [r4]
    c68c:	e1a03006 	mov	r3, r6
    c690:	e58d5000 	str	r5, [sp]
    c694:	e1a01002 	mov	r1, r2
    c698:	eb000349 	bl	d3c4 <EVP_EncryptInit_ex>
    c69c:	e3500000 	cmp	r0, #0
    c6a0:	1a00001a 	bne	c710 <CMAC_Init+0x134>
            return 0;
    c6a4:	e3a00000 	mov	r0, #0
}
    c6a8:	e28dd008 	add	sp, sp, #8
    c6ac:	e8bd81f0 	pop	{r4, r5, r6, r7, r8, pc}
        if (ctx->nlast_block == -1)
    c6b0:	e5903084 	ldr	r3, [r0, #132]	; 0x84
    c6b4:	e3730001 	cmn	r3, #1
    c6b8:	0afffff9 	beq	c6a4 <CMAC_Init+0xc8>
        if (!EVP_EncryptInit_ex(ctx->cctx, NULL, NULL, NULL, zero_iv))
    c6bc:	e30226ac 	movw	r2, #9900	; 0x26ac
    c6c0:	e3a03000 	mov	r3, #0
    c6c4:	e3402001 	movt	r2, #1
    c6c8:	e5900000 	ldr	r0, [r0]
    c6cc:	e1a01003 	mov	r1, r3
    c6d0:	e58d2000 	str	r2, [sp]
    c6d4:	e1a02003 	mov	r2, r3
    c6d8:	eb000339 	bl	d3c4 <EVP_EncryptInit_ex>
    c6dc:	e3500000 	cmp	r0, #0
    c6e0:	0affffef 	beq	c6a4 <CMAC_Init+0xc8>
        memset(ctx->tbl, 0, EVP_CIPHER_CTX_block_size(ctx->cctx));
    c6e4:	e1a05004 	mov	r5, r4
    c6e8:	e4950044 	ldr	r0, [r5], #68	; 0x44
    c6ec:	eb000368 	bl	d494 <EVP_CIPHER_CTX_block_size>
    c6f0:	e3a01000 	mov	r1, #0
    c6f4:	e1a02000 	mov	r2, r0
    c6f8:	e1a00005 	mov	r0, r5
    c6fc:	eb000c8b 	bl	f930 <memset>
        ctx->nlast_block = 0;
    c700:	e3a03000 	mov	r3, #0
        return 1;
    c704:	e3a00001 	mov	r0, #1
        ctx->nlast_block = 0;
    c708:	e5843084 	str	r3, [r4, #132]	; 0x84
        return 1;
    c70c:	eaffffc1 	b	c618 <CMAC_Init+0x3c>
        bl = EVP_CIPHER_CTX_block_size(ctx->cctx);
    c710:	e1a06004 	mov	r6, r4
    c714:	e4960044 	ldr	r0, [r6], #68	; 0x44
    c718:	eb00035d 	bl	d494 <EVP_CIPHER_CTX_block_size>
        if (!EVP_Cipher(ctx->cctx, ctx->tbl, zero_iv, bl))
    c71c:	e1a02005 	mov	r2, r5
    c720:	e1a03000 	mov	r3, r0
        bl = EVP_CIPHER_CTX_block_size(ctx->cctx);
    c724:	e1a07000 	mov	r7, r0
        if (!EVP_Cipher(ctx->cctx, ctx->tbl, zero_iv, bl))
    c728:	e1a01006 	mov	r1, r6
    c72c:	e5940000 	ldr	r0, [r4]
    c730:	eb00035a 	bl	d4a0 <EVP_Cipher>
    c734:	e3500000 	cmp	r0, #0
    c738:	0affffd9 	beq	c6a4 <CMAC_Init+0xc8>
        make_kn(ctx->k1, ctx->tbl, bl);
    c73c:	e2848004 	add	r8, r4, #4
    c740:	e1a02007 	mov	r2, r7
    c744:	e1a00008 	mov	r0, r8
    c748:	e1a01006 	mov	r1, r6
    c74c:	ebffff48 	bl	c474 <make_kn>
        make_kn(ctx->k2, ctx->k1, bl);
    c750:	e1a02007 	mov	r2, r7
    c754:	e1a01008 	mov	r1, r8
    c758:	e2840024 	add	r0, r4, #36	; 0x24
    c75c:	ebffff44 	bl	c474 <make_kn>
        OPENSSL_cleanse(ctx->tbl, bl);
    c760:	e1a01007 	mov	r1, r7
    c764:	e1a00006 	mov	r0, r6
    c768:	eb000613 	bl	dfbc <OPENSSL_cleanse>
        if (!EVP_EncryptInit_ex(ctx->cctx, NULL, NULL, NULL, zero_iv))
    c76c:	e3a03000 	mov	r3, #0
    c770:	e5940000 	ldr	r0, [r4]
    c774:	e1a02003 	mov	r2, r3
    c778:	e58d5000 	str	r5, [sp]
    c77c:	e1a01003 	mov	r1, r3
    c780:	eb00030f 	bl	d3c4 <EVP_EncryptInit_ex>
    c784:	e3500000 	cmp	r0, #0
    c788:	0affffc5 	beq	c6a4 <CMAC_Init+0xc8>
        memset(ctx->tbl, 0, bl);
    c78c:	e1a02007 	mov	r2, r7
    c790:	e1a00006 	mov	r0, r6
    c794:	e3a01000 	mov	r1, #0
    c798:	eb000c64 	bl	f930 <memset>
        ctx->nlast_block = 0;
    c79c:	e3a03000 	mov	r3, #0
    return 1;
    c7a0:	e3a00001 	mov	r0, #1
        ctx->nlast_block = 0;
    c7a4:	e5843084 	str	r3, [r4, #132]	; 0x84
    c7a8:	eaffff9a 	b	c618 <CMAC_Init+0x3c>

0000c7ac <CMAC_Update>:

int CMAC_Update(CMAC_CTX *ctx, const void *in, size_t dlen)
{
    const unsigned char *data = in;
    size_t bl;
    if (ctx->nlast_block == -1)
    c7ac:	e5903084 	ldr	r3, [r0, #132]	; 0x84
    c7b0:	e3730001 	cmn	r3, #1
    c7b4:	0a000033 	beq	c888 <CMAC_Update+0xdc>
        return 0;
    if (dlen == 0)
    c7b8:	e3520000 	cmp	r2, #0
{
    c7bc:	e92d47f0 	push	{r4, r5, r6, r7, r8, r9, sl, lr}
    c7c0:	e1a04002 	mov	r4, r2
    if (dlen == 0)
    c7c4:	1a000001 	bne	c7d0 <CMAC_Update+0x24>
        data += bl;
    }
    /* Copy any data left to last block buffer */
    memcpy(ctx->last_block, data, dlen);
    ctx->nlast_block = dlen;
    return 1;
    c7c8:	e3a00001 	mov	r0, #1
    c7cc:	e8bd87f0 	pop	{r4, r5, r6, r7, r8, r9, sl, pc}
    c7d0:	e1a05000 	mov	r5, r0
    bl = EVP_CIPHER_CTX_block_size(ctx->cctx);
    c7d4:	e5900000 	ldr	r0, [r0]
    c7d8:	e1a07001 	mov	r7, r1
    c7dc:	eb00032c 	bl	d494 <EVP_CIPHER_CTX_block_size>
    c7e0:	e1a06000 	mov	r6, r0
    if (ctx->nlast_block > 0) {
    c7e4:	e5950084 	ldr	r0, [r5, #132]	; 0x84
    c7e8:	e3500000 	cmp	r0, #0
    c7ec:	da000014 	ble	c844 <CMAC_Update+0x98>
        nleft = bl - ctx->nlast_block;
    c7f0:	e0468000 	sub	r8, r6, r0
    c7f4:	e2859064 	add	r9, r5, #100	; 0x64
        if (dlen < nleft)
    c7f8:	e1540008 	cmp	r4, r8
    c7fc:	e0890000 	add	r0, r9, r0
    c800:	3a000022 	bcc	c890 <CMAC_Update+0xe4>
        memcpy(ctx->last_block + ctx->nlast_block, data, nleft);
    c804:	e1a02008 	mov	r2, r8
    c808:	e1a01007 	mov	r1, r7
    c80c:	eb000c0c 	bl	f844 <memcpy>
        ctx->nlast_block += nleft;
    c810:	e5953084 	ldr	r3, [r5, #132]	; 0x84
        if (dlen == 0)
    c814:	e0544008 	subs	r4, r4, r8
        ctx->nlast_block += nleft;
    c818:	e0833008 	add	r3, r3, r8
    c81c:	e5853084 	str	r3, [r5, #132]	; 0x84
        if (dlen == 0)
    c820:	0affffe8 	beq	c7c8 <CMAC_Update+0x1c>
        if (!EVP_Cipher(ctx->cctx, ctx->tbl, ctx->last_block, bl))
    c824:	e1a02009 	mov	r2, r9
    c828:	e1a03006 	mov	r3, r6
    c82c:	e2851044 	add	r1, r5, #68	; 0x44
    c830:	e5950000 	ldr	r0, [r5]
    c834:	eb000319 	bl	d4a0 <EVP_Cipher>
    c838:	e3500000 	cmp	r0, #0
        data += nleft;
    c83c:	10877008 	addne	r7, r7, r8
        if (!EVP_Cipher(ctx->cctx, ctx->tbl, ctx->last_block, bl))
    c840:	0a00000e 	beq	c880 <CMAC_Update+0xd4>
    while (dlen > bl) {
    c844:	e1560004 	cmp	r6, r4
    c848:	32858044 	addcc	r8, r5, #68	; 0x44
    c84c:	3a000002 	bcc	c85c <CMAC_Update+0xb0>
    c850:	ea000016 	b	c8b0 <CMAC_Update+0x104>
    c854:	e1560004 	cmp	r6, r4
    c858:	2a000014 	bcs	c8b0 <CMAC_Update+0x104>
        if (!EVP_Cipher(ctx->cctx, ctx->tbl, data, bl))
    c85c:	e1a02007 	mov	r2, r7
    c860:	e1a03006 	mov	r3, r6
    c864:	e1a01008 	mov	r1, r8
    c868:	e5950000 	ldr	r0, [r5]
    c86c:	eb00030b 	bl	d4a0 <EVP_Cipher>
    c870:	e3500000 	cmp	r0, #0
        dlen -= bl;
    c874:	e0444006 	sub	r4, r4, r6
        data += bl;
    c878:	e0877006 	add	r7, r7, r6
        if (!EVP_Cipher(ctx->cctx, ctx->tbl, data, bl))
    c87c:	1afffff4 	bne	c854 <CMAC_Update+0xa8>
        return 0;
    c880:	e3a00000 	mov	r0, #0
    c884:	e8bd87f0 	pop	{r4, r5, r6, r7, r8, r9, sl, pc}
    c888:	e3a00000 	mov	r0, #0

}
    c88c:	e12fff1e 	bx	lr
        memcpy(ctx->last_block + ctx->nlast_block, data, nleft);
    c890:	e1a02004 	mov	r2, r4
    c894:	e1a01007 	mov	r1, r7
    c898:	eb000be9 	bl	f844 <memcpy>
        ctx->nlast_block += nleft;
    c89c:	e5953084 	ldr	r3, [r5, #132]	; 0x84
            return 1;
    c8a0:	e3a00001 	mov	r0, #1
        ctx->nlast_block += nleft;
    c8a4:	e0834004 	add	r4, r3, r4
    c8a8:	e5854084 	str	r4, [r5, #132]	; 0x84
}
    c8ac:	e8bd87f0 	pop	{r4, r5, r6, r7, r8, r9, sl, pc}
    memcpy(ctx->last_block, data, dlen);
    c8b0:	e1a01007 	mov	r1, r7
    c8b4:	e1a02004 	mov	r2, r4
    c8b8:	e2850064 	add	r0, r5, #100	; 0x64
    c8bc:	eb000be0 	bl	f844 <memcpy>
    ctx->nlast_block = dlen;
    c8c0:	e5854084 	str	r4, [r5, #132]	; 0x84
    c8c4:	eaffffbf 	b	c7c8 <CMAC_Update+0x1c>

0000c8c8 <CMAC_Final>:

int CMAC_Final(CMAC_CTX *ctx, unsigned char *out, size_t *poutlen)
{
    int i, bl, lb;
    if (ctx->nlast_block == -1)
    c8c8:	e5903084 	ldr	r3, [r0, #132]	; 0x84
{
    c8cc:	e92d41f0 	push	{r4, r5, r6, r7, r8, lr}
    if (ctx->nlast_block == -1)
    c8d0:	e3730001 	cmn	r3, #1
        return 0;
    c8d4:	03a04000 	moveq	r4, #0
    if (ctx->nlast_block == -1)
    c8d8:	0a000025 	beq	c974 <CMAC_Final+0xac>
    c8dc:	e1a05001 	mov	r5, r1
    c8e0:	e1a04000 	mov	r4, r0
    bl = EVP_CIPHER_CTX_block_size(ctx->cctx);
    c8e4:	e5900000 	ldr	r0, [r0]
    c8e8:	e1a07002 	mov	r7, r2
    c8ec:	eb0002e8 	bl	d494 <EVP_CIPHER_CTX_block_size>
    *poutlen = (size_t)bl;
    if (!out)
    c8f0:	e3550000 	cmp	r5, #0
    bl = EVP_CIPHER_CTX_block_size(ctx->cctx);
    c8f4:	e1a06000 	mov	r6, r0
    *poutlen = (size_t)bl;
    c8f8:	e5870000 	str	r0, [r7]
    if (!out)
    c8fc:	0a00001b 	beq	c970 <CMAC_Final+0xa8>
        return 1;
    lb = ctx->nlast_block;
    c900:	e5940084 	ldr	r0, [r4, #132]	; 0x84
    /* Is last block complete? */
    if (lb == bl) {
    c904:	e1560000 	cmp	r6, r0
    c908:	0a000025 	beq	c9a4 <CMAC_Final+0xdc>
        for (i = 0; i < bl; i++)
            out[i] = ctx->last_block[i] ^ ctx->k1[i];
    } else {
        ctx->last_block[lb] = 0x80;
        if (bl - lb > 1)
    c90c:	e0462000 	sub	r2, r6, r0
        ctx->last_block[lb] = 0x80;
    c910:	e0843000 	add	r3, r4, r0
        if (bl - lb > 1)
    c914:	e3520001 	cmp	r2, #1
        ctx->last_block[lb] = 0x80;
    c918:	e3e0107f 	mvn	r1, #127	; 0x7f
    c91c:	e5c31064 	strb	r1, [r3, #100]	; 0x64
        if (bl - lb > 1)
    c920:	ca00001a 	bgt	c990 <CMAC_Final+0xc8>
            memset(ctx->last_block + lb + 1, 0, bl - lb - 1);
        for (i = 0; i < bl; i++)
    c924:	e3560000 	cmp	r6, #0
    c928:	da000009 	ble	c954 <CMAC_Final+0x8c>
    c92c:	e2842023 	add	r2, r4, #35	; 0x23
    c930:	e2450001 	sub	r0, r5, #1
    c934:	e082e006 	add	lr, r2, r6
    c938:	e2841063 	add	r1, r4, #99	; 0x63
            out[i] = ctx->last_block[i] ^ ctx->k2[i];
    c93c:	e5f2c001 	ldrb	ip, [r2, #1]!
    c940:	e5f13001 	ldrb	r3, [r1, #1]!
        for (i = 0; i < bl; i++)
    c944:	e152000e 	cmp	r2, lr
            out[i] = ctx->last_block[i] ^ ctx->k2[i];
    c948:	e023300c 	eor	r3, r3, ip
    c94c:	e5e03001 	strb	r3, [r0, #1]!
        for (i = 0; i < bl; i++)
    c950:	1afffff9 	bne	c93c <CMAC_Final+0x74>
    }
    if (!EVP_Cipher(ctx->cctx, out, out, bl)) {
    c954:	e5940000 	ldr	r0, [r4]
    c958:	e1a03006 	mov	r3, r6
    c95c:	e1a02005 	mov	r2, r5
    c960:	e1a01005 	mov	r1, r5
    c964:	eb0002cd 	bl	d4a0 <EVP_Cipher>
    c968:	e2504000 	subs	r4, r0, #0
    c96c:	0a000002 	beq	c97c <CMAC_Final+0xb4>
        return 1;
    c970:	e3a04001 	mov	r4, #1
        OPENSSL_cleanse(out, bl);
        return 0;
    }
    return 1;
}
    c974:	e1a00004 	mov	r0, r4
    c978:	e8bd81f0 	pop	{r4, r5, r6, r7, r8, pc}
        OPENSSL_cleanse(out, bl);
    c97c:	e1a00005 	mov	r0, r5
    c980:	e1a01006 	mov	r1, r6
    c984:	eb00058c 	bl	dfbc <OPENSSL_cleanse>
}
    c988:	e1a00004 	mov	r0, r4
    c98c:	e8bd81f0 	pop	{r4, r5, r6, r7, r8, pc}
            memset(ctx->last_block + lb + 1, 0, bl - lb - 1);
    c990:	e2422001 	sub	r2, r2, #1
    c994:	e2830065 	add	r0, r3, #101	; 0x65
    c998:	e3a01000 	mov	r1, #0
    c99c:	eb000be3 	bl	f930 <memset>
    c9a0:	eaffffdf 	b	c924 <CMAC_Final+0x5c>
        for (i = 0; i < bl; i++)
    c9a4:	e3560000 	cmp	r6, #0
    c9a8:	daffffe9 	ble	c954 <CMAC_Final+0x8c>
    c9ac:	e2842003 	add	r2, r4, #3
    c9b0:	e2450001 	sub	r0, r5, #1
    c9b4:	e082e006 	add	lr, r2, r6
    c9b8:	e2841063 	add	r1, r4, #99	; 0x63
            out[i] = ctx->last_block[i] ^ ctx->k1[i];
    c9bc:	e5f2c001 	ldrb	ip, [r2, #1]!
    c9c0:	e5f13001 	ldrb	r3, [r1, #1]!
        for (i = 0; i < bl; i++)
    c9c4:	e152000e 	cmp	r2, lr
            out[i] = ctx->last_block[i] ^ ctx->k1[i];
    c9c8:	e023300c 	eor	r3, r3, ip
    c9cc:	e5e03001 	strb	r3, [r0, #1]!
        for (i = 0; i < bl; i++)
    c9d0:	1afffff9 	bne	c9bc <CMAC_Final+0xf4>
    c9d4:	eaffffde 	b	c954 <CMAC_Final+0x8c>

0000c9d8 <openssl_config_int>:
    OPENSSL_init_crypto(OPENSSL_INIT_LOAD_CONFIG, &settings);
}
#endif

int openssl_config_int(const OPENSSL_INIT_SETTINGS *settings)
{
    c9d8:	e92d4070 	push	{r4, r5, r6, lr}
    int ret = 0;
    const char *filename;
    const char *appname;
    unsigned long flags;

    if (openssl_configured)
    c9dc:	e30343f0 	movw	r4, #13296	; 0x33f0
    c9e0:	e3404001 	movt	r4, #1
    c9e4:	e5945000 	ldr	r5, [r4]
    c9e8:	e3550000 	cmp	r5, #0
        return 1;
    c9ec:	13a05001 	movne	r5, #1
    if (openssl_configured)
    c9f0:	1a000002 	bne	ca00 <openssl_config_int+0x28>
#endif
#ifndef OPENSSL_NO_ENGINE
    /* Need to load ENGINEs */
    ENGINE_load_builtin_engines();
#endif
    ERR_clear_error();
    c9f4:	eb0000c0 	bl	ccfc <ERR_clear_error>
#if !defined(OPENSSL_SYS_UEFI) && !defined(OPENSSL_SYS_TRUSTY)
    ret = CONF_modules_load_file(filename, appname, flags);
#endif
    openssl_configured = 1;
    c9f8:	e3a03001 	mov	r3, #1
    c9fc:	e5843000 	str	r3, [r4]
    return ret;
}
    ca00:	e1a00005 	mov	r0, r5
    ca04:	e8bd8070 	pop	{r4, r5, r6, pc}

0000ca08 <openssl_no_config_int>:

void openssl_no_config_int(void)
{
    openssl_configured = 1;
    ca08:	e30333f0 	movw	r3, #13296	; 0x33f0
    ca0c:	e3a02001 	mov	r2, #1
    ca10:	e3403001 	movt	r3, #1
    ca14:	e5832000 	str	r2, [r3]
}
    ca18:	e12fff1e 	bx	lr

0000ca1c <OPENSSL_cpuid_setup>:
# endif
#endif
#if !defined(OPENSSL_CPUID_SETUP) && !defined(OPENSSL_CPUID_OBJ)
void OPENSSL_cpuid_setup(void)
{
}
    ca1c:	e12fff1e 	bx	lr

0000ca20 <OPENSSL_die>:
    return 0;
}
#endif

void OPENSSL_die(const char *message, const char *file, int line)
{
    ca20:	e92d4010 	push	{r4, lr}
    OPENSSL_showfatal("%s:%d: OpenSSL internal error: %s\n",
                      file, line, message);
#if !defined(_WIN32)
    abort();
    ca24:	ebfff0bb 	bl	8d18 <abort>

0000ca28 <err_do_init_ossl_>:
}
#endif

DEFINE_RUN_ONCE_STATIC(err_do_init)
{
    set_err_thread_local = 1;
    ca28:	e3033400 	movw	r3, #13312	; 0x3400
    return CRYPTO_THREAD_init_local(&err_thread_local, NULL);
    ca2c:	e30303fc 	movw	r0, #13308	; 0x33fc
    set_err_thread_local = 1;
    ca30:	e3403001 	movt	r3, #1
DEFINE_RUN_ONCE_STATIC(err_do_init)
    ca34:	e92d4010 	push	{r4, lr}
    set_err_thread_local = 1;
    ca38:	e3a02001 	mov	r2, #1
    return CRYPTO_THREAD_init_local(&err_thread_local, NULL);
    ca3c:	e3400001 	movt	r0, #1
    ca40:	e3a01000 	mov	r1, #0
    set_err_thread_local = 1;
    ca44:	e5832000 	str	r2, [r3]
    return CRYPTO_THREAD_init_local(&err_thread_local, NULL);
    ca48:	eb000681 	bl	e454 <CRYPTO_THREAD_init_local>
DEFINE_RUN_ONCE_STATIC(err_do_init)
    ca4c:	e30333f4 	movw	r3, #13300	; 0x33f4
    ca50:	e3403001 	movt	r3, #1
    ca54:	e5830000 	str	r0, [r3]
    ca58:	e8bd8010 	pop	{r4, pc}

0000ca5c <ERR_STATE_free.part.0>:
static void ERR_STATE_free(ERR_STATE *s)
    ca5c:	e92d41f0 	push	{r4, r5, r6, r7, r8, lr}
        err_clear_data(s, i);
    ca60:	e30f7f8c 	movw	r7, #65420	; 0xff8c
static void ERR_STATE_free(ERR_STATE *s)
    ca64:	e1a08000 	mov	r8, r0
    ca68:	e28040bc 	add	r4, r0, #188	; 0xbc
    ca6c:	e28060fc 	add	r6, r0, #252	; 0xfc
        err_clear_data(s, i);
    ca70:	e3407000 	movt	r7, #0
    ca74:	e3a05000 	mov	r5, #0
    ca78:	ea000002 	b	ca88 <ERR_STATE_free.part.0+0x2c>
    for (i = 0; i < ERR_NUM_ERRORS; i++) {
    ca7c:	e1540006 	cmp	r4, r6
        err_clear_data(s, i);
    ca80:	e5845000 	str	r5, [r4]
    for (i = 0; i < ERR_NUM_ERRORS; i++) {
    ca84:	0a00000a 	beq	cab4 <ERR_STATE_free.part.0+0x58>
        err_clear_data(s, i);
    ca88:	e5b43004 	ldr	r3, [r4, #4]!
    ca8c:	e3130001 	tst	r3, #1
    ca90:	0afffff9 	beq	ca7c <ERR_STATE_free.part.0+0x20>
    ca94:	e3a02000 	mov	r2, #0
    ca98:	e1a01007 	mov	r1, r7
    ca9c:	e5140040 	ldr	r0, [r4, #-64]	; 0xffffffc0
    caa0:	eb000506 	bl	dec0 <CRYPTO_free>
    for (i = 0; i < ERR_NUM_ERRORS; i++) {
    caa4:	e1540006 	cmp	r4, r6
        err_clear_data(s, i);
    caa8:	e5045040 	str	r5, [r4, #-64]	; 0xffffffc0
    caac:	e5845000 	str	r5, [r4]
    for (i = 0; i < ERR_NUM_ERRORS; i++) {
    cab0:	1afffff4 	bne	ca88 <ERR_STATE_free.part.0+0x2c>
    OPENSSL_free(s);
    cab4:	e30f1f8c 	movw	r1, #65420	; 0xff8c
    cab8:	e1a00008 	mov	r0, r8
    cabc:	e3401000 	movt	r1, #0
    cac0:	e3a02000 	mov	r2, #0
}
    cac4:	e8bd41f0 	pop	{r4, r5, r6, r7, r8, lr}
    OPENSSL_free(s);
    cac8:	ea0004fc 	b	dec0 <CRYPTO_free>

0000cacc <err_delete_thread_state>:
    ERR_STATE *state = CRYPTO_THREAD_get_local(&err_thread_local);
    cacc:	e30303fc 	movw	r0, #13308	; 0x33fc
{
    cad0:	e92d4010 	push	{r4, lr}
    ERR_STATE *state = CRYPTO_THREAD_get_local(&err_thread_local);
    cad4:	e3400001 	movt	r0, #1
    cad8:	eb00066e 	bl	e498 <CRYPTO_THREAD_get_local>
    if (state == NULL)
    cadc:	e2504000 	subs	r4, r0, #0
    cae0:	08bd8010 	popeq	{r4, pc}
    CRYPTO_THREAD_set_local(&err_thread_local, NULL);
    cae4:	e30303fc 	movw	r0, #13308	; 0x33fc
    cae8:	e3a01000 	mov	r1, #0
    caec:	e3400001 	movt	r0, #1
    caf0:	eb00066f 	bl	e4b4 <CRYPTO_THREAD_set_local>
    caf4:	e1a00004 	mov	r0, r4
}
    caf8:	e8bd4010 	pop	{r4, lr}
    cafc:	eaffffd6 	b	ca5c <ERR_STATE_free.part.0>

0000cb00 <ERR_get_state>:
}

ERR_STATE *ERR_get_state(void)
{
    cb00:	e92d4070 	push	{r4, r5, r6, lr}
    ERR_STATE *state;
    int saveerrno = get_last_sys_error();
    cb04:	eb000678 	bl	e4ec <__geterrno>

    if (!OPENSSL_init_crypto(OPENSSL_INIT_BASE_ONLY, NULL))
    cb08:	e3a02000 	mov	r2, #0
    cb0c:	e3a01000 	mov	r1, #0
    int saveerrno = get_last_sys_error();
    cb10:	e5905000 	ldr	r5, [r0]
    if (!OPENSSL_init_crypto(OPENSSL_INIT_BASE_ONLY, NULL))
    cb14:	e3a00701 	mov	r0, #262144	; 0x40000
    cb18:	eb0003b2 	bl	d9e8 <OPENSSL_init_crypto>
    cb1c:	e3500000 	cmp	r0, #0
    cb20:	0a000017 	beq	cb84 <ERR_get_state+0x84>
        return NULL;

    if (!RUN_ONCE(&err_init, err_do_init))
    cb24:	e30c1a28 	movw	r1, #51752	; 0xca28
    cb28:	e30303f8 	movw	r0, #13304	; 0x33f8
    cb2c:	e3401000 	movt	r1, #0
    cb30:	e3400001 	movt	r0, #1
    cb34:	eb00063a 	bl	e424 <CRYPTO_THREAD_run_once>
    cb38:	e3500000 	cmp	r0, #0
    cb3c:	0a000010 	beq	cb84 <ERR_get_state+0x84>
    cb40:	e30333f4 	movw	r3, #13300	; 0x33f4
    cb44:	e3403001 	movt	r3, #1
    cb48:	e5933000 	ldr	r3, [r3]
    cb4c:	e3530000 	cmp	r3, #0
    cb50:	0a00000b 	beq	cb84 <ERR_get_state+0x84>
        return NULL;

    state = CRYPTO_THREAD_get_local(&err_thread_local);
    cb54:	e30303fc 	movw	r0, #13308	; 0x33fc
    cb58:	e3400001 	movt	r0, #1
    cb5c:	eb00064d 	bl	e498 <CRYPTO_THREAD_get_local>
    if (state == (ERR_STATE*)-1)
    cb60:	e3700001 	cmn	r0, #1
    state = CRYPTO_THREAD_get_local(&err_thread_local);
    cb64:	e1a04000 	mov	r4, r0
    if (state == (ERR_STATE*)-1)
    cb68:	0a000005 	beq	cb84 <ERR_get_state+0x84>
        return NULL;

    if (state == NULL) {
    cb6c:	e3500000 	cmp	r0, #0
    cb70:	0a000006 	beq	cb90 <ERR_get_state+0x90>

        /* Ignore failures from these */
        OPENSSL_init_crypto(OPENSSL_INIT_LOAD_CRYPTO_STRINGS, NULL);
    }

    set_sys_error(saveerrno);
    cb74:	eb00065c 	bl	e4ec <__geterrno>
    cb78:	e5805000 	str	r5, [r0]
    return state;
}
    cb7c:	e1a00004 	mov	r0, r4
    cb80:	e8bd8070 	pop	{r4, r5, r6, pc}
        return NULL;
    cb84:	e3a04000 	mov	r4, #0
}
    cb88:	e1a00004 	mov	r0, r4
    cb8c:	e8bd8070 	pop	{r4, r5, r6, pc}
        if (!CRYPTO_THREAD_set_local(&err_thread_local, (ERR_STATE*)-1))
    cb90:	e30303fc 	movw	r0, #13308	; 0x33fc
    cb94:	e3e01000 	mvn	r1, #0
    cb98:	e3400001 	movt	r0, #1
    cb9c:	eb000644 	bl	e4b4 <CRYPTO_THREAD_set_local>
    cba0:	e3500000 	cmp	r0, #0
    cba4:	0afffff6 	beq	cb84 <ERR_get_state+0x84>
        if ((state = OPENSSL_zalloc(sizeof(*state))) == NULL) {
    cba8:	e30f1f8c 	movw	r1, #65420	; 0xff8c
    cbac:	e1a02004 	mov	r2, r4
    cbb0:	e3401000 	movt	r1, #0
    cbb4:	e3a00f62 	mov	r0, #392	; 0x188
    cbb8:	eb0004e6 	bl	df58 <CRYPTO_zalloc>
    cbbc:	e2506000 	subs	r6, r0, #0
    cbc0:	0a000012 	beq	cc10 <ERR_get_state+0x110>
        if (!ossl_init_thread_start(OPENSSL_INIT_THREAD_ERR_STATE)
    cbc4:	e3a00002 	mov	r0, #2
    cbc8:	e3a01000 	mov	r1, #0
    cbcc:	eb000487 	bl	ddf0 <ossl_init_thread_start>
    cbd0:	e3500000 	cmp	r0, #0
    cbd4:	0a00000b 	beq	cc08 <ERR_get_state+0x108>
                || !CRYPTO_THREAD_set_local(&err_thread_local, state)) {
    cbd8:	e30303fc 	movw	r0, #13308	; 0x33fc
    cbdc:	e1a01006 	mov	r1, r6
    cbe0:	e3400001 	movt	r0, #1
    cbe4:	eb000632 	bl	e4b4 <CRYPTO_THREAD_set_local>
    cbe8:	e3500000 	cmp	r0, #0
    cbec:	0a000005 	beq	cc08 <ERR_get_state+0x108>
        OPENSSL_init_crypto(OPENSSL_INIT_LOAD_CRYPTO_STRINGS, NULL);
    cbf0:	e1a02004 	mov	r2, r4
    cbf4:	e3a01000 	mov	r1, #0
    cbf8:	e3a00002 	mov	r0, #2
    cbfc:	e1a04006 	mov	r4, r6
    cc00:	eb000378 	bl	d9e8 <OPENSSL_init_crypto>
    cc04:	eaffffda 	b	cb74 <ERR_get_state+0x74>
    cc08:	e1a00006 	mov	r0, r6
    cc0c:	ebffff92 	bl	ca5c <ERR_STATE_free.part.0>
            CRYPTO_THREAD_set_local(&err_thread_local, NULL);
    cc10:	e30303fc 	movw	r0, #13308	; 0x33fc
    cc14:	e3a01000 	mov	r1, #0
    cc18:	e3400001 	movt	r0, #1
    cc1c:	eb000624 	bl	e4b4 <CRYPTO_THREAD_set_local>
            return NULL;
    cc20:	eaffffd5 	b	cb7c <ERR_get_state+0x7c>

0000cc24 <ERR_put_error>:
{
    cc24:	e92d41f0 	push	{r4, r5, r6, r7, r8, lr}
    cc28:	e1a06000 	mov	r6, r0
    cc2c:	e1a08001 	mov	r8, r1
    cc30:	e1a07002 	mov	r7, r2
    cc34:	e1a05003 	mov	r5, r3
    es = ERR_get_state();
    cc38:	ebffffb0 	bl	cb00 <ERR_get_state>
    if (es == NULL)
    cc3c:	e2504000 	subs	r4, r0, #0
    cc40:	08bd81f0 	popeq	{r4, r5, r6, r7, r8, pc}
    es->top = (es->top + 1) % ERR_NUM_ERRORS;
    cc44:	e594c180 	ldr	ip, [r4, #384]	; 0x180
    if (es->top == es->bottom)
    cc48:	e5942184 	ldr	r2, [r4, #388]	; 0x184
    es->top = (es->top + 1) % ERR_NUM_ERRORS;
    cc4c:	e28cc001 	add	ip, ip, #1
    cc50:	e27c3000 	rsbs	r3, ip, #0
    cc54:	e20cc00f 	and	ip, ip, #15
    cc58:	e203300f 	and	r3, r3, #15
    cc5c:	5263c000 	rsbpl	ip, r3, #0
    if (es->top == es->bottom)
    cc60:	e15c0002 	cmp	ip, r2
    es->top = (es->top + 1) % ERR_NUM_ERRORS;
    cc64:	e584c180 	str	ip, [r4, #384]	; 0x180
    if (es->top == es->bottom)
    cc68:	0a000013 	beq	ccbc <ERR_put_error+0x98>
    es->err_buffer[es->top] = ERR_PACK(lib, func, reason);
    cc6c:	e3a00a0f 	mov	r0, #61440	; 0xf000
    cc70:	e084310c 	add	r3, r4, ip, lsl #2
    cc74:	e34000ff 	movt	r0, #255	; 0xff
    cc78:	e0000608 	and	r0, r0, r8, lsl #12
    es->err_flags[es->top] = 0;
    cc7c:	e3a08000 	mov	r8, #0
    cc80:	e784810c 	str	r8, [r4, ip, lsl #2]
    es->err_buffer[es->top] = ERR_PACK(lib, func, reason);
    cc84:	e7eb2057 	ubfx	r2, r7, #0, #12
    cc88:	e1800c06 	orr	r0, r0, r6, lsl #24
    err_clear_data(es, es->top);
    cc8c:	e59310c0 	ldr	r1, [r3, #192]	; 0xc0
    es->err_file[es->top] = file;
    cc90:	e5835100 	str	r5, [r3, #256]	; 0x100
    es->err_buffer[es->top] = ERR_PACK(lib, func, reason);
    cc94:	e1802002 	orr	r2, r0, r2
    es->err_line[es->top] = line;
    cc98:	e59d0018 	ldr	r0, [sp, #24]
    err_clear_data(es, es->top);
    cc9c:	e3110001 	tst	r1, #1
    es->err_buffer[es->top] = ERR_PACK(lib, func, reason);
    cca0:	e5832040 	str	r2, [r3, #64]	; 0x40
    es->err_line[es->top] = line;
    cca4:	e5830140 	str	r0, [r3, #320]	; 0x140
    err_clear_data(es, es->top);
    cca8:	1a00000a 	bne	ccd8 <ERR_put_error+0xb4>
    ccac:	e28cc030 	add	ip, ip, #48	; 0x30
    ccb0:	e3a03000 	mov	r3, #0
    ccb4:	e784310c 	str	r3, [r4, ip, lsl #2]
}
    ccb8:	e8bd81f0 	pop	{r4, r5, r6, r7, r8, pc}
        es->bottom = (es->bottom + 1) % ERR_NUM_ERRORS;
    ccbc:	e28c3001 	add	r3, ip, #1
    ccc0:	e2732000 	rsbs	r2, r3, #0
    ccc4:	e203300f 	and	r3, r3, #15
    ccc8:	e202200f 	and	r2, r2, #15
    cccc:	52623000 	rsbpl	r3, r2, #0
    ccd0:	e5843184 	str	r3, [r4, #388]	; 0x184
    ccd4:	eaffffe4 	b	cc6c <ERR_put_error+0x48>
    err_clear_data(es, es->top);
    ccd8:	e30f1f8c 	movw	r1, #65420	; 0xff8c
    ccdc:	e5930080 	ldr	r0, [r3, #128]	; 0x80
    cce0:	e3401000 	movt	r1, #0
    cce4:	e1a02008 	mov	r2, r8
    cce8:	eb000474 	bl	dec0 <CRYPTO_free>
    ccec:	e594c180 	ldr	ip, [r4, #384]	; 0x180
    ccf0:	e28c3020 	add	r3, ip, #32
    ccf4:	e7848103 	str	r8, [r4, r3, lsl #2]
    ccf8:	eaffffeb 	b	ccac <ERR_put_error+0x88>

0000ccfc <ERR_clear_error>:
{
    ccfc:	e92d47f0 	push	{r4, r5, r6, r7, r8, r9, sl, lr}
    es = ERR_get_state();
    cd00:	ebffff7e 	bl	cb00 <ERR_get_state>
    if (es == NULL)
    cd04:	e2509000 	subs	r9, r0, #0
    cd08:	08bd87f0 	popeq	{r4, r5, r6, r7, r8, r9, sl, pc}
        err_clear(es, i);
    cd0c:	e30f8f8c 	movw	r8, #65420	; 0xff8c
    cd10:	e2494004 	sub	r4, r9, #4
    cd14:	e3408000 	movt	r8, #0
    cd18:	e289703c 	add	r7, r9, #60	; 0x3c
    cd1c:	e3a05000 	mov	r5, #0
    cd20:	e3e06000 	mvn	r6, #0
    cd24:	ea000006 	b	cd44 <ERR_clear_error+0x48>
    cd28:	e58450c4 	str	r5, [r4, #196]	; 0xc4
    cd2c:	e5a45004 	str	r5, [r4, #4]!
    for (i = 0; i < ERR_NUM_ERRORS; i++) {
    cd30:	e1540007 	cmp	r4, r7
        err_clear(es, i);
    cd34:	e5845040 	str	r5, [r4, #64]	; 0x40
    cd38:	e5845100 	str	r5, [r4, #256]	; 0x100
    cd3c:	e5846140 	str	r6, [r4, #320]	; 0x140
    for (i = 0; i < ERR_NUM_ERRORS; i++) {
    cd40:	0a000008 	beq	cd68 <ERR_clear_error+0x6c>
        err_clear(es, i);
    cd44:	e59430c4 	ldr	r3, [r4, #196]	; 0xc4
    cd48:	e3130001 	tst	r3, #1
    cd4c:	0afffff5 	beq	cd28 <ERR_clear_error+0x2c>
    cd50:	e3a02000 	mov	r2, #0
    cd54:	e1a01008 	mov	r1, r8
    cd58:	e5940084 	ldr	r0, [r4, #132]	; 0x84
    cd5c:	eb000457 	bl	dec0 <CRYPTO_free>
    cd60:	e5845084 	str	r5, [r4, #132]	; 0x84
    cd64:	eaffffef 	b	cd28 <ERR_clear_error+0x2c>
    es->top = es->bottom = 0;
    cd68:	e5895184 	str	r5, [r9, #388]	; 0x184
    cd6c:	e5895180 	str	r5, [r9, #384]	; 0x180
}
    cd70:	e8bd87f0 	pop	{r4, r5, r6, r7, r8, r9, sl, pc}

0000cd74 <aes_cbc_cipher>:
    return 1;
}

static int aes_cbc_cipher(EVP_CIPHER_CTX *ctx, unsigned char *out,
                          const unsigned char *in, size_t len)
{
    cd74:	e92d47f0 	push	{r4, r5, r6, r7, r8, r9, sl, lr}
    cd78:	e24dd008 	sub	sp, sp, #8
    cd7c:	e1a05000 	mov	r5, r0
    cd80:	e1a08001 	mov	r8, r1
    cd84:	e1a07002 	mov	r7, r2
    cd88:	e1a09003 	mov	r9, r3
    EVP_AES_KEY *dat = EVP_C_DATA(EVP_AES_KEY,ctx);
    cd8c:	eb0001cf 	bl	d4d0 <EVP_CIPHER_CTX_get_cipher_data>

    if (dat->stream.cbc)
    cd90:	e59060fc 	ldr	r6, [r0, #252]	; 0xfc
    EVP_AES_KEY *dat = EVP_C_DATA(EVP_AES_KEY,ctx);
    cd94:	e1a04000 	mov	r4, r0
        (*dat->stream.cbc) (in, out, len, &dat->ks,
    cd98:	e1a00005 	mov	r0, r5
    if (dat->stream.cbc)
    cd9c:	e3560000 	cmp	r6, #0
    cda0:	0a00000d 	beq	cddc <aes_cbc_cipher+0x68>
        (*dat->stream.cbc) (in, out, len, &dat->ks,
    cda4:	eb0001d2 	bl	d4f4 <EVP_CIPHER_CTX_iv_noconst>
    cda8:	e1a0a000 	mov	sl, r0
    cdac:	e1a00005 	mov	r0, r5
    cdb0:	eb0001c2 	bl	d4c0 <EVP_CIPHER_CTX_encrypting>
    cdb4:	e58da000 	str	sl, [sp]
    cdb8:	e1a03004 	mov	r3, r4
    cdbc:	e58d0004 	str	r0, [sp, #4]
    cdc0:	e1a02009 	mov	r2, r9
    cdc4:	e1a00007 	mov	r0, r7
    cdc8:	e1a01008 	mov	r1, r8
    cdcc:	e12fff36 	blx	r6
    else
        CRYPTO_cbc128_decrypt(in, out, len, &dat->ks,
                              EVP_CIPHER_CTX_iv_noconst(ctx), dat->block);

    return 1;
}
    cdd0:	e3a00001 	mov	r0, #1
    cdd4:	e28dd008 	add	sp, sp, #8
    cdd8:	e8bd87f0 	pop	{r4, r5, r6, r7, r8, r9, sl, pc}
    else if (EVP_CIPHER_CTX_encrypting(ctx))
    cddc:	eb0001b7 	bl	d4c0 <EVP_CIPHER_CTX_encrypting>
    cde0:	e3500000 	cmp	r0, #0
        CRYPTO_cbc128_encrypt(in, out, len, &dat->ks,
    cde4:	e1a00005 	mov	r0, r5
    else if (EVP_CIPHER_CTX_encrypting(ctx))
    cde8:	1a00000b 	bne	ce1c <aes_cbc_cipher+0xa8>
        CRYPTO_cbc128_decrypt(in, out, len, &dat->ks,
    cdec:	eb0001c0 	bl	d4f4 <EVP_CIPHER_CTX_iv_noconst>
    cdf0:	e594c0f8 	ldr	ip, [r4, #248]	; 0xf8
    cdf4:	e1a02009 	mov	r2, r9
    cdf8:	e58d0000 	str	r0, [sp]
    cdfc:	e1a01008 	mov	r1, r8
    ce00:	e1a00007 	mov	r0, r7
    ce04:	e1a03004 	mov	r3, r4
    ce08:	e58dc004 	str	ip, [sp, #4]
    ce0c:	eb0004b6 	bl	e0ec <CRYPTO_cbc128_decrypt>
}
    ce10:	e3a00001 	mov	r0, #1
    ce14:	e28dd008 	add	sp, sp, #8
    ce18:	e8bd87f0 	pop	{r4, r5, r6, r7, r8, r9, sl, pc}
        CRYPTO_cbc128_encrypt(in, out, len, &dat->ks,
    ce1c:	eb0001b4 	bl	d4f4 <EVP_CIPHER_CTX_iv_noconst>
    ce20:	e594c0f8 	ldr	ip, [r4, #248]	; 0xf8
    ce24:	e1a02009 	mov	r2, r9
    ce28:	e58d0000 	str	r0, [sp]
    ce2c:	e1a01008 	mov	r1, r8
    ce30:	e1a00007 	mov	r0, r7
    ce34:	e1a03004 	mov	r3, r4
    ce38:	e58dc004 	str	ip, [sp, #4]
    ce3c:	eb000470 	bl	e004 <CRYPTO_cbc128_encrypt>
}
    ce40:	e3a00001 	mov	r0, #1
    ce44:	e28dd008 	add	sp, sp, #8
    ce48:	e8bd87f0 	pop	{r4, r5, r6, r7, r8, r9, sl, pc}

0000ce4c <aes_init_key>:
{
    ce4c:	e92d41f0 	push	{r4, r5, r6, r7, r8, lr}
    ce50:	e1a06000 	mov	r6, r0
    ce54:	e24dd008 	sub	sp, sp, #8
    ce58:	e1a08003 	mov	r8, r3
    ce5c:	e1a07001 	mov	r7, r1
    mode = EVP_CIPHER_CTX_mode(ctx);
    ce60:	e3a04007 	mov	r4, #7
    EVP_AES_KEY *dat = EVP_C_DATA(EVP_AES_KEY,ctx);
    ce64:	eb000199 	bl	d4d0 <EVP_CIPHER_CTX_get_cipher_data>
    ce68:	e1a05000 	mov	r5, r0
    mode = EVP_CIPHER_CTX_mode(ctx);
    ce6c:	e1a00006 	mov	r0, r6
    ce70:	eb000190 	bl	d4b8 <EVP_CIPHER_CTX_cipher>
    ce74:	e340400f 	movt	r4, #15
    ce78:	eb000192 	bl	d4c8 <EVP_CIPHER_flags>
    ce7c:	e0044000 	and	r4, r4, r0
                                      EVP_CIPHER_CTX_key_length(ctx) * 8,
    ce80:	e1a00006 	mov	r0, r6
    if ((mode == EVP_CIPH_ECB_MODE || mode == EVP_CIPH_CBC_MODE)
    ce84:	e2443001 	sub	r3, r4, #1
        && !enc) {
    ce88:	e3530001 	cmp	r3, #1
    ce8c:	93580000 	cmpls	r8, #0
    ce90:	0a00001a 	beq	cf00 <aes_init_key+0xb4>
        ret = AES_set_encrypt_key(key, EVP_CIPHER_CTX_key_length(ctx) * 8,
    ce94:	eb000198 	bl	d4fc <EVP_CIPHER_CTX_key_length>
    ce98:	e1a02005 	mov	r2, r5
    ce9c:	e1a01180 	lsl	r1, r0, #3
    cea0:	e1a00007 	mov	r0, r7
    cea4:	ebfff90f 	bl	b2e8 <AES_set_encrypt_key>
            (cbc128_f) AES_cbc_encrypt : NULL;
    cea8:	e30b32bc 	movw	r3, #45756	; 0xb2bc
    ceac:	e3540002 	cmp	r4, #2
        dat->block = (block128_f) AES_encrypt;
    ceb0:	e30b297c 	movw	r2, #47484	; 0xb97c
            (cbc128_f) AES_cbc_encrypt : NULL;
    ceb4:	e3403000 	movt	r3, #0
        dat->block = (block128_f) AES_encrypt;
    ceb8:	e3402000 	movt	r2, #0
            (cbc128_f) AES_cbc_encrypt : NULL;
    cebc:	13a03000 	movne	r3, #0
        dat->block = (block128_f) AES_encrypt;
    cec0:	e1c52ff8 	strd	r2, [r5, #248]	; 0xf8
    if (ret < 0) {
    cec4:	e3500000 	cmp	r0, #0
    return 1;
    cec8:	a3a00001 	movge	r0, #1
    if (ret < 0) {
    cecc:	ba000001 	blt	ced8 <aes_init_key+0x8c>
}
    ced0:	e28dd008 	add	sp, sp, #8
    ced4:	e8bd81f0 	pop	{r4, r5, r6, r7, r8, pc}
        EVPerr(EVP_F_AES_INIT_KEY, EVP_R_AES_KEY_SETUP_FAILED);
    ced8:	e3a04000 	mov	r4, #0
    cedc:	e3a0208f 	mov	r2, #143	; 0x8f
    cee0:	e58d4000 	str	r4, [sp]
    cee4:	e1a03004 	mov	r3, r4
    cee8:	e3a01085 	mov	r1, #133	; 0x85
    ceec:	e3a00006 	mov	r0, #6
    cef0:	ebffff4b 	bl	cc24 <ERR_put_error>
        return 0;
    cef4:	e1a00004 	mov	r0, r4
}
    cef8:	e28dd008 	add	sp, sp, #8
    cefc:	e8bd81f0 	pop	{r4, r5, r6, r7, r8, pc}
                                      EVP_CIPHER_CTX_key_length(ctx) * 8,
    cf00:	eb00017d 	bl	d4fc <EVP_CIPHER_CTX_key_length>
            ret = AES_set_decrypt_key(key,
    cf04:	e1a02005 	mov	r2, r5
    cf08:	e1a01180 	lsl	r1, r0, #3
    cf0c:	e1a00007 	mov	r0, r7
    cf10:	ebfffa11 	bl	b75c <AES_set_decrypt_key>
                (cbc128_f) AES_cbc_encrypt : NULL;
    cf14:	e30b32bc 	movw	r3, #45756	; 0xb2bc
    cf18:	e3540002 	cmp	r4, #2
            dat->block = (block128_f) AES_decrypt;
    cf1c:	e30b2e7c 	movw	r2, #48764	; 0xbe7c
                (cbc128_f) AES_cbc_encrypt : NULL;
    cf20:	e3403000 	movt	r3, #0
            dat->block = (block128_f) AES_decrypt;
    cf24:	e3402000 	movt	r2, #0
                (cbc128_f) AES_cbc_encrypt : NULL;
    cf28:	13a03000 	movne	r3, #0
            dat->block = (block128_f) AES_decrypt;
    cf2c:	e1c52ff8 	strd	r2, [r5, #248]	; 0xf8
            dat->stream.cbc = mode == EVP_CIPH_CBC_MODE ?
    cf30:	eaffffe3 	b	cec4 <aes_init_key+0x78>

0000cf34 <EVP_aes_128_cbc>:
                              dat->block);
    EVP_CIPHER_CTX_set_num(ctx, num);
    return 1;
}

BLOCK_CIPHER_generic_pack(NID_aes, 128, 0)
    cf34:	e30206cc 	movw	r0, #9932	; 0x26cc
    cf38:	e3400001 	movt	r0, #1
    cf3c:	e12fff1e 	bx	lr

0000cf40 <EVP_CIPHER_CTX_reset>:
#include <openssl/engine.h>
#include "crypto/evp.h"
#include "evp_local.h"

int EVP_CIPHER_CTX_reset(EVP_CIPHER_CTX *c)
{
    cf40:	e92d4010 	push	{r4, lr}
    if (c == NULL)
    cf44:	e2504000 	subs	r4, r0, #0
    cf48:	0a000019 	beq	cfb4 <EVP_CIPHER_CTX_reset+0x74>
        return 1;
    if (c->cipher != NULL) {
    cf4c:	e5943000 	ldr	r3, [r4]
    cf50:	e3530000 	cmp	r3, #0
    cf54:	0a000019 	beq	cfc0 <EVP_CIPHER_CTX_reset+0x80>
        if (c->cipher->cleanup && !c->cipher->cleanup(c))
    cf58:	e593301c 	ldr	r3, [r3, #28]
    cf5c:	e3530000 	cmp	r3, #0
    cf60:	0a000002 	beq	cf70 <EVP_CIPHER_CTX_reset+0x30>
    cf64:	e12fff33 	blx	r3
    cf68:	e3500000 	cmp	r0, #0
    cf6c:	08bd8010 	popeq	{r4, pc}
            return 0;
        /* Cleanse cipher context data */
        if (c->cipher_data && c->cipher->ctx_size)
    cf70:	e5940060 	ldr	r0, [r4, #96]	; 0x60
    cf74:	e3500000 	cmp	r0, #0
    cf78:	0a000003 	beq	cf8c <EVP_CIPHER_CTX_reset+0x4c>
    cf7c:	e5943000 	ldr	r3, [r4]
    cf80:	e5931020 	ldr	r1, [r3, #32]
    cf84:	e3510000 	cmp	r1, #0
    cf88:	1a00000b 	bne	cfbc <EVP_CIPHER_CTX_reset+0x7c>
            OPENSSL_cleanse(c->cipher_data, c->cipher->ctx_size);
    }
    OPENSSL_free(c->cipher_data);
    cf8c:	e30f1f8c 	movw	r1, #65420	; 0xff8c
    cf90:	e3a02000 	mov	r2, #0
    cf94:	e3401000 	movt	r1, #0
    cf98:	eb0003c8 	bl	dec0 <CRYPTO_free>
#ifndef OPENSSL_NO_ENGINE
    ENGINE_finish(c->engine);
#endif
    memset(c, 0, sizeof(*c));
    cf9c:	e1a00004 	mov	r0, r4
    cfa0:	e3a0208c 	mov	r2, #140	; 0x8c
    cfa4:	e3a01000 	mov	r1, #0
    cfa8:	eb000a60 	bl	f930 <memset>
    cfac:	e3a00001 	mov	r0, #1
    cfb0:	e8bd8010 	pop	{r4, pc}
        return 1;
    cfb4:	e3a00001 	mov	r0, #1
    return 1;
}
    cfb8:	e8bd8010 	pop	{r4, pc}
            OPENSSL_cleanse(c->cipher_data, c->cipher->ctx_size);
    cfbc:	eb0003fe 	bl	dfbc <OPENSSL_cleanse>
    cfc0:	e5940060 	ldr	r0, [r4, #96]	; 0x60
    cfc4:	eafffff0 	b	cf8c <EVP_CIPHER_CTX_reset+0x4c>

0000cfc8 <EVP_CIPHER_CTX_new>:

EVP_CIPHER_CTX *EVP_CIPHER_CTX_new(void)
{
    return OPENSSL_zalloc(sizeof(EVP_CIPHER_CTX));
    cfc8:	e30f1f8c 	movw	r1, #65420	; 0xff8c
    cfcc:	e3a02000 	mov	r2, #0
    cfd0:	e3401000 	movt	r1, #0
    cfd4:	e3a0008c 	mov	r0, #140	; 0x8c
    cfd8:	ea0003de 	b	df58 <CRYPTO_zalloc>

0000cfdc <EVP_CIPHER_CTX_free>:
}

void EVP_CIPHER_CTX_free(EVP_CIPHER_CTX *ctx)
{
    cfdc:	e92d4010 	push	{r4, lr}
    cfe0:	e1a04000 	mov	r4, r0
    EVP_CIPHER_CTX_reset(ctx);
    cfe4:	ebffffd5 	bl	cf40 <EVP_CIPHER_CTX_reset>
    OPENSSL_free(ctx);
    cfe8:	e30f1f8c 	movw	r1, #65420	; 0xff8c
    cfec:	e1a00004 	mov	r0, r4
    cff0:	e3401000 	movt	r1, #0
    cff4:	e3a02000 	mov	r2, #0
}
    cff8:	e8bd4010 	pop	{r4, lr}
    OPENSSL_free(ctx);
    cffc:	ea0003af 	b	dec0 <CRYPTO_free>

0000d000 <EVP_CIPHER_CTX_ctrl>:
        ctx->flags |= EVP_CIPH_NO_PADDING;
    return 1;
}

int EVP_CIPHER_CTX_ctrl(EVP_CIPHER_CTX *ctx, int type, int arg, void *ptr)
{
    d000:	e92d4010 	push	{r4, lr}
    d004:	e24dd008 	sub	sp, sp, #8
    int ret;

    if (!ctx->cipher) {
    d008:	e5904000 	ldr	r4, [r0]
    d00c:	e3540000 	cmp	r4, #0
    d010:	0a000011 	beq	d05c <EVP_CIPHER_CTX_ctrl+0x5c>
        EVPerr(EVP_F_EVP_CIPHER_CTX_CTRL, EVP_R_NO_CIPHER_SET);
        return 0;
    }

    if (!ctx->cipher->ctrl) {
    d014:	e594402c 	ldr	r4, [r4, #44]	; 0x2c
    d018:	e3540000 	cmp	r4, #0
    d01c:	0a000017 	beq	d080 <EVP_CIPHER_CTX_ctrl+0x80>
        EVPerr(EVP_F_EVP_CIPHER_CTX_CTRL, EVP_R_CTRL_NOT_IMPLEMENTED);
        return 0;
    }

    ret = ctx->cipher->ctrl(ctx, type, arg, ptr);
    d020:	e12fff34 	blx	r4
    if (ret == -1) {
    d024:	e3700001 	cmn	r0, #1
    d028:	0a000001 	beq	d034 <EVP_CIPHER_CTX_ctrl+0x34>
        EVPerr(EVP_F_EVP_CIPHER_CTX_CTRL,
               EVP_R_CTRL_OPERATION_NOT_IMPLEMENTED);
        return 0;
    }
    return ret;
}
    d02c:	e28dd008 	add	sp, sp, #8
    d030:	e8bd8010 	pop	{r4, pc}
        EVPerr(EVP_F_EVP_CIPHER_CTX_CTRL,
    d034:	e3a04000 	mov	r4, #0
    d038:	e3a02085 	mov	r2, #133	; 0x85
    d03c:	e58d4000 	str	r4, [sp]
    d040:	e1a03004 	mov	r3, r4
    d044:	e3a0107c 	mov	r1, #124	; 0x7c
    d048:	e3a00006 	mov	r0, #6
    d04c:	ebfffef4 	bl	cc24 <ERR_put_error>
        return 0;
    d050:	e1a00004 	mov	r0, r4
}
    d054:	e28dd008 	add	sp, sp, #8
    d058:	e8bd8010 	pop	{r4, pc}
        EVPerr(EVP_F_EVP_CIPHER_CTX_CTRL, EVP_R_NO_CIPHER_SET);
    d05c:	e58d4000 	str	r4, [sp]
    d060:	e1a03004 	mov	r3, r4
    d064:	e3a02083 	mov	r2, #131	; 0x83
    d068:	e3a0107c 	mov	r1, #124	; 0x7c
    d06c:	e3a00006 	mov	r0, #6
    d070:	ebfffeeb 	bl	cc24 <ERR_put_error>
        return 0;
    d074:	e1a00004 	mov	r0, r4
}
    d078:	e28dd008 	add	sp, sp, #8
    d07c:	e8bd8010 	pop	{r4, pc}
        EVPerr(EVP_F_EVP_CIPHER_CTX_CTRL, EVP_R_CTRL_NOT_IMPLEMENTED);
    d080:	e3a00006 	mov	r0, #6
    d084:	e58d4000 	str	r4, [sp]
    d088:	e1a03004 	mov	r3, r4
    d08c:	e3a02084 	mov	r2, #132	; 0x84
    d090:	e3a0107c 	mov	r1, #124	; 0x7c
    d094:	ebfffee2 	bl	cc24 <ERR_put_error>
    d098:	e1a00004 	mov	r0, r4
    d09c:	eaffffe2 	b	d02c <EVP_CIPHER_CTX_ctrl+0x2c>

0000d0a0 <EVP_CipherInit_ex>:
{
    d0a0:	e92d41f0 	push	{r4, r5, r6, r7, r8, lr}
    d0a4:	e24dd008 	sub	sp, sp, #8
    d0a8:	e59d5024 	ldr	r5, [sp, #36]	; 0x24
    d0ac:	e1a04000 	mov	r4, r0
    d0b0:	e1a06001 	mov	r6, r1
    d0b4:	e1a07003 	mov	r7, r3
    if (enc == -1)
    d0b8:	e3750001 	cmn	r5, #1
        enc = ctx->encrypt;
    d0bc:	05905008 	ldreq	r5, [r0, #8]
    if (enc == -1)
    d0c0:	0a000002 	beq	d0d0 <EVP_CipherInit_ex+0x30>
        if (enc)
    d0c4:	e2955000 	adds	r5, r5, #0
    d0c8:	13a05001 	movne	r5, #1
        ctx->encrypt = enc;
    d0cc:	e5805008 	str	r5, [r0, #8]
    if (cipher) {
    d0d0:	e3560000 	cmp	r6, #0
    d0d4:	e5943000 	ldr	r3, [r4]
    d0d8:	0a00005b 	beq	d24c <EVP_CipherInit_ex+0x1ac>
        if (ctx->cipher) {
    d0dc:	e3530000 	cmp	r3, #0
    d0e0:	0a000004 	beq	d0f8 <EVP_CipherInit_ex+0x58>
            unsigned long flags = ctx->flags;
    d0e4:	e594805c 	ldr	r8, [r4, #92]	; 0x5c
            EVP_CIPHER_CTX_reset(ctx);
    d0e8:	e1a00004 	mov	r0, r4
    d0ec:	ebffff93 	bl	cf40 <EVP_CIPHER_CTX_reset>
            ctx->encrypt = enc;
    d0f0:	e5845008 	str	r5, [r4, #8]
            ctx->flags = flags;
    d0f4:	e584805c 	str	r8, [r4, #92]	; 0x5c
        if (ctx->cipher->ctx_size) {
    d0f8:	e5960020 	ldr	r0, [r6, #32]
        ctx->cipher = cipher;
    d0fc:	e5846000 	str	r6, [r4]
        if (ctx->cipher->ctx_size) {
    d100:	e3500000 	cmp	r0, #0
            ctx->cipher_data = NULL;
    d104:	01a03006 	moveq	r3, r6
    d108:	05840060 	streq	r0, [r4, #96]	; 0x60
        if (ctx->cipher->ctx_size) {
    d10c:	1a00003c 	bne	d204 <EVP_CipherInit_ex+0x164>
        if (ctx->cipher->flags & EVP_CIPH_CTRL_INIT) {
    d110:	e5930010 	ldr	r0, [r3, #16]
        ctx->flags &= EVP_CIPHER_CTX_FLAG_WRAP_ALLOW;
    d114:	e594205c 	ldr	r2, [r4, #92]	; 0x5c
        ctx->key_len = cipher->key_len;
    d118:	e5961008 	ldr	r1, [r6, #8]
        if (ctx->cipher->flags & EVP_CIPH_CTRL_INIT) {
    d11c:	e3100040 	tst	r0, #64	; 0x40
        ctx->flags &= EVP_CIPHER_CTX_FLAG_WRAP_ALLOW;
    d120:	e2022001 	and	r2, r2, #1
        ctx->key_len = cipher->key_len;
    d124:	e5841058 	str	r1, [r4, #88]	; 0x58
        ctx->flags &= EVP_CIPHER_CTX_FLAG_WRAP_ALLOW;
    d128:	e584205c 	str	r2, [r4, #92]	; 0x5c
        if (ctx->cipher->flags & EVP_CIPH_CTRL_INIT) {
    d12c:	1a00003d 	bne	d228 <EVP_CipherInit_ex+0x188>
    OPENSSL_assert(ctx->cipher->block_size == 1
    d130:	e5932004 	ldr	r2, [r3, #4]
    d134:	e2423008 	sub	r3, r2, #8
    d138:	e3c33008 	bic	r3, r3, #8
    d13c:	e3520001 	cmp	r2, #1
    d140:	13530000 	cmpne	r3, #0
    d144:	1a000090 	bne	d38c <EVP_CipherInit_ex+0x2ec>
    if (!(ctx->flags & EVP_CIPHER_CTX_FLAG_WRAP_ALLOW)
    d148:	e594305c 	ldr	r3, [r4, #92]	; 0x5c
    d14c:	e2136001 	ands	r6, r3, #1
    d150:	0a00001a 	beq	d1c0 <EVP_CipherInit_ex+0x120>
    if (!(EVP_CIPHER_flags(EVP_CIPHER_CTX_cipher(ctx)) & EVP_CIPH_CUSTOM_IV)) {
    d154:	e1a00004 	mov	r0, r4
    d158:	eb0000d6 	bl	d4b8 <EVP_CIPHER_CTX_cipher>
    d15c:	eb0000d9 	bl	d4c8 <EVP_CIPHER_flags>
    d160:	e3100010 	tst	r0, #16
    d164:	0a000041 	beq	d270 <EVP_CipherInit_ex+0x1d0>
    if (key || (ctx->cipher->flags & EVP_CIPH_ALWAYS_CALL_INIT)) {
    d168:	e3570000 	cmp	r7, #0
    d16c:	e5943000 	ldr	r3, [r4]
    d170:	0a000081 	beq	d37c <EVP_CipherInit_ex+0x2dc>
        if (!ctx->cipher->init(ctx, key, iv, enc))
    d174:	e5936014 	ldr	r6, [r3, #20]
    d178:	e1a01007 	mov	r1, r7
    d17c:	e1a03005 	mov	r3, r5
    d180:	e59d2020 	ldr	r2, [sp, #32]
    d184:	e1a00004 	mov	r0, r4
    d188:	e12fff36 	blx	r6
    d18c:	e2506000 	subs	r6, r0, #0
    d190:	0a000007 	beq	d1b4 <EVP_CipherInit_ex+0x114>
    d194:	e5943000 	ldr	r3, [r4]
    ctx->block_mask = ctx->cipher->block_size - 1;
    d198:	e5933004 	ldr	r3, [r3, #4]
    return 1;
    d19c:	e3a06001 	mov	r6, #1
    ctx->buf_len = 0;
    d1a0:	e3a02000 	mov	r2, #0
    d1a4:	e584200c 	str	r2, [r4, #12]
    ctx->block_mask = ctx->cipher->block_size - 1;
    d1a8:	e2433001 	sub	r3, r3, #1
    ctx->final_used = 0;
    d1ac:	e5842064 	str	r2, [r4, #100]	; 0x64
    ctx->block_mask = ctx->cipher->block_size - 1;
    d1b0:	e5843068 	str	r3, [r4, #104]	; 0x68
}
    d1b4:	e1a00006 	mov	r0, r6
    d1b8:	e28dd008 	add	sp, sp, #8
    d1bc:	e8bd81f0 	pop	{r4, r5, r6, r7, r8, pc}
        && EVP_CIPHER_CTX_mode(ctx) == EVP_CIPH_WRAP_MODE) {
    d1c0:	e1a00004 	mov	r0, r4
    d1c4:	eb0000bb 	bl	d4b8 <EVP_CIPHER_CTX_cipher>
    d1c8:	eb0000be 	bl	d4c8 <EVP_CIPHER_flags>
    d1cc:	e3a03007 	mov	r3, #7
    d1d0:	e3a02002 	mov	r2, #2
    d1d4:	e340300f 	movt	r3, #15
    d1d8:	e3402001 	movt	r2, #1
    d1dc:	e0000003 	and	r0, r0, r3
    d1e0:	e1500002 	cmp	r0, r2
    d1e4:	1affffda 	bne	d154 <EVP_CipherInit_ex+0xb4>
        EVPerr(EVP_F_EVP_CIPHERINIT_EX, EVP_R_WRAP_MODE_NOT_ALLOWED);
    d1e8:	e58d6000 	str	r6, [sp]
    d1ec:	e1a03006 	mov	r3, r6
    d1f0:	e3a020aa 	mov	r2, #170	; 0xaa
    d1f4:	e3a0107b 	mov	r1, #123	; 0x7b
    d1f8:	e3a00006 	mov	r0, #6
    d1fc:	ebfffe88 	bl	cc24 <ERR_put_error>
        return 0;
    d200:	eaffffeb 	b	d1b4 <EVP_CipherInit_ex+0x114>
            ctx->cipher_data = OPENSSL_zalloc(ctx->cipher->ctx_size);
    d204:	e30f1f8c 	movw	r1, #65420	; 0xff8c
    d208:	e3a02000 	mov	r2, #0
    d20c:	e3401000 	movt	r1, #0
    d210:	eb000350 	bl	df58 <CRYPTO_zalloc>
            if (ctx->cipher_data == NULL) {
    d214:	e3500000 	cmp	r0, #0
            ctx->cipher_data = OPENSSL_zalloc(ctx->cipher->ctx_size);
    d218:	e5840060 	str	r0, [r4, #96]	; 0x60
            if (ctx->cipher_data == NULL) {
    d21c:	0a00004d 	beq	d358 <EVP_CipherInit_ex+0x2b8>
    d220:	e5943000 	ldr	r3, [r4]
    d224:	eaffffb9 	b	d110 <EVP_CipherInit_ex+0x70>
            if (!EVP_CIPHER_CTX_ctrl(ctx, EVP_CTRL_INIT, 0, NULL)) {
    d228:	e3a03000 	mov	r3, #0
    d22c:	e1a00004 	mov	r0, r4
    d230:	e1a02003 	mov	r2, r3
    d234:	e1a01003 	mov	r1, r3
    d238:	ebffff70 	bl	d000 <EVP_CIPHER_CTX_ctrl>
    d23c:	e2506000 	subs	r6, r0, #0
    d240:	0a000019 	beq	d2ac <EVP_CipherInit_ex+0x20c>
    d244:	e5943000 	ldr	r3, [r4]
    d248:	eaffffb8 	b	d130 <EVP_CipherInit_ex+0x90>
    } else if (!ctx->cipher) {
    d24c:	e3530000 	cmp	r3, #0
    d250:	1affffb6 	bne	d130 <EVP_CipherInit_ex+0x90>
        EVPerr(EVP_F_EVP_CIPHERINIT_EX, EVP_R_NO_CIPHER_SET);
    d254:	e58d6000 	str	r6, [sp]
    d258:	e1a03006 	mov	r3, r6
    d25c:	e3a02083 	mov	r2, #131	; 0x83
    d260:	e3a0107b 	mov	r1, #123	; 0x7b
    d264:	e3a00006 	mov	r0, #6
    d268:	ebfffe6d 	bl	cc24 <ERR_put_error>
        return 0;
    d26c:	eaffffd0 	b	d1b4 <EVP_CipherInit_ex+0x114>
        switch (EVP_CIPHER_CTX_mode(ctx)) {
    d270:	e1a00004 	mov	r0, r4
    d274:	eb00008f 	bl	d4b8 <EVP_CIPHER_CTX_cipher>
    d278:	eb000092 	bl	d4c8 <EVP_CIPHER_flags>
    d27c:	e3a03007 	mov	r3, #7
    d280:	e340300f 	movt	r3, #15
    d284:	e0000003 	and	r0, r0, r3
    d288:	e3500005 	cmp	r0, #5
    d28c:	979ff100 	ldrls	pc, [pc, r0, lsl #2]
    d290:	ea000049 	b	d3bc <EVP_CipherInit_ex+0x31c>
    d294:	0000d168 	.word	0x0000d168
    d298:	0000d168 	.word	0x0000d168
    d29c:	0000d2d4 	.word	0x0000d2d4
    d2a0:	0000d2cc 	.word	0x0000d2cc
    d2a4:	0000d2cc 	.word	0x0000d2cc
    d2a8:	0000d328 	.word	0x0000d328
                ctx->cipher = NULL;
    d2ac:	e5846000 	str	r6, [r4]
                EVPerr(EVP_F_EVP_CIPHERINIT_EX, EVP_R_INITIALIZATION_ERROR);
    d2b0:	e1a03006 	mov	r3, r6
    d2b4:	e58d6000 	str	r6, [sp]
    d2b8:	e3a02086 	mov	r2, #134	; 0x86
    d2bc:	e3a0107b 	mov	r1, #123	; 0x7b
    d2c0:	e3a00006 	mov	r0, #6
    d2c4:	ebfffe56 	bl	cc24 <ERR_put_error>
                return 0;
    d2c8:	eaffffb9 	b	d1b4 <EVP_CipherInit_ex+0x114>
            ctx->num = 0;
    d2cc:	e3a03000 	mov	r3, #0
    d2d0:	e5843050 	str	r3, [r4, #80]	; 0x50
            OPENSSL_assert(EVP_CIPHER_CTX_iv_length(ctx) <=
    d2d4:	e1a00004 	mov	r0, r4
    d2d8:	eb00007e 	bl	d4d8 <EVP_CIPHER_CTX_iv_length>
    d2dc:	e3500010 	cmp	r0, #16
    d2e0:	ca00002f 	bgt	d3a4 <EVP_CipherInit_ex+0x304>
            if (iv)
    d2e4:	e59d3020 	ldr	r3, [sp, #32]
    d2e8:	e2846010 	add	r6, r4, #16
    d2ec:	e3530000 	cmp	r3, #0
    d2f0:	0a000005 	beq	d30c <EVP_CipherInit_ex+0x26c>
                memcpy(ctx->oiv, iv, EVP_CIPHER_CTX_iv_length(ctx));
    d2f4:	e1a00004 	mov	r0, r4
    d2f8:	eb000076 	bl	d4d8 <EVP_CIPHER_CTX_iv_length>
    d2fc:	e59d1020 	ldr	r1, [sp, #32]
    d300:	e1a02000 	mov	r2, r0
    d304:	e1a00006 	mov	r0, r6
    d308:	eb00094d 	bl	f844 <memcpy>
            memcpy(ctx->iv, ctx->oiv, EVP_CIPHER_CTX_iv_length(ctx));
    d30c:	e1a00004 	mov	r0, r4
    d310:	eb000070 	bl	d4d8 <EVP_CIPHER_CTX_iv_length>
    d314:	e1a01006 	mov	r1, r6
    d318:	e1a02000 	mov	r2, r0
    d31c:	e2840020 	add	r0, r4, #32
    d320:	eb000947 	bl	f844 <memcpy>
            break;
    d324:	eaffff8f 	b	d168 <EVP_CipherInit_ex+0xc8>
            if (iv)
    d328:	e59d3020 	ldr	r3, [sp, #32]
    d32c:	e3530000 	cmp	r3, #0
            ctx->num = 0;
    d330:	e3a03000 	mov	r3, #0
    d334:	e5843050 	str	r3, [r4, #80]	; 0x50
            if (iv)
    d338:	0affff8a 	beq	d168 <EVP_CipherInit_ex+0xc8>
                memcpy(ctx->iv, iv, EVP_CIPHER_CTX_iv_length(ctx));
    d33c:	e1a00004 	mov	r0, r4
    d340:	eb000064 	bl	d4d8 <EVP_CIPHER_CTX_iv_length>
    d344:	e59d1020 	ldr	r1, [sp, #32]
    d348:	e1a02000 	mov	r2, r0
    d34c:	e2840020 	add	r0, r4, #32
    d350:	eb00093b 	bl	f844 <memcpy>
    d354:	eaffff83 	b	d168 <EVP_CipherInit_ex+0xc8>
                ctx->cipher = NULL;
    d358:	e5840000 	str	r0, [r4]
                EVPerr(EVP_F_EVP_CIPHERINIT_EX, ERR_R_MALLOC_FAILURE);
    d35c:	e1a03000 	mov	r3, r0
    d360:	e58d0000 	str	r0, [sp]
    d364:	e3a02041 	mov	r2, #65	; 0x41
    d368:	e3a0107b 	mov	r1, #123	; 0x7b
    d36c:	e3a00006 	mov	r0, #6
                return 0;
    d370:	e1a06003 	mov	r6, r3
                EVPerr(EVP_F_EVP_CIPHERINIT_EX, ERR_R_MALLOC_FAILURE);
    d374:	ebfffe2a 	bl	cc24 <ERR_put_error>
                return 0;
    d378:	eaffff8d 	b	d1b4 <EVP_CipherInit_ex+0x114>
    if (key || (ctx->cipher->flags & EVP_CIPH_ALWAYS_CALL_INIT)) {
    d37c:	e5932010 	ldr	r2, [r3, #16]
    d380:	e3120020 	tst	r2, #32
    d384:	0affff83 	beq	d198 <EVP_CipherInit_ex+0xf8>
    d388:	eaffff79 	b	d174 <EVP_CipherInit_ex+0xd4>
    OPENSSL_assert(ctx->cipher->block_size == 1
    d38c:	e30f1f8c 	movw	r1, #65420	; 0xff8c
    d390:	e3020700 	movw	r0, #9984	; 0x2700
    d394:	e3401000 	movt	r1, #0
    d398:	e3400001 	movt	r0, #1
    d39c:	e3a02000 	mov	r2, #0
    d3a0:	ebfffd9e 	bl	ca20 <OPENSSL_die>
            OPENSSL_assert(EVP_CIPHER_CTX_iv_length(ctx) <=
    d3a4:	e30f1f8c 	movw	r1, #65420	; 0xff8c
    d3a8:	e3020770 	movw	r0, #10096	; 0x2770
    d3ac:	e3401000 	movt	r1, #0
    d3b0:	e3400001 	movt	r0, #1
    d3b4:	e3a02000 	mov	r2, #0
    d3b8:	ebfffd98 	bl	ca20 <OPENSSL_die>
            return 0;
    d3bc:	e3a06000 	mov	r6, #0
    d3c0:	eaffff7b 	b	d1b4 <EVP_CipherInit_ex+0x114>

0000d3c4 <EVP_EncryptInit_ex>:
{
    d3c4:	e52de004 	push	{lr}		; (str lr, [sp, #-4]!)
    d3c8:	e24dd00c 	sub	sp, sp, #12
    d3cc:	e59dc010 	ldr	ip, [sp, #16]
    return EVP_CipherInit_ex(ctx, cipher, impl, key, iv, 1);
    d3d0:	e3a0e001 	mov	lr, #1
    d3d4:	e88d5000 	stm	sp, {ip, lr}
    d3d8:	ebffff30 	bl	d0a0 <EVP_CipherInit_ex>
}
    d3dc:	e28dd00c 	add	sp, sp, #12
    d3e0:	e49df004 	pop	{pc}		; (ldr pc, [sp], #4)

0000d3e4 <EVP_CIPHER_CTX_set_key_length>:
    if (c->cipher->flags & EVP_CIPH_CUSTOM_KEY_LENGTH)
    d3e4:	e5902000 	ldr	r2, [r0]
    d3e8:	e5922010 	ldr	r2, [r2, #16]
    d3ec:	e3120080 	tst	r2, #128	; 0x80
    d3f0:	1a000015 	bne	d44c <EVP_CIPHER_CTX_set_key_length+0x68>
    d3f4:	e1a03000 	mov	r3, r0
    if (c->key_len == keylen)
    d3f8:	e5900058 	ldr	r0, [r0, #88]	; 0x58
    d3fc:	e1500001 	cmp	r0, r1
    d400:	0a00000f 	beq	d444 <EVP_CIPHER_CTX_set_key_length+0x60>
    if ((keylen > 0) && (c->cipher->flags & EVP_CIPH_VARIABLE_LENGTH)) {
    d404:	e3510000 	cmp	r1, #0
    d408:	da000001 	ble	d414 <EVP_CIPHER_CTX_set_key_length+0x30>
    d40c:	e3120008 	tst	r2, #8
    d410:	1a000011 	bne	d45c <EVP_CIPHER_CTX_set_key_length+0x78>
{
    d414:	e92d4010 	push	{r4, lr}
    EVPerr(EVP_F_EVP_CIPHER_CTX_SET_KEY_LENGTH, EVP_R_INVALID_KEY_LENGTH);
    d418:	e3a04000 	mov	r4, #0
{
    d41c:	e24dd008 	sub	sp, sp, #8
    EVPerr(EVP_F_EVP_CIPHER_CTX_SET_KEY_LENGTH, EVP_R_INVALID_KEY_LENGTH);
    d420:	e3a02082 	mov	r2, #130	; 0x82
    d424:	e1a03004 	mov	r3, r4
    d428:	e3a0107a 	mov	r1, #122	; 0x7a
    d42c:	e58d4000 	str	r4, [sp]
    d430:	e3a00006 	mov	r0, #6
    d434:	ebfffdfa 	bl	cc24 <ERR_put_error>
    return 0;
    d438:	e1a00004 	mov	r0, r4
}
    d43c:	e28dd008 	add	sp, sp, #8
    d440:	e8bd8010 	pop	{r4, pc}
        return 1;
    d444:	e3a00001 	mov	r0, #1
}
    d448:	e12fff1e 	bx	lr
        return EVP_CIPHER_CTX_ctrl(c, EVP_CTRL_SET_KEY_LENGTH, keylen, NULL);
    d44c:	e1a02001 	mov	r2, r1
    d450:	e3a03000 	mov	r3, #0
    d454:	e3a01001 	mov	r1, #1
    d458:	eafffee8 	b	d000 <EVP_CIPHER_CTX_ctrl>
        c->key_len = keylen;
    d45c:	e5831058 	str	r1, [r3, #88]	; 0x58
        return 1;
    d460:	e3a00001 	mov	r0, #1
    d464:	e12fff1e 	bx	lr

0000d468 <EVP_CIPHER_CTX_iv_length.part.0>:
int EVP_CIPHER_iv_length(const EVP_CIPHER *cipher)
{
    return cipher->iv_len;
}

int EVP_CIPHER_CTX_iv_length(const EVP_CIPHER_CTX *ctx)
    d468:	e52de004 	push	{lr}		; (str lr, [sp, #-4]!)
    d46c:	e24dd00c 	sub	sp, sp, #12
{
    int i, rv;

    if ((EVP_CIPHER_flags(ctx->cipher) & EVP_CIPH_CUSTOM_IV_LENGTH) != 0) {
        rv = EVP_CIPHER_CTX_ctrl((EVP_CIPHER_CTX *)ctx, EVP_CTRL_GET_IVLEN,
    d470:	e28d3004 	add	r3, sp, #4
    d474:	e3a02000 	mov	r2, #0
    d478:	e3a01025 	mov	r1, #37	; 0x25
    d47c:	ebfffedf 	bl	d000 <EVP_CIPHER_CTX_ctrl>
                                 0, &i);
        return (rv == 1) ? i : -1;
    d480:	e3500001 	cmp	r0, #1
    d484:	059d0004 	ldreq	r0, [sp, #4]
    d488:	13e00000 	mvnne	r0, #0
    }
    return ctx->cipher->iv_len;
}
    d48c:	e28dd00c 	add	sp, sp, #12
    d490:	e49df004 	pop	{pc}		; (ldr pc, [sp], #4)

0000d494 <EVP_CIPHER_CTX_block_size>:
    return ctx->cipher->block_size;
    d494:	e5903000 	ldr	r3, [r0]
}
    d498:	e5930004 	ldr	r0, [r3, #4]
    d49c:	e12fff1e 	bx	lr

0000d4a0 <EVP_Cipher>:
    return ctx->cipher->do_cipher(ctx, out, in, inl);
    d4a0:	e590c000 	ldr	ip, [r0]
{
    d4a4:	e52de004 	push	{lr}		; (str lr, [sp, #-4]!)
    return ctx->cipher->do_cipher(ctx, out, in, inl);
    d4a8:	e59ce018 	ldr	lr, [ip, #24]
    d4ac:	e1a0c00e 	mov	ip, lr
}
    d4b0:	e49de004 	pop	{lr}		; (ldr lr, [sp], #4)
    return ctx->cipher->do_cipher(ctx, out, in, inl);
    d4b4:	e12fff1c 	bx	ip

0000d4b8 <EVP_CIPHER_CTX_cipher>:
}
    d4b8:	e5900000 	ldr	r0, [r0]
    d4bc:	e12fff1e 	bx	lr

0000d4c0 <EVP_CIPHER_CTX_encrypting>:
}
    d4c0:	e5900008 	ldr	r0, [r0, #8]
    d4c4:	e12fff1e 	bx	lr

0000d4c8 <EVP_CIPHER_flags>:
}
    d4c8:	e5900010 	ldr	r0, [r0, #16]
    d4cc:	e12fff1e 	bx	lr

0000d4d0 <EVP_CIPHER_CTX_get_cipher_data>:
}
    d4d0:	e5900060 	ldr	r0, [r0, #96]	; 0x60
    d4d4:	e12fff1e 	bx	lr

0000d4d8 <EVP_CIPHER_CTX_iv_length>:
    if ((EVP_CIPHER_flags(ctx->cipher) & EVP_CIPH_CUSTOM_IV_LENGTH) != 0) {
    d4d8:	e5903000 	ldr	r3, [r0]
    d4dc:	e5932010 	ldr	r2, [r3, #16]
    d4e0:	e3120b02 	tst	r2, #2048	; 0x800
    d4e4:	1a000001 	bne	d4f0 <EVP_CIPHER_CTX_iv_length+0x18>
}
    d4e8:	e593000c 	ldr	r0, [r3, #12]
    d4ec:	e12fff1e 	bx	lr
    d4f0:	eaffffdc 	b	d468 <EVP_CIPHER_CTX_iv_length.part.0>

0000d4f4 <EVP_CIPHER_CTX_iv_noconst>:
    d4f4:	e2800020 	add	r0, r0, #32
    d4f8:	e12fff1e 	bx	lr

0000d4fc <EVP_CIPHER_CTX_key_length>:
}

int EVP_CIPHER_CTX_key_length(const EVP_CIPHER_CTX *ctx)
{
    return ctx->key_len;
}
    d4fc:	e5900058 	ldr	r0, [r0, #88]	; 0x58
    d500:	e12fff1e 	bx	lr

0000d504 <do_ex_data_init_ossl_>:
static CRYPTO_RWLOCK *ex_data_lock = NULL;
static CRYPTO_ONCE ex_data_init = CRYPTO_ONCE_STATIC_INIT;

DEFINE_RUN_ONCE_STATIC(do_ex_data_init)
{
    if (!OPENSSL_init_crypto(0, NULL))
    d504:	e3a02000 	mov	r2, #0
DEFINE_RUN_ONCE_STATIC(do_ex_data_init)
    d508:	e92d4010 	push	{r4, lr}
    if (!OPENSSL_init_crypto(0, NULL))
    d50c:	e3a00000 	mov	r0, #0
    d510:	e3a01000 	mov	r1, #0
    d514:	eb000133 	bl	d9e8 <OPENSSL_init_crypto>
    d518:	e2502000 	subs	r2, r0, #0
    d51c:	0a000005 	beq	d538 <do_ex_data_init_ossl_+0x34>
        return 0;
    ex_data_lock = CRYPTO_THREAD_lock_new();
    d520:	eb0003a4 	bl	e3b8 <CRYPTO_THREAD_lock_new>
    return ex_data_lock != NULL;
    d524:	e2902000 	adds	r2, r0, #0
    ex_data_lock = CRYPTO_THREAD_lock_new();
    d528:	e303344c 	movw	r3, #13388	; 0x344c
    return ex_data_lock != NULL;
    d52c:	13a02001 	movne	r2, #1
    ex_data_lock = CRYPTO_THREAD_lock_new();
    d530:	e3403001 	movt	r3, #1
    d534:	e5830000 	str	r0, [r3]
DEFINE_RUN_ONCE_STATIC(do_ex_data_init)
    d538:	e3033404 	movw	r3, #13316	; 0x3404
    d53c:	e3403001 	movt	r3, #1
    d540:	e5832000 	str	r2, [r3]
    d544:	e8bd8010 	pop	{r4, pc}

0000d548 <get_and_lock>:
 */
static EX_CALLBACKS *get_and_lock(int class_index)
{
    EX_CALLBACKS *ip;

    if (class_index < 0 || class_index >= CRYPTO_EX_INDEX__COUNT) {
    d548:	e350000f 	cmp	r0, #15
{
    d54c:	e92d4010 	push	{r4, lr}
        CRYPTOerr(CRYPTO_F_GET_AND_LOCK, ERR_R_PASSED_INVALID_ARGUMENT);
    d550:	83a03000 	movhi	r3, #0
{
    d554:	e24dd008 	sub	sp, sp, #8
        CRYPTOerr(CRYPTO_F_GET_AND_LOCK, ERR_R_PASSED_INVALID_ARGUMENT);
    d558:	83a02007 	movhi	r2, #7
    if (class_index < 0 || class_index >= CRYPTO_EX_INDEX__COUNT) {
    d55c:	8a00001a 	bhi	d5cc <get_and_lock+0x84>
    d560:	e1a04000 	mov	r4, r0
        return NULL;
    }

    if (!RUN_ONCE(&ex_data_init, do_ex_data_init)) {
    d564:	e30d1504 	movw	r1, #54532	; 0xd504
    d568:	e3030448 	movw	r0, #13384	; 0x3448
    d56c:	e3401000 	movt	r1, #0
    d570:	e3400001 	movt	r0, #1
    d574:	eb0003aa 	bl	e424 <CRYPTO_THREAD_run_once>
    d578:	e3500000 	cmp	r0, #0
    d57c:	0a000010 	beq	d5c4 <get_and_lock+0x7c>
    d580:	e3033404 	movw	r3, #13316	; 0x3404
    d584:	e3403001 	movt	r3, #1
    d588:	e5933000 	ldr	r3, [r3]
    d58c:	e3530000 	cmp	r3, #0
    d590:	0a00000b 	beq	d5c4 <get_and_lock+0x7c>
        CRYPTOerr(CRYPTO_F_GET_AND_LOCK, ERR_R_MALLOC_FAILURE);
        return NULL;
    }

    if (ex_data_lock == NULL) {
    d594:	e303344c 	movw	r3, #13388	; 0x344c
    d598:	e3403001 	movt	r3, #1
    d59c:	e5930000 	ldr	r0, [r3]
    d5a0:	e3500000 	cmp	r0, #0
    d5a4:	0a000010 	beq	d5ec <get_and_lock+0xa4>
         * ignore this operation. We just treat it as an error.
         */
         return NULL;
    }

    ip = &ex_data[class_index];
    d5a8:	e3032408 	movw	r2, #13320	; 0x3408
    d5ac:	e3402001 	movt	r2, #1
    d5b0:	e0824104 	add	r4, r2, r4, lsl #2
    CRYPTO_THREAD_write_lock(ex_data_lock);
    d5b4:	eb000389 	bl	e3e0 <CRYPTO_THREAD_write_lock>
    return ip;
}
    d5b8:	e1a00004 	mov	r0, r4
    d5bc:	e28dd008 	add	sp, sp, #8
    d5c0:	e8bd8010 	pop	{r4, pc}
        CRYPTOerr(CRYPTO_F_GET_AND_LOCK, ERR_R_MALLOC_FAILURE);
    d5c4:	e3a03000 	mov	r3, #0
    d5c8:	e3a02041 	mov	r2, #65	; 0x41
        return NULL;
    d5cc:	e1a04003 	mov	r4, r3
        CRYPTOerr(CRYPTO_F_GET_AND_LOCK, ERR_R_MALLOC_FAILURE);
    d5d0:	e58d3000 	str	r3, [sp]
    d5d4:	e3a01071 	mov	r1, #113	; 0x71
    d5d8:	e3a0000f 	mov	r0, #15
    d5dc:	ebfffd90 	bl	cc24 <ERR_put_error>
}
    d5e0:	e1a00004 	mov	r0, r4
    d5e4:	e28dd008 	add	sp, sp, #8
    d5e8:	e8bd8010 	pop	{r4, pc}
         return NULL;
    d5ec:	e1a04000 	mov	r4, r0
    d5f0:	eafffff0 	b	d5b8 <get_and_lock+0x70>

0000d5f4 <CRYPTO_get_ex_data>:
 * For a given CRYPTO_EX_DATA_ variable, get the value corresponding to a
 * particular index in the class used by this variable
 */
void *CRYPTO_get_ex_data(const CRYPTO_EX_DATA *ad, int idx)
{
    if (ad->sk == NULL || idx >= sk_void_num(ad->sk))
    d5f4:	e5903000 	ldr	r3, [r0]
    d5f8:	e3530000 	cmp	r3, #0
    d5fc:	0a00000c 	beq	d634 <CRYPTO_get_ex_data+0x40>
{
    d600:	e92d4070 	push	{r4, r5, r6, lr}
    d604:	e1a05001 	mov	r5, r1
    d608:	e1a04000 	mov	r4, r0
# define CRYPTO_MEM_CHECK_DISABLE 0x3   /* Control only */

struct crypto_ex_data_st {
    STACK_OF(void) *sk;
};
DEFINE_STACK_OF(void)
    d60c:	e1a00003 	mov	r0, r3
    d610:	eb000357 	bl	e374 <OPENSSL_sk_num>
    if (ad->sk == NULL || idx >= sk_void_num(ad->sk))
    d614:	e1550000 	cmp	r5, r0
    d618:	aa000003 	bge	d62c <CRYPTO_get_ex_data+0x38>
    d61c:	e1a01005 	mov	r1, r5
    d620:	e5940000 	ldr	r0, [r4]
        return NULL;
    return sk_void_value(ad->sk, idx);
}
    d624:	e8bd4070 	pop	{r4, r5, r6, lr}
    d628:	ea000355 	b	e384 <OPENSSL_sk_value>
    d62c:	e3a00000 	mov	r0, #0
    d630:	e8bd8070 	pop	{r4, r5, r6, pc}
    d634:	e3a00000 	mov	r0, #0
    d638:	e12fff1e 	bx	lr

0000d63c <CRYPTO_free_ex_data>:
{
    d63c:	e92d4ff0 	push	{r4, r5, r6, r7, r8, r9, sl, fp, lr}
    d640:	e24dd03c 	sub	sp, sp, #60	; 0x3c
    d644:	e1a0b001 	mov	fp, r1
    d648:	e1a07002 	mov	r7, r2
    if ((ip = get_and_lock(class_index)) == NULL)
    d64c:	ebffffbd 	bl	d548 <get_and_lock>
    d650:	e2509000 	subs	r9, r0, #0
    d654:	0a000042 	beq	d764 <CRYPTO_free_ex_data+0x128>

#endif

typedef struct ex_callback_st EX_CALLBACK;

DEFINE_STACK_OF(EX_CALLBACK)
    d658:	e5990000 	ldr	r0, [r9]
    d65c:	eb000344 	bl	e374 <OPENSSL_sk_num>
    if (mx > 0) {
    d660:	e2508000 	subs	r8, r0, #0
    d664:	da000034 	ble	d73c <CRYPTO_free_ex_data+0x100>
        if (mx < (int)OSSL_NELEM(stack))
    d668:	e3580009 	cmp	r8, #9
            storage = stack;
    d66c:	d28d3010 	addle	r3, sp, #16
    d670:	d58d300c 	strle	r3, [sp, #12]
    d674:	d1a06003 	movle	r6, r3
        if (mx < (int)OSSL_NELEM(stack))
    d678:	ca000043 	bgt	d78c <CRYPTO_free_ex_data+0x150>
    d67c:	e2465004 	sub	r5, r6, #4
{
    d680:	e3a04000 	mov	r4, #0
    d684:	e1a01004 	mov	r1, r4
    d688:	e5990000 	ldr	r0, [r9]
            for (i = 0; i < mx; i++)
    d68c:	e2844001 	add	r4, r4, #1
    d690:	eb00033b 	bl	e384 <OPENSSL_sk_value>
    d694:	e1540008 	cmp	r4, r8
                storage[i] = sk_EX_CALLBACK_value(ip->meth, i);
    d698:	e5a50004 	str	r0, [r5, #4]!
            for (i = 0; i < mx; i++)
    d69c:	1afffff8 	bne	d684 <CRYPTO_free_ex_data+0x48>
    CRYPTO_THREAD_unlock(ex_data_lock);
    d6a0:	e303a44c 	movw	sl, #13388	; 0x344c
    for (i = 0; i < mx; i++) {
    d6a4:	e3a04000 	mov	r4, #0
    CRYPTO_THREAD_unlock(ex_data_lock);
    d6a8:	e340a001 	movt	sl, #1
    d6ac:	e59a0000 	ldr	r0, [sl]
    d6b0:	eb00034f 	bl	e3f4 <CRYPTO_THREAD_unlock>
    d6b4:	ea000015 	b	d710 <CRYPTO_free_ex_data+0xd4>
            f = storage[i];
    d6b8:	e7965104 	ldr	r5, [r6, r4, lsl #2]
        if (f != NULL && f->free_func != NULL) {
    d6bc:	e3550000 	cmp	r5, #0
    d6c0:	0a00000f 	beq	d704 <CRYPTO_free_ex_data+0xc8>
    d6c4:	e595300c 	ldr	r3, [r5, #12]
            ptr = CRYPTO_get_ex_data(ad, i);
    d6c8:	e1a01004 	mov	r1, r4
    d6cc:	e1a00007 	mov	r0, r7
        if (f != NULL && f->free_func != NULL) {
    d6d0:	e3530000 	cmp	r3, #0
    d6d4:	0a00000a 	beq	d704 <CRYPTO_free_ex_data+0xc8>
            ptr = CRYPTO_get_ex_data(ad, i);
    d6d8:	ebffffc5 	bl	d5f4 <CRYPTO_get_ex_data>
            f->free_func(obj, ptr, ad, i, f->argl, f->argp);
    d6dc:	e595c004 	ldr	ip, [r5, #4]
    d6e0:	e1a01000 	mov	r1, r0
    d6e4:	e1a03004 	mov	r3, r4
    d6e8:	e1a02007 	mov	r2, r7
    d6ec:	e1a0000b 	mov	r0, fp
    d6f0:	e58dc004 	str	ip, [sp, #4]
    d6f4:	e595c000 	ldr	ip, [r5]
    d6f8:	e58dc000 	str	ip, [sp]
    d6fc:	e595500c 	ldr	r5, [r5, #12]
    d700:	e12fff35 	blx	r5
    for (i = 0; i < mx; i++) {
    d704:	e2844001 	add	r4, r4, #1
    d708:	e1540008 	cmp	r4, r8
    d70c:	0a00001a 	beq	d77c <CRYPTO_free_ex_data+0x140>
        if (storage != NULL)
    d710:	e3560000 	cmp	r6, #0
    d714:	1affffe7 	bne	d6b8 <CRYPTO_free_ex_data+0x7c>
            CRYPTO_THREAD_write_lock(ex_data_lock);
    d718:	e59a0000 	ldr	r0, [sl]
    d71c:	eb00032f 	bl	e3e0 <CRYPTO_THREAD_write_lock>
    d720:	e1a01004 	mov	r1, r4
    d724:	e5990000 	ldr	r0, [r9]
    d728:	eb000315 	bl	e384 <OPENSSL_sk_value>
    d72c:	e1a05000 	mov	r5, r0
            CRYPTO_THREAD_unlock(ex_data_lock);
    d730:	e59a0000 	ldr	r0, [sl]
    d734:	eb00032e 	bl	e3f4 <CRYPTO_THREAD_unlock>
    d738:	eaffffdf 	b	d6bc <CRYPTO_free_ex_data+0x80>
    CRYPTO_THREAD_unlock(ex_data_lock);
    d73c:	e303344c 	movw	r3, #13388	; 0x344c
    EX_CALLBACK **storage = NULL;
    d740:	e3a06000 	mov	r6, #0
    CRYPTO_THREAD_unlock(ex_data_lock);
    d744:	e3403001 	movt	r3, #1
    d748:	e5930000 	ldr	r0, [r3]
    d74c:	eb000328 	bl	e3f4 <CRYPTO_THREAD_unlock>
        OPENSSL_free(storage);
    d750:	e30f1f8c 	movw	r1, #65420	; 0xff8c
    d754:	e1a00006 	mov	r0, r6
    d758:	e3401000 	movt	r1, #0
    d75c:	e3a02000 	mov	r2, #0
    d760:	eb0001d6 	bl	dec0 <CRYPTO_free>
    d764:	e5970000 	ldr	r0, [r7]
    d768:	eb0002fe 	bl	e368 <OPENSSL_sk_free>
    ad->sk = NULL;
    d76c:	e3a03000 	mov	r3, #0
    d770:	e5873000 	str	r3, [r7]
}
    d774:	e28dd03c 	add	sp, sp, #60	; 0x3c
    d778:	e8bd8ff0 	pop	{r4, r5, r6, r7, r8, r9, sl, fp, pc}
    if (storage != stack)
    d77c:	e59d300c 	ldr	r3, [sp, #12]
    d780:	e1560003 	cmp	r6, r3
    d784:	0afffff6 	beq	d764 <CRYPTO_free_ex_data+0x128>
    d788:	eafffff0 	b	d750 <CRYPTO_free_ex_data+0x114>
            storage = OPENSSL_malloc(sizeof(*storage) * mx);
    d78c:	e30f1f8c 	movw	r1, #65420	; 0xff8c
    d790:	e3a02000 	mov	r2, #0
    d794:	e3401000 	movt	r1, #0
    d798:	e1a00108 	lsl	r0, r8, #2
    d79c:	eb0001d5 	bl	def8 <CRYPTO_malloc>
        if (storage != NULL)
    d7a0:	e2506000 	subs	r6, r0, #0
    d7a4:	e28d3010 	add	r3, sp, #16
    d7a8:	e58d300c 	str	r3, [sp, #12]
    d7ac:	0affffbb 	beq	d6a0 <CRYPTO_free_ex_data+0x64>
    d7b0:	eaffffb1 	b	d67c <CRYPTO_free_ex_data+0x40>

0000d7b4 <ossl_init_register_atexit_ossl_>:
    OPENSSL_cleanup();
    return 0;
}
#endif

DEFINE_RUN_ONCE_STATIC(ossl_init_register_atexit)
    d7b4:	e3033498 	movw	r3, #13464	; 0x3498
    d7b8:	e3a02001 	mov	r2, #1
    d7bc:	e3403001 	movt	r3, #1
    d7c0:	e5832000 	str	r2, [r3]
    d7c4:	e12fff1e 	bx	lr

0000d7c8 <ossl_init_load_crypto_nodelete_ossl_>:
    /* Do nothing in this case */
    return 1;
}

static CRYPTO_ONCE load_crypto_nodelete = CRYPTO_ONCE_STATIC_INIT;
DEFINE_RUN_ONCE_STATIC(ossl_init_load_crypto_nodelete)
    d7c8:	e3033490 	movw	r3, #13456	; 0x3490
    d7cc:	e3a02001 	mov	r2, #1
    d7d0:	e3403001 	movt	r3, #1
    d7d4:	e5832000 	str	r2, [r3]
    d7d8:	e12fff1e 	bx	lr

0000d7dc <ossl_init_load_crypto_strings_ossl_>:
    return 1;
}

static CRYPTO_ONCE load_crypto_strings = CRYPTO_ONCE_STATIC_INIT;
static int load_crypto_strings_inited = 0;
DEFINE_RUN_ONCE_STATIC(ossl_init_load_crypto_strings)
    d7dc:	e3033494 	movw	r3, #13460	; 0x3494
    d7e0:	e3a02001 	mov	r2, #1
    d7e4:	e3403001 	movt	r3, #1
    d7e8:	e5832000 	str	r2, [r3]
    d7ec:	e12fff1e 	bx	lr

0000d7f0 <ossl_init_add_all_ciphers_ossl_>:
    /* Do nothing in this case */
    return 1;
}

static CRYPTO_ONCE add_all_ciphers = CRYPTO_ONCE_STATIC_INIT;
DEFINE_RUN_ONCE_STATIC(ossl_init_add_all_ciphers)
    d7f0:	e303347c 	movw	r3, #13436	; 0x347c
    d7f4:	e3a02001 	mov	r2, #1
    d7f8:	e3403001 	movt	r3, #1
    d7fc:	e5832000 	str	r2, [r3]
    d800:	e12fff1e 	bx	lr

0000d804 <ossl_init_add_all_digests_ossl_>:
    /* Do nothing */
    return 1;
}

static CRYPTO_ONCE add_all_digests = CRYPTO_ONCE_STATIC_INIT;
DEFINE_RUN_ONCE_STATIC(ossl_init_add_all_digests)
    d804:	e3033480 	movw	r3, #13440	; 0x3480
    d808:	e3a02001 	mov	r2, #1
    d80c:	e3403001 	movt	r3, #1
    d810:	e5832000 	str	r2, [r3]
    d814:	e12fff1e 	bx	lr

0000d818 <ossl_init_thread_stop>:
    return 1;
}
#endif

static void ossl_init_thread_stop(struct thread_local_inits_st *locals)
{
    d818:	e92d4010 	push	{r4, lr}
    /* Can't do much about this */
    if (locals == NULL)
    d81c:	e2504000 	subs	r4, r0, #0
    d820:	08bd8010 	popeq	{r4, pc}
        return;

    if (locals->async) {
    d824:	e5943000 	ldr	r3, [r4]
    d828:	e3530000 	cmp	r3, #0
    d82c:	1a000012 	bne	d87c <ossl_init_thread_stop+0x64>
                        "async_delete_thread_state()\n");
#endif
        async_delete_thread_state();
    }

    if (locals->err_state) {
    d830:	e5943004 	ldr	r3, [r4, #4]
    d834:	e3530000 	cmp	r3, #0
    d838:	1a00000a 	bne	d868 <ossl_init_thread_stop+0x50>
                        "err_delete_thread_state()\n");
#endif
        err_delete_thread_state();
    }

    if (locals->rand) {
    d83c:	e5943008 	ldr	r3, [r4, #8]
    d840:	e3530000 	cmp	r3, #0
    d844:	1a000005 	bne	d860 <ossl_init_thread_stop+0x48>
                        "drbg_delete_thread_state()\n");
#endif
        drbg_delete_thread_state();
    }

    OPENSSL_free(locals);
    d848:	e30f1f8c 	movw	r1, #65420	; 0xff8c
    d84c:	e1a00004 	mov	r0, r4
    d850:	e3401000 	movt	r1, #0
    d854:	e3a02000 	mov	r2, #0
}
    d858:	e8bd4010 	pop	{r4, lr}
    OPENSSL_free(locals);
    d85c:	ea000197 	b	dec0 <CRYPTO_free>
        drbg_delete_thread_state();
    d860:	eb000277 	bl	e244 <drbg_delete_thread_state>
    d864:	eafffff7 	b	d848 <ossl_init_thread_stop+0x30>
        err_delete_thread_state();
    d868:	ebfffc97 	bl	cacc <err_delete_thread_state>
    if (locals->rand) {
    d86c:	e5943008 	ldr	r3, [r4, #8]
    d870:	e3530000 	cmp	r3, #0
    d874:	0afffff3 	beq	d848 <ossl_init_thread_stop+0x30>
    d878:	eafffff8 	b	d860 <ossl_init_thread_stop+0x48>
        async_delete_thread_state();
    d87c:	ebfffad5 	bl	c3d8 <async_delete_thread_state>
    if (locals->err_state) {
    d880:	e5943004 	ldr	r3, [r4, #4]
    d884:	e3530000 	cmp	r3, #0
    d888:	0affffeb 	beq	d83c <ossl_init_thread_stop+0x24>
    d88c:	eafffff5 	b	d868 <ossl_init_thread_stop+0x50>

0000d890 <ossl_init_thread_destructor>:
    ossl_init_thread_stop((struct thread_local_inits_st *)local);
    d890:	eaffffe0 	b	d818 <ossl_init_thread_stop>

0000d894 <ossl_init_async_ossl_>:
DEFINE_RUN_ONCE_STATIC(ossl_init_async)
    d894:	e92d4010 	push	{r4, lr}
    if (!async_init())
    d898:	ebfffab9 	bl	c384 <async_init>
    d89c:	e3500000 	cmp	r0, #0
    async_inited = 1;
    d8a0:	1303345c 	movwne	r3, #13404	; 0x345c
    d8a4:	13a02001 	movne	r2, #1
    d8a8:	13403001 	movtne	r3, #1
    return 1;
    d8ac:	11a00002 	movne	r0, r2
    async_inited = 1;
    d8b0:	15832000 	strne	r2, [r3]
DEFINE_RUN_ONCE_STATIC(ossl_init_async)
    d8b4:	e3033484 	movw	r3, #13444	; 0x3484
    d8b8:	e3403001 	movt	r3, #1
    d8bc:	e5830000 	str	r0, [r3]
    d8c0:	e8bd8010 	pop	{r4, pc}

0000d8c4 <ossl_init_config_ossl_>:
    int ret = openssl_config_int(conf_settings);
    d8c4:	e3033468 	movw	r3, #13416	; 0x3468
DEFINE_RUN_ONCE_STATIC(ossl_init_config)
    d8c8:	e92d4010 	push	{r4, lr}
    int ret = openssl_config_int(conf_settings);
    d8cc:	e3403001 	movt	r3, #1
    d8d0:	e5930000 	ldr	r0, [r3]
    d8d4:	ebfffc3f 	bl	c9d8 <openssl_config_int>
DEFINE_RUN_ONCE_STATIC(ossl_init_config)
    d8d8:	e303348c 	movw	r3, #13452	; 0x348c
    d8dc:	e3403001 	movt	r3, #1
    d8e0:	e5830000 	str	r0, [r3]
    d8e4:	e8bd8010 	pop	{r4, pc}

0000d8e8 <ossl_init_no_config_ossl_>:
DEFINE_RUN_ONCE_STATIC_ALT(ossl_init_no_config, ossl_init_config)
    d8e8:	e92d4010 	push	{r4, lr}
    openssl_no_config_int();
    d8ec:	ebfffc45 	bl	ca08 <openssl_no_config_int>
DEFINE_RUN_ONCE_STATIC_ALT(ossl_init_no_config, ossl_init_config)
    d8f0:	e303348c 	movw	r3, #13452	; 0x348c
    d8f4:	e3a02001 	mov	r2, #1
    d8f8:	e3403001 	movt	r3, #1
    d8fc:	e5832000 	str	r2, [r3]
    d900:	e8bd8010 	pop	{r4, pc}

0000d904 <ossl_init_base_ossl_>:
DEFINE_RUN_ONCE_STATIC(ossl_init_base)
    d904:	e92d4030 	push	{r4, r5, lr}
    if (!CRYPTO_THREAD_init_local(&key, ossl_init_thread_destructor))
    d908:	e30d1890 	movw	r1, #55440	; 0xd890
DEFINE_RUN_ONCE_STATIC(ossl_init_base)
    d90c:	e24dd00c 	sub	sp, sp, #12
    if (!CRYPTO_THREAD_init_local(&key, ossl_init_thread_destructor))
    d910:	e3401000 	movt	r1, #0
    d914:	e28d0004 	add	r0, sp, #4
    d918:	eb0002cd 	bl	e454 <CRYPTO_THREAD_init_local>
    d91c:	e3500000 	cmp	r0, #0
    d920:	1a000004 	bne	d938 <ossl_init_base_ossl_+0x34>
DEFINE_RUN_ONCE_STATIC(ossl_init_base)
    d924:	e3033488 	movw	r3, #13448	; 0x3488
    d928:	e3403001 	movt	r3, #1
    d92c:	e5830000 	str	r0, [r3]
    d930:	e28dd00c 	add	sp, sp, #12
    d934:	e8bd8030 	pop	{r4, r5, pc}
    if ((init_lock = CRYPTO_THREAD_lock_new()) == NULL)
    d938:	eb00029e 	bl	e3b8 <CRYPTO_THREAD_lock_new>
    d93c:	e3035470 	movw	r5, #13424	; 0x3470
    d940:	e3500000 	cmp	r0, #0
    d944:	e3405001 	movt	r5, #1
    d948:	e1a04000 	mov	r4, r0
    d94c:	e5850000 	str	r0, [r5]
    d950:	0a00000a 	beq	d980 <ossl_init_base_ossl_+0x7c>
    OPENSSL_cpuid_setup();
    d954:	ebfffc30 	bl	ca1c <OPENSSL_cpuid_setup>
    destructor_key.value = key;
    d958:	e59d0004 	ldr	r0, [sp, #4]
    d95c:	e3032088 	movw	r2, #12424	; 0x3088
    base_inited = 1;
    d960:	e3033464 	movw	r3, #13412	; 0x3464
    d964:	e3a01001 	mov	r1, #1
    destructor_key.value = key;
    d968:	e3402001 	movt	r2, #1
    base_inited = 1;
    d96c:	e3403001 	movt	r3, #1
    destructor_key.value = key;
    d970:	e5820000 	str	r0, [r2]
    return 1;
    d974:	e1a00001 	mov	r0, r1
    base_inited = 1;
    d978:	e5831000 	str	r1, [r3]
    d97c:	eaffffe8 	b	d924 <ossl_init_base_ossl_+0x20>
    CRYPTO_THREAD_lock_free(init_lock);
    d980:	eb0002a0 	bl	e408 <CRYPTO_THREAD_lock_free>
    CRYPTO_THREAD_cleanup_local(&key);
    d984:	e28d0004 	add	r0, sp, #4
    init_lock = NULL;
    d988:	e5854000 	str	r4, [r5]
    CRYPTO_THREAD_cleanup_local(&key);
    d98c:	eb0002d0 	bl	e4d4 <CRYPTO_THREAD_cleanup_local>
    return 0;
    d990:	e1a00004 	mov	r0, r4
    d994:	eaffffe2 	b	d924 <ossl_init_base_ossl_+0x20>

0000d998 <ossl_init_no_add_all_digests_ossl_>:
    d998:	e3033480 	movw	r3, #13440	; 0x3480
    d99c:	e3a02001 	mov	r2, #1
    d9a0:	e3403001 	movt	r3, #1
    d9a4:	e5832000 	str	r2, [r3]
    d9a8:	e12fff1e 	bx	lr

0000d9ac <ossl_init_no_register_atexit_ossl_>:
    d9ac:	e3033498 	movw	r3, #13464	; 0x3498
    d9b0:	e3a02001 	mov	r2, #1
    d9b4:	e3403001 	movt	r3, #1
    d9b8:	e5832000 	str	r2, [r3]
    d9bc:	e12fff1e 	bx	lr

0000d9c0 <ossl_init_no_load_crypto_strings_ossl_>:
    d9c0:	e3033494 	movw	r3, #13460	; 0x3494
    d9c4:	e3a02001 	mov	r2, #1
    d9c8:	e3403001 	movt	r3, #1
    d9cc:	e5832000 	str	r2, [r3]
    d9d0:	e12fff1e 	bx	lr

0000d9d4 <ossl_init_no_add_all_ciphers_ossl_>:
    d9d4:	e303347c 	movw	r3, #13436	; 0x347c
    d9d8:	e3a02001 	mov	r2, #1
    d9dc:	e3403001 	movt	r3, #1
    d9e0:	e5832000 	str	r2, [r3]
    d9e4:	e12fff1e 	bx	lr

0000d9e8 <OPENSSL_init_crypto>:
 * called prior to any threads making calls to any OpenSSL functions,
 * i.e. passing a non-null settings value is assumed to be single-threaded.
 */
int OPENSSL_init_crypto(uint64_t opts, const OPENSSL_INIT_SETTINGS *settings)
{
    if (stopped) {
    d9e8:	e30334a0 	movw	r3, #13472	; 0x34a0
{
    d9ec:	e92d43f0 	push	{r4, r5, r6, r7, r8, r9, lr}
    if (stopped) {
    d9f0:	e3403001 	movt	r3, #1
{
    d9f4:	e24dd00c 	sub	sp, sp, #12
    d9f8:	e1a05000 	mov	r5, r0
    if (stopped) {
    d9fc:	e5934000 	ldr	r4, [r3]
    da00:	e3540000 	cmp	r4, #0
    da04:	0a000012 	beq	da54 <OPENSSL_init_crypto+0x6c>
        if (!(opts & OPENSSL_INIT_BASE_ONLY))
    da08:	e3a01000 	mov	r1, #0
    da0c:	e2002701 	and	r2, r0, #262144	; 0x40000
    da10:	e1a03001 	mov	r3, r1
    da14:	e1923003 	orrs	r3, r2, r3
    da18:	0a000003 	beq	da2c <OPENSSL_init_crypto+0x44>
            CRYPTOerr(CRYPTO_F_OPENSSL_INIT_CRYPTO, ERR_R_INIT_FAIL);
        return 0;
    da1c:	e3a04000 	mov	r4, #0
            && !RUN_ONCE(&zlib, ossl_init_zlib))
        return 0;
#endif

    return 1;
}
    da20:	e1a00004 	mov	r0, r4
    da24:	e28dd00c 	add	sp, sp, #12
    da28:	e8bd83f0 	pop	{r4, r5, r6, r7, r8, r9, pc}
            CRYPTOerr(CRYPTO_F_OPENSSL_INIT_CRYPTO, ERR_R_INIT_FAIL);
    da2c:	e1a03001 	mov	r3, r1
    da30:	e58d1000 	str	r1, [sp]
        return 0;
    da34:	e1a04003 	mov	r4, r3
            CRYPTOerr(CRYPTO_F_OPENSSL_INIT_CRYPTO, ERR_R_INIT_FAIL);
    da38:	e3a02046 	mov	r2, #70	; 0x46
    da3c:	e3a01074 	mov	r1, #116	; 0x74
    da40:	e3a0000f 	mov	r0, #15
    da44:	ebfffc76 	bl	cc24 <ERR_put_error>
}
    da48:	e1a00004 	mov	r0, r4
    da4c:	e28dd00c 	add	sp, sp, #12
    da50:	e8bd83f0 	pop	{r4, r5, r6, r7, r8, r9, pc}
    if (!RUN_ONCE(&base, ossl_init_base))
    da54:	e30d1904 	movw	r1, #55556	; 0xd904
    da58:	e3030460 	movw	r0, #13408	; 0x3460
    da5c:	e3401000 	movt	r1, #0
    da60:	e3400001 	movt	r0, #1
    da64:	e1a06002 	mov	r6, r2
    da68:	eb00026d 	bl	e424 <CRYPTO_THREAD_run_once>
    da6c:	e3500000 	cmp	r0, #0
    da70:	0affffe9 	beq	da1c <OPENSSL_init_crypto+0x34>
    da74:	e3033488 	movw	r3, #13448	; 0x3488
    da78:	e3403001 	movt	r3, #1
    da7c:	e5933000 	ldr	r3, [r3]
    da80:	e3530000 	cmp	r3, #0
    da84:	0affffe4 	beq	da1c <OPENSSL_init_crypto+0x34>
    if (opts & OPENSSL_INIT_BASE_ONLY)
    da88:	e2052701 	and	r2, r5, #262144	; 0x40000
    da8c:	e1a03004 	mov	r3, r4
    da90:	e1923003 	orrs	r3, r2, r3
    da94:	1a000044 	bne	dbac <OPENSSL_init_crypto+0x1c4>
    if ((opts & OPENSSL_INIT_NO_ATEXIT) != 0) {
    da98:	e2052702 	and	r2, r5, #524288	; 0x80000
    da9c:	e1a03004 	mov	r3, r4
    daa0:	e1923003 	orrs	r3, r2, r3
    daa4:	1a000042 	bne	dbb4 <OPENSSL_init_crypto+0x1cc>
    } else if (!RUN_ONCE(&register_atexit, ossl_init_register_atexit)) {
    daa8:	e30d17b4 	movw	r1, #55220	; 0xd7b4
    daac:	e303049c 	movw	r0, #13468	; 0x349c
    dab0:	e3401000 	movt	r1, #0
    dab4:	e3400001 	movt	r0, #1
    dab8:	eb000259 	bl	e424 <CRYPTO_THREAD_run_once>
    dabc:	e3500000 	cmp	r0, #0
    dac0:	0affffd5 	beq	da1c <OPENSSL_init_crypto+0x34>
    dac4:	e3033498 	movw	r3, #13464	; 0x3498
    dac8:	e3403001 	movt	r3, #1
    dacc:	e5933000 	ldr	r3, [r3]
    dad0:	e3530000 	cmp	r3, #0
    dad4:	0affffd0 	beq	da1c <OPENSSL_init_crypto+0x34>
    if (!RUN_ONCE(&load_crypto_nodelete, ossl_init_load_crypto_nodelete))
    dad8:	e30d17c8 	movw	r1, #55240	; 0xd7c8
    dadc:	e3030474 	movw	r0, #13428	; 0x3474
    dae0:	e3401000 	movt	r1, #0
    dae4:	e3400001 	movt	r0, #1
    dae8:	eb00024d 	bl	e424 <CRYPTO_THREAD_run_once>
    daec:	e3500000 	cmp	r0, #0
    daf0:	0affffc9 	beq	da1c <OPENSSL_init_crypto+0x34>
    daf4:	e3033490 	movw	r3, #13456	; 0x3490
    daf8:	e3403001 	movt	r3, #1
    dafc:	e5933000 	ldr	r3, [r3]
    db00:	e3530000 	cmp	r3, #0
    db04:	0affffc4 	beq	da1c <OPENSSL_init_crypto+0x34>
    if ((opts & OPENSSL_INIT_NO_LOAD_CRYPTO_STRINGS)
    db08:	e2052001 	and	r2, r5, #1
    db0c:	e3a03000 	mov	r3, #0
    db10:	e1923003 	orrs	r3, r2, r3
    db14:	1a00002e 	bne	dbd4 <OPENSSL_init_crypto+0x1ec>
    if ((opts & OPENSSL_INIT_LOAD_CRYPTO_STRINGS)
    db18:	e2052002 	and	r2, r5, #2
    db1c:	e3a03000 	mov	r3, #0
    db20:	e1923003 	orrs	r3, r2, r3
    db24:	1a000037 	bne	dc08 <OPENSSL_init_crypto+0x220>
    if ((opts & OPENSSL_INIT_NO_ADD_ALL_CIPHERS)
    db28:	e2052010 	and	r2, r5, #16
    db2c:	e3a03000 	mov	r3, #0
    db30:	e1923003 	orrs	r3, r2, r3
    db34:	1a000040 	bne	dc3c <OPENSSL_init_crypto+0x254>
    if ((opts & OPENSSL_INIT_ADD_ALL_CIPHERS)
    db38:	e2052004 	and	r2, r5, #4
    db3c:	e3a03000 	mov	r3, #0
    db40:	e1923003 	orrs	r3, r2, r3
    db44:	1a000049 	bne	dc70 <OPENSSL_init_crypto+0x288>
    if ((opts & OPENSSL_INIT_NO_ADD_ALL_DIGESTS)
    db48:	e2052020 	and	r2, r5, #32
    db4c:	e3a03000 	mov	r3, #0
    db50:	e1923003 	orrs	r3, r2, r3
    db54:	1a000052 	bne	dca4 <OPENSSL_init_crypto+0x2bc>
    if ((opts & OPENSSL_INIT_ADD_ALL_DIGESTS)
    db58:	e2052008 	and	r2, r5, #8
    db5c:	e3a03000 	mov	r3, #0
    db60:	e1923003 	orrs	r3, r2, r3
    db64:	1a00005b 	bne	dcd8 <OPENSSL_init_crypto+0x2f0>
    if ((opts & OPENSSL_INIT_ATFORK)
    db68:	e2052802 	and	r2, r5, #131072	; 0x20000
    db6c:	e3a03000 	mov	r3, #0
    db70:	e1923003 	orrs	r3, r2, r3
    db74:	1a000064 	bne	dd0c <OPENSSL_init_crypto+0x324>
    if ((opts & OPENSSL_INIT_NO_LOAD_CONFIG)
    db78:	e2052080 	and	r2, r5, #128	; 0x80
    db7c:	e3a03000 	mov	r3, #0
    db80:	e1923003 	orrs	r3, r2, r3
    db84:	1a000064 	bne	dd1c <OPENSSL_init_crypto+0x334>
    if (opts & OPENSSL_INIT_LOAD_CONFIG) {
    db88:	e3a09000 	mov	r9, #0
    db8c:	e2052040 	and	r2, r5, #64	; 0x40
    db90:	e1a03009 	mov	r3, r9
    db94:	e1923003 	orrs	r3, r2, r3
    db98:	1a000079 	bne	dd84 <OPENSSL_init_crypto+0x39c>
    if ((opts & OPENSSL_INIT_ASYNC)
    db9c:	e2052c01 	and	r2, r5, #256	; 0x100
    dba0:	e3a03000 	mov	r3, #0
    dba4:	e1923003 	orrs	r3, r2, r3
    dba8:	1a000068 	bne	dd50 <OPENSSL_init_crypto+0x368>
        return 1;
    dbac:	e3a04001 	mov	r4, #1
    dbb0:	eaffff9a 	b	da20 <OPENSSL_init_crypto+0x38>
        if (!RUN_ONCE_ALT(&register_atexit, ossl_init_no_register_atexit,
    dbb4:	e30d19ac 	movw	r1, #55724	; 0xd9ac
    dbb8:	e303049c 	movw	r0, #13468	; 0x349c
    dbbc:	e3401000 	movt	r1, #0
    dbc0:	e3400001 	movt	r0, #1
    dbc4:	eb000216 	bl	e424 <CRYPTO_THREAD_run_once>
    dbc8:	e3500000 	cmp	r0, #0
    dbcc:	1affffbc 	bne	dac4 <OPENSSL_init_crypto+0xdc>
    dbd0:	eaffff91 	b	da1c <OPENSSL_init_crypto+0x34>
            && !RUN_ONCE_ALT(&load_crypto_strings,
    dbd4:	e30d19c0 	movw	r1, #55744	; 0xd9c0
    dbd8:	e3030478 	movw	r0, #13432	; 0x3478
    dbdc:	e3401000 	movt	r1, #0
    dbe0:	e3400001 	movt	r0, #1
    dbe4:	eb00020e 	bl	e424 <CRYPTO_THREAD_run_once>
    dbe8:	e3500000 	cmp	r0, #0
    dbec:	0affff8a 	beq	da1c <OPENSSL_init_crypto+0x34>
    dbf0:	e3033494 	movw	r3, #13460	; 0x3494
    dbf4:	e3403001 	movt	r3, #1
    dbf8:	e5933000 	ldr	r3, [r3]
    dbfc:	e3530000 	cmp	r3, #0
    dc00:	1affffc4 	bne	db18 <OPENSSL_init_crypto+0x130>
    dc04:	eaffff84 	b	da1c <OPENSSL_init_crypto+0x34>
            && !RUN_ONCE(&load_crypto_strings, ossl_init_load_crypto_strings))
    dc08:	e30d17dc 	movw	r1, #55260	; 0xd7dc
    dc0c:	e3030478 	movw	r0, #13432	; 0x3478
    dc10:	e3401000 	movt	r1, #0
    dc14:	e3400001 	movt	r0, #1
    dc18:	eb000201 	bl	e424 <CRYPTO_THREAD_run_once>
    dc1c:	e3500000 	cmp	r0, #0
    dc20:	0affff7d 	beq	da1c <OPENSSL_init_crypto+0x34>
    dc24:	e3033494 	movw	r3, #13460	; 0x3494
    dc28:	e3403001 	movt	r3, #1
    dc2c:	e5933000 	ldr	r3, [r3]
    dc30:	e3530000 	cmp	r3, #0
    dc34:	1affffbb 	bne	db28 <OPENSSL_init_crypto+0x140>
    dc38:	eaffff77 	b	da1c <OPENSSL_init_crypto+0x34>
            && !RUN_ONCE_ALT(&add_all_ciphers, ossl_init_no_add_all_ciphers,
    dc3c:	e30d19d4 	movw	r1, #55764	; 0xd9d4
    dc40:	e3030450 	movw	r0, #13392	; 0x3450
    dc44:	e3401000 	movt	r1, #0
    dc48:	e3400001 	movt	r0, #1
    dc4c:	eb0001f4 	bl	e424 <CRYPTO_THREAD_run_once>
    dc50:	e3500000 	cmp	r0, #0
    dc54:	0affff70 	beq	da1c <OPENSSL_init_crypto+0x34>
    dc58:	e303347c 	movw	r3, #13436	; 0x347c
    dc5c:	e3403001 	movt	r3, #1
    dc60:	e5933000 	ldr	r3, [r3]
    dc64:	e3530000 	cmp	r3, #0
    dc68:	1affffb2 	bne	db38 <OPENSSL_init_crypto+0x150>
    dc6c:	eaffff6a 	b	da1c <OPENSSL_init_crypto+0x34>
            && !RUN_ONCE(&add_all_ciphers, ossl_init_add_all_ciphers))
    dc70:	e30d17f0 	movw	r1, #55280	; 0xd7f0
    dc74:	e3030450 	movw	r0, #13392	; 0x3450
    dc78:	e3401000 	movt	r1, #0
    dc7c:	e3400001 	movt	r0, #1
    dc80:	eb0001e7 	bl	e424 <CRYPTO_THREAD_run_once>
    dc84:	e3500000 	cmp	r0, #0
    dc88:	0affff63 	beq	da1c <OPENSSL_init_crypto+0x34>
    dc8c:	e303347c 	movw	r3, #13436	; 0x347c
    dc90:	e3403001 	movt	r3, #1
    dc94:	e5933000 	ldr	r3, [r3]
    dc98:	e3530000 	cmp	r3, #0
    dc9c:	1affffa9 	bne	db48 <OPENSSL_init_crypto+0x160>
    dca0:	eaffff5d 	b	da1c <OPENSSL_init_crypto+0x34>
            && !RUN_ONCE_ALT(&add_all_digests, ossl_init_no_add_all_digests,
    dca4:	e30d1998 	movw	r1, #55704	; 0xd998
    dca8:	e3030454 	movw	r0, #13396	; 0x3454
    dcac:	e3401000 	movt	r1, #0
    dcb0:	e3400001 	movt	r0, #1
    dcb4:	eb0001da 	bl	e424 <CRYPTO_THREAD_run_once>
    dcb8:	e3500000 	cmp	r0, #0
    dcbc:	0affff56 	beq	da1c <OPENSSL_init_crypto+0x34>
    dcc0:	e3033480 	movw	r3, #13440	; 0x3480
    dcc4:	e3403001 	movt	r3, #1
    dcc8:	e5933000 	ldr	r3, [r3]
    dccc:	e3530000 	cmp	r3, #0
    dcd0:	1affffa0 	bne	db58 <OPENSSL_init_crypto+0x170>
    dcd4:	eaffff50 	b	da1c <OPENSSL_init_crypto+0x34>
            && !RUN_ONCE(&add_all_digests, ossl_init_add_all_digests))
    dcd8:	e30d1804 	movw	r1, #55300	; 0xd804
    dcdc:	e3030454 	movw	r0, #13396	; 0x3454
    dce0:	e3401000 	movt	r1, #0
    dce4:	e3400001 	movt	r0, #1
    dce8:	eb0001cd 	bl	e424 <CRYPTO_THREAD_run_once>
    dcec:	e3500000 	cmp	r0, #0
    dcf0:	0affff49 	beq	da1c <OPENSSL_init_crypto+0x34>
    dcf4:	e3033480 	movw	r3, #13440	; 0x3480
    dcf8:	e3403001 	movt	r3, #1
    dcfc:	e5933000 	ldr	r3, [r3]
    dd00:	e3530000 	cmp	r3, #0
    dd04:	1affff97 	bne	db68 <OPENSSL_init_crypto+0x180>
    dd08:	eaffff43 	b	da1c <OPENSSL_init_crypto+0x34>
            && !openssl_init_fork_handlers())
    dd0c:	eb0001f4 	bl	e4e4 <openssl_init_fork_handlers>
    dd10:	e3500000 	cmp	r0, #0
    dd14:	1affff97 	bne	db78 <OPENSSL_init_crypto+0x190>
    dd18:	eaffff3f 	b	da1c <OPENSSL_init_crypto+0x34>
            && !RUN_ONCE_ALT(&config, ossl_init_no_config, ossl_init_config))
    dd1c:	e30d18e8 	movw	r1, #55528	; 0xd8e8
    dd20:	e303046c 	movw	r0, #13420	; 0x346c
    dd24:	e3401000 	movt	r1, #0
    dd28:	e3400001 	movt	r0, #1
    dd2c:	eb0001bc 	bl	e424 <CRYPTO_THREAD_run_once>
    dd30:	e3500000 	cmp	r0, #0
    dd34:	0affff38 	beq	da1c <OPENSSL_init_crypto+0x34>
    dd38:	e303348c 	movw	r3, #13452	; 0x348c
    dd3c:	e3403001 	movt	r3, #1
    dd40:	e5933000 	ldr	r3, [r3]
    dd44:	e3530000 	cmp	r3, #0
    dd48:	1affff8e 	bne	db88 <OPENSSL_init_crypto+0x1a0>
    dd4c:	eaffff32 	b	da1c <OPENSSL_init_crypto+0x34>
            && !RUN_ONCE(&async, ossl_init_async))
    dd50:	e30d1894 	movw	r1, #55444	; 0xd894
    dd54:	e3030458 	movw	r0, #13400	; 0x3458
    dd58:	e3401000 	movt	r1, #0
    dd5c:	e3400001 	movt	r0, #1
    dd60:	eb0001af 	bl	e424 <CRYPTO_THREAD_run_once>
    dd64:	e3500000 	cmp	r0, #0
    dd68:	0affff2b 	beq	da1c <OPENSSL_init_crypto+0x34>
    dd6c:	e3033484 	movw	r3, #13444	; 0x3484
    dd70:	e3403001 	movt	r3, #1
    dd74:	e5934000 	ldr	r4, [r3]
    dd78:	e2944000 	adds	r4, r4, #0
    dd7c:	13a04001 	movne	r4, #1
    dd80:	eaffff26 	b	da20 <OPENSSL_init_crypto+0x38>
        CRYPTO_THREAD_write_lock(init_lock);
    dd84:	e3038470 	movw	r8, #13424	; 0x3470
        conf_settings = settings;
    dd88:	e3037468 	movw	r7, #13416	; 0x3468
        CRYPTO_THREAD_write_lock(init_lock);
    dd8c:	e3408001 	movt	r8, #1
        conf_settings = settings;
    dd90:	e3407001 	movt	r7, #1
        CRYPTO_THREAD_write_lock(init_lock);
    dd94:	e5980000 	ldr	r0, [r8]
    dd98:	eb000190 	bl	e3e0 <CRYPTO_THREAD_write_lock>
        ret = RUN_ONCE(&config, ossl_init_config);
    dd9c:	e30d18c4 	movw	r1, #55492	; 0xd8c4
    dda0:	e303046c 	movw	r0, #13420	; 0x346c
    dda4:	e3401000 	movt	r1, #0
    dda8:	e3400001 	movt	r0, #1
        conf_settings = settings;
    ddac:	e5876000 	str	r6, [r7]
        ret = RUN_ONCE(&config, ossl_init_config);
    ddb0:	eb00019b 	bl	e424 <CRYPTO_THREAD_run_once>
    ddb4:	e2504000 	subs	r4, r0, #0
    ddb8:	0a000008 	beq	dde0 <OPENSSL_init_crypto+0x3f8>
    ddbc:	e303348c 	movw	r3, #13452	; 0x348c
        CRYPTO_THREAD_unlock(init_lock);
    ddc0:	e5980000 	ldr	r0, [r8]
        ret = RUN_ONCE(&config, ossl_init_config);
    ddc4:	e3403001 	movt	r3, #1
        conf_settings = NULL;
    ddc8:	e5879000 	str	r9, [r7]
        ret = RUN_ONCE(&config, ossl_init_config);
    ddcc:	e5934000 	ldr	r4, [r3]
        CRYPTO_THREAD_unlock(init_lock);
    ddd0:	eb000187 	bl	e3f4 <CRYPTO_THREAD_unlock>
        if (ret <= 0)
    ddd4:	e3540000 	cmp	r4, #0
    ddd8:	caffff6f 	bgt	db9c <OPENSSL_init_crypto+0x1b4>
    dddc:	eaffff0e 	b	da1c <OPENSSL_init_crypto+0x34>
        CRYPTO_THREAD_unlock(init_lock);
    dde0:	e5980000 	ldr	r0, [r8]
        conf_settings = NULL;
    dde4:	e5874000 	str	r4, [r7]
        CRYPTO_THREAD_unlock(init_lock);
    dde8:	eb000181 	bl	e3f4 <CRYPTO_THREAD_unlock>
    ddec:	eaffff0b 	b	da20 <OPENSSL_init_crypto+0x38>

0000ddf0 <ossl_init_thread_start>:
{
    ddf0:	e92d4070 	push	{r4, r5, r6, lr}
    if (!OPENSSL_init_crypto(0, NULL))
    ddf4:	e3a02000 	mov	r2, #0
{
    ddf8:	e1a05000 	mov	r5, r0
    if (!OPENSSL_init_crypto(0, NULL))
    ddfc:	e3a01000 	mov	r1, #0
    de00:	e3a00000 	mov	r0, #0
    de04:	ebfffef7 	bl	d9e8 <OPENSSL_init_crypto>
    de08:	e3500000 	cmp	r0, #0
    de0c:	1a000002 	bne	de1c <ossl_init_thread_start+0x2c>
        return 0;
    de10:	e3a04000 	mov	r4, #0
}
    de14:	e1a00004 	mov	r0, r4
    de18:	e8bd8070 	pop	{r4, r5, r6, pc}
    struct thread_local_inits_st *local =
    de1c:	e3030088 	movw	r0, #12424	; 0x3088
    de20:	e3400001 	movt	r0, #1
    de24:	eb00019b 	bl	e498 <CRYPTO_THREAD_get_local>
        if (local == NULL
    de28:	e2506000 	subs	r6, r0, #0
    de2c:	0a000010 	beq	de74 <ossl_init_thread_start+0x84>
    if (opts & OPENSSL_INIT_THREAD_ASYNC) {
    de30:	e3a03001 	mov	r3, #1
    de34:	e3a01000 	mov	r1, #0
    de38:	e0050003 	and	r0, r5, r3
        locals->rand = 1;
    de3c:	e3a04001 	mov	r4, #1
    if (opts & OPENSSL_INIT_THREAD_ASYNC) {
    de40:	e1902001 	orrs	r2, r0, r1
    if (opts & OPENSSL_INIT_THREAD_ERR_STATE) {
    de44:	e2050002 	and	r0, r5, #2
    de48:	e3a01000 	mov	r1, #0
        locals->async = 1;
    de4c:	15863000 	strne	r3, [r6]
    if (opts & OPENSSL_INIT_THREAD_ERR_STATE) {
    de50:	e1903001 	orrs	r3, r0, r1
    if (opts & OPENSSL_INIT_THREAD_RAND) {
    de54:	e2050004 	and	r0, r5, #4
        locals->err_state = 1;
    de58:	13a03001 	movne	r3, #1
    if (opts & OPENSSL_INIT_THREAD_RAND) {
    de5c:	e3a01000 	mov	r1, #0
        locals->err_state = 1;
    de60:	15863004 	strne	r3, [r6, #4]
    if (opts & OPENSSL_INIT_THREAD_RAND) {
    de64:	e1903001 	orrs	r3, r0, r1
        locals->rand = 1;
    de68:	15864008 	strne	r4, [r6, #8]
}
    de6c:	e1a00004 	mov	r0, r4
    de70:	e8bd8070 	pop	{r4, r5, r6, pc}
            && (local = OPENSSL_zalloc(sizeof(*local))) != NULL
    de74:	e30f1f8c 	movw	r1, #65420	; 0xff8c
    de78:	e1a02006 	mov	r2, r6
    de7c:	e3401000 	movt	r1, #0
    de80:	e3a0000c 	mov	r0, #12
    de84:	eb000033 	bl	df58 <CRYPTO_zalloc>
    de88:	e2506000 	subs	r6, r0, #0
    de8c:	0affffdf 	beq	de10 <ossl_init_thread_start+0x20>
            && !CRYPTO_THREAD_set_local(&destructor_key.value, local)) {
    de90:	e3030088 	movw	r0, #12424	; 0x3088
    de94:	e1a01006 	mov	r1, r6
    de98:	e3400001 	movt	r0, #1
    de9c:	eb000184 	bl	e4b4 <CRYPTO_THREAD_set_local>
    dea0:	e2504000 	subs	r4, r0, #0
    dea4:	1affffe1 	bne	de30 <ossl_init_thread_start+0x40>
            OPENSSL_free(local);
    dea8:	e30f1f8c 	movw	r1, #65420	; 0xff8c
    deac:	e1a00006 	mov	r0, r6
    deb0:	e3401000 	movt	r1, #0
    deb4:	e1a02004 	mov	r2, r4
    deb8:	eb000000 	bl	dec0 <CRYPTO_free>
    debc:	eaffffd4 	b	de14 <ossl_init_thread_start+0x24>

0000dec0 <CRYPTO_free>:
}

void CRYPTO_free(void *str, const char *file, int line)
{
    INCREMENT(free_count);
    if (free_impl != NULL && free_impl != &CRYPTO_free) {
    dec0:	e303c090 	movw	ip, #12432	; 0x3090
{
    dec4:	e52de004 	push	{lr}		; (str lr, [sp, #-4]!)
    if (free_impl != NULL && free_impl != &CRYPTO_free) {
    dec8:	e340c001 	movt	ip, #1
    decc:	e30d3ec0 	movw	r3, #57024	; 0xdec0
    ded0:	e3403000 	movt	r3, #0
    ded4:	e59ce000 	ldr	lr, [ip]
    ded8:	e35e0000 	cmp	lr, #0
    dedc:	115e0003 	cmpne	lr, r3
    dee0:	0a000002 	beq	def0 <CRYPTO_free+0x30>
        free_impl(str, file, line);
    dee4:	e1a0300e 	mov	r3, lr
        free(str);
    }
#else
    free(str);
#endif
}
    dee8:	e49de004 	pop	{lr}		; (ldr lr, [sp], #4)
        free_impl(str, file, line);
    deec:	e12fff13 	bx	r3
}
    def0:	e49de004 	pop	{lr}		; (ldr lr, [sp], #4)
    free(str);
    def4:	eafff25a 	b	a864 <free>

0000def8 <CRYPTO_malloc>:
    if (malloc_impl != NULL && malloc_impl != CRYPTO_malloc)
    def8:	e303c094 	movw	ip, #12436	; 0x3094
{
    defc:	e52de004 	push	{lr}		; (str lr, [sp, #-4]!)
    if (malloc_impl != NULL && malloc_impl != CRYPTO_malloc)
    df00:	e340c001 	movt	ip, #1
    df04:	e30d3ef8 	movw	r3, #57080	; 0xdef8
    df08:	e3403000 	movt	r3, #0
    df0c:	e59ce000 	ldr	lr, [ip]
    df10:	e05e3003 	subs	r3, lr, r3
    df14:	13a03001 	movne	r3, #1
    df18:	e35e0000 	cmp	lr, #0
    df1c:	03a03000 	moveq	r3, #0
    df20:	e3530000 	cmp	r3, #0
    df24:	0a000002 	beq	df34 <CRYPTO_malloc+0x3c>
        return malloc_impl(num, file, line);
    df28:	e1a0300e 	mov	r3, lr
}
    df2c:	e49de004 	pop	{lr}		; (ldr lr, [sp], #4)
        return malloc_impl(num, file, line);
    df30:	e12fff13 	bx	r3
    if (num == 0)
    df34:	e3500000 	cmp	r0, #0
    df38:	049df004 	popeq	{pc}		; (ldreq pc, [sp], #4)
    if (allow_customize) {
    df3c:	e303208c 	movw	r2, #12428	; 0x308c
}
    df40:	e49de004 	pop	{lr}		; (ldr lr, [sp], #4)
    if (allow_customize) {
    df44:	e3402001 	movt	r2, #1
    df48:	e5921000 	ldr	r1, [r2]
    df4c:	e3510000 	cmp	r1, #0
        allow_customize = 0;
    df50:	15823000 	strne	r3, [r2]
    ret = malloc(num);
    df54:	eaffec6c 	b	910c <malloc>

0000df58 <CRYPTO_zalloc>:
{
    df58:	e92d4070 	push	{r4, r5, r6, lr}
    df5c:	e1a05000 	mov	r5, r0
    void *ret = CRYPTO_malloc(num, file, line);
    df60:	ebffffe4 	bl	def8 <CRYPTO_malloc>
    if (ret != NULL)
    df64:	e2504000 	subs	r4, r0, #0
    df68:	0a000002 	beq	df78 <CRYPTO_zalloc+0x20>
        memset(ret, 0, num);
    df6c:	e1a02005 	mov	r2, r5
    df70:	e3a01000 	mov	r1, #0
    df74:	eb00066d 	bl	f930 <memset>
}
    df78:	e1a00004 	mov	r0, r4
    df7c:	e8bd8070 	pop	{r4, r5, r6, pc}

0000df80 <CRYPTO_clear_free>:

void CRYPTO_clear_free(void *str, size_t num, const char *file, int line)
{
    if (str == NULL)
    df80:	e250c000 	subs	ip, r0, #0
    df84:	012fff1e 	bxeq	lr
        return;
    if (num)
    df88:	e3510000 	cmp	r1, #0
{
    df8c:	e92d4070 	push	{r4, r5, r6, lr}
    df90:	e1a06003 	mov	r6, r3
    df94:	e1a05002 	mov	r5, r2
    df98:	e1a0400c 	mov	r4, ip
    if (num)
    df9c:	1a000004 	bne	dfb4 <CRYPTO_clear_free+0x34>
        OPENSSL_cleanse(str, num);
    CRYPTO_free(str, file, line);
    dfa0:	e1a02006 	mov	r2, r6
    dfa4:	e1a01005 	mov	r1, r5
    dfa8:	e1a00004 	mov	r0, r4
}
    dfac:	e8bd4070 	pop	{r4, r5, r6, lr}
    CRYPTO_free(str, file, line);
    dfb0:	eaffffc2 	b	dec0 <CRYPTO_free>
        OPENSSL_cleanse(str, num);
    dfb4:	eb000000 	bl	dfbc <OPENSSL_cleanse>
    dfb8:	eafffff8 	b	dfa0 <CRYPTO_clear_free+0x20>

0000dfbc <OPENSSL_cleanse>:

static volatile memset_t memset_func = memset;

void OPENSSL_cleanse(void *ptr, size_t len)
{
    memset_func(ptr, 0, len);
    dfbc:	e3033098 	movw	r3, #12440	; 0x3098
    dfc0:	e1a02001 	mov	r2, r1
    dfc4:	e3403001 	movt	r3, #1
    dfc8:	e3a01000 	mov	r1, #0
    dfcc:	e5933000 	ldr	r3, [r3]
    dfd0:	e12fff13 	bx	r3

0000dfd4 <CRYPTO_secure_clear_free>:
    CLEAR(ptr, actual_size);
    secure_mem_used -= actual_size;
    sh_free(ptr);
    CRYPTO_THREAD_unlock(sec_malloc_lock);
#else
    if (ptr == NULL)
    dfd4:	e250c000 	subs	ip, r0, #0
    dfd8:	012fff1e 	bxeq	lr
{
    dfdc:	e92d4070 	push	{r4, r5, r6, lr}
    dfe0:	e1a05002 	mov	r5, r2
    dfe4:	e1a06003 	mov	r6, r3
    dfe8:	e1a0400c 	mov	r4, ip
        return;
    OPENSSL_cleanse(ptr, num);
    dfec:	ebfffff2 	bl	dfbc <OPENSSL_cleanse>
    CRYPTO_free(ptr, file, line);
    dff0:	e1a02006 	mov	r2, r6
    dff4:	e1a01005 	mov	r1, r5
    dff8:	e1a00004 	mov	r0, r4
#endif /* OPENSSL_SECURE_MEMORY */
}
    dffc:	e8bd4070 	pop	{r4, r5, r6, lr}
    CRYPTO_free(ptr, file, line);
    e000:	eaffffae 	b	dec0 <CRYPTO_free>

0000e004 <CRYPTO_cbc128_encrypt>:
                           unsigned char ivec[16], block128_f block)
{
    size_t n;
    const unsigned char *iv = ivec;

    if (len == 0)
    e004:	e3520000 	cmp	r2, #0
{
    e008:	e92d4ff0 	push	{r4, r5, r6, r7, r8, r9, sl, fp, lr}
    e00c:	e24dd00c 	sub	sp, sp, #12
    e010:	e59d8030 	ldr	r8, [sp, #48]	; 0x30
    e014:	e59d7034 	ldr	r7, [sp, #52]	; 0x34
    if (len == 0)
    e018:	0a000031 	beq	e0e4 <CRYPTO_cbc128_encrypt+0xe0>
    e01c:	e1a06003 	mov	r6, r3
    e020:	e2409001 	sub	r9, r0, #1
    const unsigned char *iv = ivec;
    e024:	e1a0c008 	mov	ip, r8
    if (len == 0)
    e028:	e1a04002 	mov	r4, r2
    e02c:	e1a05001 	mov	r5, r1
    e030:	e58d1004 	str	r1, [sp, #4]
    e034:	e58d2000 	str	r2, [sp]
    e038:	e24ca001 	sub	sl, ip, #1
    e03c:	e245e001 	sub	lr, r5, #1
    e040:	e1a00009 	mov	r0, r9
            out += 16;
        }
    }
#endif
    while (len) {
        for (n = 0; n < 16 && n < len; ++n)
    e044:	e3a01000 	mov	r1, #0
    e048:	ea000000 	b	e050 <CRYPTO_cbc128_encrypt+0x4c>
    e04c:	e1a01003 	mov	r1, r3
            out[n] = in[n] ^ iv[n];
    e050:	e5f02001 	ldrb	r2, [r0, #1]!
        for (n = 0; n < 16 && n < len; ++n)
    e054:	e2813001 	add	r3, r1, #1
            out[n] = in[n] ^ iv[n];
    e058:	e5fab001 	ldrb	fp, [sl, #1]!
        for (n = 0; n < 16 && n < len; ++n)
    e05c:	e353000f 	cmp	r3, #15
    e060:	91530004 	cmpls	r3, r4
            out[n] = in[n] ^ iv[n];
    e064:	e022200b 	eor	r2, r2, fp
    e068:	e5ee2001 	strb	r2, [lr, #1]!
        for (n = 0; n < 16 && n < len; ++n)
    e06c:	3afffff6 	bcc	e04c <CRYPTO_cbc128_encrypt+0x48>
        for (; n < 16; ++n)
    e070:	e353000f 	cmp	r3, #15
    e074:	8a000006 	bhi	e094 <CRYPTO_cbc128_encrypt+0x90>
    e078:	e08cc001 	add	ip, ip, r1
    e07c:	e0851001 	add	r1, r5, r1
    e080:	e2833001 	add	r3, r3, #1
            out[n] = iv[n];
    e084:	e5fc2001 	ldrb	r2, [ip, #1]!
        for (; n < 16; ++n)
    e088:	e3530010 	cmp	r3, #16
            out[n] = iv[n];
    e08c:	e5e12001 	strb	r2, [r1, #1]!
        for (; n < 16; ++n)
    e090:	1afffffa 	bne	e080 <CRYPTO_cbc128_encrypt+0x7c>
        (*block) (out, out, key);
    e094:	e1a02006 	mov	r2, r6
    e098:	e1a01005 	mov	r1, r5
    e09c:	e1a00005 	mov	r0, r5
    e0a0:	e2899010 	add	r9, r9, #16
    e0a4:	e12fff37 	blx	r7
        iv = out;
        if (len <= 16)
    e0a8:	e3540010 	cmp	r4, #16
            break;
        len -= 16;
        in += 16;
        out += 16;
    e0ac:	81a0c005 	movhi	ip, r5
        len -= 16;
    e0b0:	82444010 	subhi	r4, r4, #16
        out += 16;
    e0b4:	82855010 	addhi	r5, r5, #16
    e0b8:	8affffde 	bhi	e038 <CRYPTO_cbc128_encrypt+0x34>
    }
    memcpy(ivec, iv, 16);
    e0bc:	e59d3000 	ldr	r3, [sp]
    e0c0:	e1a00008 	mov	r0, r8
    e0c4:	e3a02010 	mov	r2, #16
    e0c8:	e2431001 	sub	r1, r3, #1
    e0cc:	e59d3004 	ldr	r3, [sp, #4]
    e0d0:	e3c1100f 	bic	r1, r1, #15
    e0d4:	e0831001 	add	r1, r3, r1
}
    e0d8:	e28dd00c 	add	sp, sp, #12
    e0dc:	e8bd4ff0 	pop	{r4, r5, r6, r7, r8, r9, sl, fp, lr}
    memcpy(ivec, iv, 16);
    e0e0:	ea0005d7 	b	f844 <memcpy>
}
    e0e4:	e28dd00c 	add	sp, sp, #12
    e0e8:	e8bd8ff0 	pop	{r4, r5, r6, r7, r8, r9, sl, fp, pc}

0000e0ec <CRYPTO_cbc128_decrypt>:
    union {
        size_t t[16 / sizeof(size_t)];
        unsigned char c[16];
    } tmp;

    if (len == 0)
    e0ec:	e3520000 	cmp	r2, #0
    e0f0:	012fff1e 	bxeq	lr
{
    e0f4:	e92d4ff0 	push	{r4, r5, r6, r7, r8, r9, sl, fp, lr}
    e0f8:	e24dd01c 	sub	sp, sp, #28
    e0fc:	e1a06003 	mov	r6, r3
    e100:	e59d3040 	ldr	r3, [sp, #64]	; 0x40
    e104:	e2418001 	sub	r8, r1, #1
    if (len == 0)
    e108:	e1a04002 	mov	r4, r2
    e10c:	e1a05000 	mov	r5, r0
    e110:	e58d0004 	str	r0, [sp, #4]
    e114:	e2437001 	sub	r7, r3, #1
    e118:	e58d2000 	str	r2, [sp]
        }
    }
#endif
    while (len) {
        unsigned char c;
        (*block) (in, tmp.c, key);
    e11c:	e28d1008 	add	r1, sp, #8
    e120:	e1a02006 	mov	r2, r6
    e124:	e1a00005 	mov	r0, r5
    e128:	e59d3044 	ldr	r3, [sp, #68]	; 0x44
    e12c:	e12fff33 	blx	r3
    e130:	e2459001 	sub	r9, r5, #1
    e134:	e28de008 	add	lr, sp, #8
    e138:	e1a01007 	mov	r1, r7
    e13c:	e1a0c008 	mov	ip, r8
        for (n = 0; n < 16 && n < len; ++n) {
    e140:	e3a0a000 	mov	sl, #0
    e144:	ea000000 	b	e14c <CRYPTO_cbc128_decrypt+0x60>
    e148:	e1a0a000 	mov	sl, r0
            c = in[n];
            out[n] = tmp.c[n] ^ ivec[n];
    e14c:	e5f1b001 	ldrb	fp, [r1, #1]!
        for (n = 0; n < 16 && n < len; ++n) {
    e150:	e28a0001 	add	r0, sl, #1
            out[n] = tmp.c[n] ^ ivec[n];
    e154:	e4de3001 	ldrb	r3, [lr], #1
        for (n = 0; n < 16 && n < len; ++n) {
    e158:	e350000f 	cmp	r0, #15
    e15c:	91500004 	cmpls	r0, r4
            c = in[n];
    e160:	e5f92001 	ldrb	r2, [r9, #1]!
            out[n] = tmp.c[n] ^ ivec[n];
    e164:	e023300b 	eor	r3, r3, fp
    e168:	e5ec3001 	strb	r3, [ip, #1]!
            ivec[n] = c;
    e16c:	e5c12000 	strb	r2, [r1]
        for (n = 0; n < 16 && n < len; ++n) {
    e170:	3afffff4 	bcc	e148 <CRYPTO_cbc128_decrypt+0x5c>
        }
        if (len <= 16) {
    e174:	e3540010 	cmp	r4, #16
    e178:	e2888010 	add	r8, r8, #16
            for (; n < 16; ++n)
                ivec[n] = in[n];
            break;
        }
        len -= 16;
    e17c:	82444010 	subhi	r4, r4, #16
        in += 16;
    e180:	82855010 	addhi	r5, r5, #16
    e184:	8affffe4 	bhi	e11c <CRYPTO_cbc128_decrypt+0x30>
    e188:	e59d3000 	ldr	r3, [sp]
            for (; n < 16; ++n)
    e18c:	e3500010 	cmp	r0, #16
    e190:	e2432001 	sub	r2, r3, #1
    e194:	e59d3004 	ldr	r3, [sp, #4]
    e198:	e3c2200f 	bic	r2, r2, #15
    e19c:	e0832002 	add	r2, r3, r2
    e1a0:	0a000007 	beq	e1c4 <CRYPTO_cbc128_decrypt+0xd8>
    e1a4:	e59d1040 	ldr	r1, [sp, #64]	; 0x40
    e1a8:	e082300a 	add	r3, r2, sl
    e1ac:	e282200f 	add	r2, r2, #15
    e1b0:	e081a00a 	add	sl, r1, sl
                ivec[n] = in[n];
    e1b4:	e5f31001 	ldrb	r1, [r3, #1]!
            for (; n < 16; ++n)
    e1b8:	e1530002 	cmp	r3, r2
                ivec[n] = in[n];
    e1bc:	e5ea1001 	strb	r1, [sl, #1]!
            for (; n < 16; ++n)
    e1c0:	1afffffb 	bne	e1b4 <CRYPTO_cbc128_decrypt+0xc8>
        out += 16;
    }
}
    e1c4:	e28dd01c 	add	sp, sp, #28
    e1c8:	e8bd8ff0 	pop	{r4, r5, r6, r7, r8, r9, sl, fp, pc}

0000e1cc <RAND_DRBG_free>:

/*
 * Uninstantiate |drbg| and free all memory.
 */
void RAND_DRBG_free(RAND_DRBG *drbg)
{
    e1cc:	e92d4070 	push	{r4, r5, r6, lr}
    if (drbg == NULL)
    e1d0:	e2504000 	subs	r4, r0, #0
    e1d4:	08bd8070 	popeq	{r4, r5, r6, pc}
        return;

    if (drbg->meth != NULL)
    e1d8:	e59430e8 	ldr	r3, [r4, #232]	; 0xe8
    e1dc:	e3530000 	cmp	r3, #0
    e1e0:	0a000001 	beq	e1ec <RAND_DRBG_free+0x20>
        drbg->meth->uninstantiate(drbg);
    e1e4:	e593300c 	ldr	r3, [r3, #12]
    e1e8:	e12fff33 	blx	r3
    rand_pool_free(drbg->adin_pool);
    e1ec:	e594001c 	ldr	r0, [r4, #28]
    CRYPTO_THREAD_lock_free(drbg->lock);
    e1f0:	e1a05004 	mov	r5, r4
    rand_pool_free(drbg->adin_pool);
    e1f4:	eb000028 	bl	e29c <rand_pool_free>
    CRYPTO_THREAD_lock_free(drbg->lock);
    e1f8:	e4950060 	ldr	r0, [r5], #96	; 0x60
    e1fc:	eb000081 	bl	e408 <CRYPTO_THREAD_lock_free>
    CRYPTO_free_ex_data(CRYPTO_EX_INDEX_DRBG, drbg, &drbg->ex_data);
    e200:	e3a0000f 	mov	r0, #15
    e204:	e1a01004 	mov	r1, r4
    e208:	e1a02005 	mov	r2, r5
    e20c:	ebfffd0a 	bl	d63c <CRYPTO_free_ex_data>

    if (drbg->secure)
    e210:	e5943008 	ldr	r3, [r4, #8]
        OPENSSL_secure_clear_free(drbg, sizeof(*drbg));
    e214:	e30f2f8c 	movw	r2, #65420	; 0xff8c
    e218:	e1a00004 	mov	r0, r4
    e21c:	e3402000 	movt	r2, #0
    if (drbg->secure)
    e220:	e3530000 	cmp	r3, #0
    e224:	1a000002 	bne	e234 <RAND_DRBG_free+0x68>
    else
        OPENSSL_clear_free(drbg, sizeof(*drbg));
    e228:	e3a010fc 	mov	r1, #252	; 0xfc
}
    e22c:	e8bd4070 	pop	{r4, r5, r6, lr}
        OPENSSL_clear_free(drbg, sizeof(*drbg));
    e230:	eaffff52 	b	df80 <CRYPTO_clear_free>
        OPENSSL_secure_clear_free(drbg, sizeof(*drbg));
    e234:	e3a03000 	mov	r3, #0
    e238:	e3a010fc 	mov	r1, #252	; 0xfc
}
    e23c:	e8bd4070 	pop	{r4, r5, r6, lr}
        OPENSSL_secure_clear_free(drbg, sizeof(*drbg));
    e240:	eaffff63 	b	dfd4 <CRYPTO_secure_clear_free>

0000e244 <drbg_delete_thread_state>:
        CRYPTO_THREAD_cleanup_local(&public_drbg);
    }
}

void drbg_delete_thread_state(void)
{
    e244:	e92d4070 	push	{r4, r5, r6, lr}
    RAND_DRBG *drbg;

    drbg = CRYPTO_THREAD_get_local(&public_drbg);
    e248:	e30354a8 	movw	r5, #13480	; 0x34a8
    e24c:	e3405001 	movt	r5, #1
    CRYPTO_THREAD_set_local(&public_drbg, NULL);
    RAND_DRBG_free(drbg);

    drbg = CRYPTO_THREAD_get_local(&private_drbg);
    e250:	e30344a4 	movw	r4, #13476	; 0x34a4
    drbg = CRYPTO_THREAD_get_local(&public_drbg);
    e254:	e1a00005 	mov	r0, r5
    drbg = CRYPTO_THREAD_get_local(&private_drbg);
    e258:	e3404001 	movt	r4, #1
    drbg = CRYPTO_THREAD_get_local(&public_drbg);
    e25c:	eb00008d 	bl	e498 <CRYPTO_THREAD_get_local>
    CRYPTO_THREAD_set_local(&public_drbg, NULL);
    e260:	e3a01000 	mov	r1, #0
    drbg = CRYPTO_THREAD_get_local(&public_drbg);
    e264:	e1a06000 	mov	r6, r0
    CRYPTO_THREAD_set_local(&public_drbg, NULL);
    e268:	e1a00005 	mov	r0, r5
    e26c:	eb000090 	bl	e4b4 <CRYPTO_THREAD_set_local>
    RAND_DRBG_free(drbg);
    e270:	e1a00006 	mov	r0, r6
    e274:	ebffffd4 	bl	e1cc <RAND_DRBG_free>
    drbg = CRYPTO_THREAD_get_local(&private_drbg);
    e278:	e1a00004 	mov	r0, r4
    e27c:	eb000085 	bl	e498 <CRYPTO_THREAD_get_local>
    CRYPTO_THREAD_set_local(&private_drbg, NULL);
    e280:	e3a01000 	mov	r1, #0
    drbg = CRYPTO_THREAD_get_local(&private_drbg);
    e284:	e1a05000 	mov	r5, r0
    CRYPTO_THREAD_set_local(&private_drbg, NULL);
    e288:	e1a00004 	mov	r0, r4
    e28c:	eb000088 	bl	e4b4 <CRYPTO_THREAD_set_local>
    RAND_DRBG_free(drbg);
    e290:	e1a00005 	mov	r0, r5
}
    e294:	e8bd4070 	pop	{r4, r5, r6, lr}
    RAND_DRBG_free(drbg);
    e298:	eaffffcb 	b	e1cc <RAND_DRBG_free>

0000e29c <rand_pool_free>:

/*
 * Free |pool|, securely erasing its buffer.
 */
void rand_pool_free(RAND_POOL *pool)
{
    e29c:	e92d4010 	push	{r4, lr}
    if (pool == NULL)
    e2a0:	e2504000 	subs	r4, r0, #0
    e2a4:	08bd8010 	popeq	{r4, pc}
     * Although it would be advisable from a cryptographical viewpoint,
     * we are not allowed to clear attached buffers, since they are passed
     * to rand_pool_attach() as `const unsigned char*`.
     * (see corresponding comment in rand_pool_attach()).
     */
    if (!pool->attached) {
    e2a8:	e5943008 	ldr	r3, [r4, #8]
    e2ac:	e3530000 	cmp	r3, #0
    e2b0:	1a000007 	bne	e2d4 <rand_pool_free+0x38>
        if (pool->secure)
    e2b4:	e594c00c 	ldr	ip, [r4, #12]
            OPENSSL_secure_clear_free(pool->buffer, pool->alloc_len);
    e2b8:	e30f2f8c 	movw	r2, #65420	; 0xff8c
    e2bc:	e5940000 	ldr	r0, [r4]
    e2c0:	e5941018 	ldr	r1, [r4, #24]
        if (pool->secure)
    e2c4:	e35c0000 	cmp	ip, #0
    e2c8:	0a000007 	beq	e2ec <rand_pool_free+0x50>
            OPENSSL_secure_clear_free(pool->buffer, pool->alloc_len);
    e2cc:	e3402000 	movt	r2, #0
    e2d0:	ebffff3f 	bl	dfd4 <CRYPTO_secure_clear_free>
        else
            OPENSSL_clear_free(pool->buffer, pool->alloc_len);
    }

    OPENSSL_free(pool);
    e2d4:	e30f1f8c 	movw	r1, #65420	; 0xff8c
    e2d8:	e1a00004 	mov	r0, r4
    e2dc:	e3401000 	movt	r1, #0
    e2e0:	e3a02000 	mov	r2, #0
}
    e2e4:	e8bd4010 	pop	{r4, lr}
    OPENSSL_free(pool);
    e2e8:	eafffef4 	b	dec0 <CRYPTO_free>
            OPENSSL_clear_free(pool->buffer, pool->alloc_len);
    e2ec:	e1a0300c 	mov	r3, ip
    e2f0:	e3402000 	movt	r2, #0
    e2f4:	ebffff21 	bl	df80 <CRYPTO_clear_free>
    e2f8:	eafffff5 	b	e2d4 <rand_pool_free+0x38>

0000e2fc <OPENSSL_sk_free.part.2>:
        if (st->data[i] != NULL)
            func((char *)st->data[i]);
    OPENSSL_sk_free(st);
}

void OPENSSL_sk_free(OPENSSL_STACK *st)
    e2fc:	e92d4070 	push	{r4, r5, r6, lr}
{
    if (st == NULL)
        return;
    OPENSSL_free(st->data);
    e300:	e30f4f8c 	movw	r4, #65420	; 0xff8c
    e304:	e3404000 	movt	r4, #0
void OPENSSL_sk_free(OPENSSL_STACK *st)
    e308:	e1a05000 	mov	r5, r0
    OPENSSL_free(st->data);
    e30c:	e1a01004 	mov	r1, r4
    e310:	e3a02000 	mov	r2, #0
    e314:	e5900004 	ldr	r0, [r0, #4]
    e318:	ebfffee8 	bl	dec0 <CRYPTO_free>
    OPENSSL_free(st);
    e31c:	e1a01004 	mov	r1, r4
    e320:	e1a00005 	mov	r0, r5
    e324:	e3a02000 	mov	r2, #0
}
    e328:	e8bd4070 	pop	{r4, r5, r6, lr}
    OPENSSL_free(st);
    e32c:	eafffee3 	b	dec0 <CRYPTO_free>

0000e330 <OPENSSL_sk_pop>:
    if (st == NULL || st->num == 0)
    e330:	e2502000 	subs	r2, r0, #0
    e334:	0a000009 	beq	e360 <OPENSSL_sk_pop+0x30>
    e338:	e5923000 	ldr	r3, [r2]
    e33c:	e3530000 	cmp	r3, #0
    e340:	0a000004 	beq	e358 <OPENSSL_sk_pop+0x28>
    const void *ret = st->data[loc];
    e344:	e5921004 	ldr	r1, [r2, #4]
    return internal_delete(st, st->num - 1);
    e348:	e2433001 	sub	r3, r3, #1
    const void *ret = st->data[loc];
    e34c:	e7910103 	ldr	r0, [r1, r3, lsl #2]
    st->num--;
    e350:	e5823000 	str	r3, [r2]
    return internal_delete(st, st->num - 1);
    e354:	e12fff1e 	bx	lr
        return NULL;
    e358:	e1a00003 	mov	r0, r3
}
    e35c:	e12fff1e 	bx	lr
        return NULL;
    e360:	e1a00002 	mov	r0, r2
    e364:	e12fff1e 	bx	lr

0000e368 <OPENSSL_sk_free>:
    if (st == NULL)
    e368:	e3500000 	cmp	r0, #0
    e36c:	012fff1e 	bxeq	lr
    e370:	eaffffe1 	b	e2fc <OPENSSL_sk_free.part.2>

0000e374 <OPENSSL_sk_num>:

int OPENSSL_sk_num(const OPENSSL_STACK *st)
{
    return st == NULL ? -1 : st->num;
    e374:	e3500000 	cmp	r0, #0
    e378:	15900000 	ldrne	r0, [r0]
    e37c:	03e00000 	mvneq	r0, #0
}
    e380:	e12fff1e 	bx	lr

0000e384 <OPENSSL_sk_value>:

void *OPENSSL_sk_value(const OPENSSL_STACK *st, int i)
{
    if (st == NULL || i < 0 || i >= st->num)
    e384:	e3500000 	cmp	r0, #0
    e388:	11a03fa1 	lsrne	r3, r1, #31
    e38c:	03a03001 	moveq	r3, #1
    e390:	e3530000 	cmp	r3, #0
    e394:	1a000005 	bne	e3b0 <OPENSSL_sk_value+0x2c>
    e398:	e5902000 	ldr	r2, [r0]
    e39c:	e1520001 	cmp	r2, r1
    e3a0:	da000002 	ble	e3b0 <OPENSSL_sk_value+0x2c>
        return NULL;
    return (void *)st->data[i];
    e3a4:	e5903004 	ldr	r3, [r0, #4]
    e3a8:	e7930101 	ldr	r0, [r3, r1, lsl #2]
    e3ac:	e12fff1e 	bx	lr
        return NULL;
    e3b0:	e3a00000 	mov	r0, #0
    e3b4:	e12fff1e 	bx	lr

0000e3b8 <CRYPTO_THREAD_lock_new>:

CRYPTO_RWLOCK *CRYPTO_THREAD_lock_new(void)
{
    CRYPTO_RWLOCK *lock;

    if ((lock = OPENSSL_zalloc(sizeof(unsigned int))) == NULL) {
    e3b8:	e30f1f8c 	movw	r1, #65420	; 0xff8c
{
    e3bc:	e92d4010 	push	{r4, lr}
    if ((lock = OPENSSL_zalloc(sizeof(unsigned int))) == NULL) {
    e3c0:	e3a02000 	mov	r2, #0
    e3c4:	e3401000 	movt	r1, #0
    e3c8:	e3a00004 	mov	r0, #4
    e3cc:	ebfffee1 	bl	df58 <CRYPTO_zalloc>
    e3d0:	e3500000 	cmp	r0, #0
        /* Don't set error, to avoid recursion blowup. */
        return NULL;
    }

    *(unsigned int *)lock = 1;
    e3d4:	13a03001 	movne	r3, #1
    e3d8:	15803000 	strne	r3, [r0]

    return lock;
}
    e3dc:	e8bd8010 	pop	{r4, pc}

0000e3e0 <CRYPTO_THREAD_write_lock>:
    e3e0:	e5900000 	ldr	r0, [r0]
    e3e4:	e2400001 	sub	r0, r0, #1
    e3e8:	e16f0f10 	clz	r0, r0
    e3ec:	e1a002a0 	lsr	r0, r0, #5
    e3f0:	e12fff1e 	bx	lr

0000e3f4 <CRYPTO_THREAD_unlock>:
    e3f4:	e5900000 	ldr	r0, [r0]
    e3f8:	e2400001 	sub	r0, r0, #1
    e3fc:	e16f0f10 	clz	r0, r0
    e400:	e1a002a0 	lsr	r0, r0, #5
    e404:	e12fff1e 	bx	lr

0000e408 <CRYPTO_THREAD_lock_free>:
        return 0;
    return 1;
}

void CRYPTO_THREAD_lock_free(CRYPTO_RWLOCK *lock) {
    if (lock == NULL)
    e408:	e2503000 	subs	r3, r0, #0
    e40c:	012fff1e 	bxeq	lr
        return;

    *(unsigned int *)lock = 0;
    e410:	e3a02000 	mov	r2, #0
    OPENSSL_free(lock);
    e414:	e30f1f8c 	movw	r1, #65420	; 0xff8c
    *(unsigned int *)lock = 0;
    e418:	e5832000 	str	r2, [r3]
    OPENSSL_free(lock);
    e41c:	e3401000 	movt	r1, #0
    e420:	eafffea6 	b	dec0 <CRYPTO_free>

0000e424 <CRYPTO_THREAD_run_once>:
    return;
}

int CRYPTO_THREAD_run_once(CRYPTO_ONCE *once, void (*init)(void))
{
    if (*once != 0)
    e424:	e5903000 	ldr	r3, [r0]
    e428:	e3530000 	cmp	r3, #0
    e42c:	1a000006 	bne	e44c <CRYPTO_THREAD_run_once+0x28>
{
    e430:	e92d4010 	push	{r4, lr}
    e434:	e1a04000 	mov	r4, r0
        return 1;

    init();
    e438:	e12fff31 	blx	r1
    *once = 1;
    e43c:	e3a03001 	mov	r3, #1

    return 1;
}
    e440:	e3a00001 	mov	r0, #1
    *once = 1;
    e444:	e5843000 	str	r3, [r4]
}
    e448:	e8bd8010 	pop	{r4, pc}
    e44c:	e3a00001 	mov	r0, #1
    e450:	e12fff1e 	bx	lr

0000e454 <CRYPTO_THREAD_init_local>:

int CRYPTO_THREAD_init_local(CRYPTO_THREAD_LOCAL *key, void (*cleanup)(void *))
{
    static unsigned int thread_local_key = 0;

    if (thread_local_key >= OPENSSL_CRYPTO_THREAD_LOCAL_KEY_MAX)
    e454:	e30334ac 	movw	r3, #13484	; 0x34ac
    e458:	e3403001 	movt	r3, #1
    e45c:	e5932000 	ldr	r2, [r3]
    e460:	e35200ff 	cmp	r2, #255	; 0xff
    e464:	8a000009 	bhi	e490 <CRYPTO_THREAD_init_local+0x3c>
        return 0;

    *key = thread_local_key++;

    thread_local_storage[*key] = NULL;
    e468:	e30314b0 	movw	r1, #13488	; 0x34b0
{
    e46c:	e52de004 	push	{lr}		; (str lr, [sp, #-4]!)
    thread_local_storage[*key] = NULL;
    e470:	e3401001 	movt	r1, #1
    e474:	e3a0e000 	mov	lr, #0
    *key = thread_local_key++;
    e478:	e282c001 	add	ip, r2, #1
    e47c:	e5802000 	str	r2, [r0]

    return 1;
    e480:	e3a00001 	mov	r0, #1
    thread_local_storage[*key] = NULL;
    e484:	e781e102 	str	lr, [r1, r2, lsl #2]
    *key = thread_local_key++;
    e488:	e583c000 	str	ip, [r3]
}
    e48c:	e49df004 	pop	{pc}		; (ldr pc, [sp], #4)
        return 0;
    e490:	e3a00000 	mov	r0, #0
}
    e494:	e12fff1e 	bx	lr

0000e498 <CRYPTO_THREAD_get_local>:

void *CRYPTO_THREAD_get_local(CRYPTO_THREAD_LOCAL *key)
{
    if (*key >= OPENSSL_CRYPTO_THREAD_LOCAL_KEY_MAX)
    e498:	e5902000 	ldr	r2, [r0]
    e49c:	e35200ff 	cmp	r2, #255	; 0xff
        return NULL;

    return thread_local_storage[*key];
    e4a0:	930334b0 	movwls	r3, #13488	; 0x34b0
    e4a4:	93403001 	movtls	r3, #1
    e4a8:	97930102 	ldrls	r0, [r3, r2, lsl #2]
        return NULL;
    e4ac:	83a00000 	movhi	r0, #0
}
    e4b0:	e12fff1e 	bx	lr

0000e4b4 <CRYPTO_THREAD_set_local>:

int CRYPTO_THREAD_set_local(CRYPTO_THREAD_LOCAL *key, void *val)
{
    if (*key >= OPENSSL_CRYPTO_THREAD_LOCAL_KEY_MAX)
    e4b4:	e5903000 	ldr	r3, [r0]
    e4b8:	e35300ff 	cmp	r3, #255	; 0xff
        return 0;

    thread_local_storage[*key] = val;
    e4bc:	930324b0 	movwls	r2, #13488	; 0x34b0

    return 1;
    e4c0:	93a00001 	movls	r0, #1
    thread_local_storage[*key] = val;
    e4c4:	93402001 	movtls	r2, #1
        return 0;
    e4c8:	83a00000 	movhi	r0, #0
    thread_local_storage[*key] = val;
    e4cc:	97821103 	strls	r1, [r2, r3, lsl #2]
}
    e4d0:	e12fff1e 	bx	lr

0000e4d4 <CRYPTO_THREAD_cleanup_local>:

int CRYPTO_THREAD_cleanup_local(CRYPTO_THREAD_LOCAL *key)
{
    *key = OPENSSL_CRYPTO_THREAD_LOCAL_KEY_MAX + 1;
    e4d4:	e3003101 	movw	r3, #257	; 0x101
    e4d8:	e5803000 	str	r3, [r0]
    return 1;
}
    e4dc:	e3a00001 	mov	r0, #1
    e4e0:	e12fff1e 	bx	lr

0000e4e4 <openssl_init_fork_handlers>:
}

int openssl_init_fork_handlers(void)
{
    return 0;
}
    e4e4:	e3a00000 	mov	r0, #0
    e4e8:	e12fff1e 	bx	lr

0000e4ec <__geterrno>:
static int _errno;

int *__geterrno(void)
{
    return &_errno;
}
    e4ec:	e30308b0 	movw	r0, #14512	; 0x38b0
    e4f0:	e3400001 	movt	r0, #1
    e4f4:	e12fff1e 	bx	lr

0000e4f8 <longlong_to_string>:
#define LEFTFORMATFLAG 0x00000800
#define LEADZEROFLAG   0x00001000
#define BLANKPOSFLAG   0x00002000

__NO_INLINE static char *longlong_to_string(char *buf, unsigned long long n, size_t len, uint flag, char *signchar)
{
    e4f8:	e92d4ff8 	push	{r3, r4, r5, r6, r7, r8, r9, sl, fp, lr}
    e4fc:	e1a08000 	mov	r8, r0
    e500:	e59d902c 	ldr	r9, [sp, #44]	; 0x2c
    e504:	e1a04002 	mov	r4, r2
    e508:	e1a05003 	mov	r5, r3
    e50c:	e59d7028 	ldr	r7, [sp, #40]	; 0x28
	size_t pos = len;
	int negative = 0;

	if ((flag & SIGNEDFLAG) && (long long)n < 0) {
    e510:	e219ab01 	ands	sl, r9, #1024	; 0x400
    e514:	0a000003 	beq	e528 <longlong_to_string+0x30>
    e518:	e3520000 	cmp	r2, #0
    e51c:	e2d53000 	sbcs	r3, r5, #0
	int negative = 0;
    e520:	a3a0a000 	movge	sl, #0
	if ((flag & SIGNEDFLAG) && (long long)n < 0) {
    e524:	ba000030 	blt	e5ec <longlong_to_string+0xf4>
	}

	buf[--pos] = 0;

	/* only do the math if the number is >= 10 */
	while (n >= 10) {
    e528:	e3550000 	cmp	r5, #0
	buf[--pos] = 0;
    e52c:	e2477001 	sub	r7, r7, #1
	while (n >= 10) {
    e530:	03540009 	cmpeq	r4, #9
	buf[--pos] = 0;
    e534:	e3a03000 	mov	r3, #0
    e538:	e088b007 	add	fp, r8, r7
    e53c:	e7c83007 	strb	r3, [r8, r7]
	while (n >= 10) {
    e540:	9a000012 	bls	e590 <longlong_to_string+0x98>
		int digit = n % 10;
    e544:	e1a00004 	mov	r0, r4
    e548:	e1a01005 	mov	r1, r5
    e54c:	e3a0200a 	mov	r2, #10
    e550:	e3a03000 	mov	r3, #0
    e554:	fa00061f 	blx	fdd8 <__aeabi_uldivmod>

		n /= 10;
    e558:	e1a00004 	mov	r0, r4
		int digit = n % 10;
    e55c:	e1a06002 	mov	r6, r2
		n /= 10;
    e560:	e1a01005 	mov	r1, r5
    e564:	e3a0200a 	mov	r2, #10
    e568:	e3a03000 	mov	r3, #0

		buf[--pos] = digit + '0';
    e56c:	e2866030 	add	r6, r6, #48	; 0x30
		n /= 10;
    e570:	fa000618 	blx	fdd8 <__aeabi_uldivmod>
	while (n >= 10) {
    e574:	e3510000 	cmp	r1, #0
		buf[--pos] = digit + '0';
    e578:	e2477001 	sub	r7, r7, #1
	while (n >= 10) {
    e57c:	03500009 	cmpeq	r0, #9
		n /= 10;
    e580:	e1a04000 	mov	r4, r0
    e584:	e1a05001 	mov	r5, r1
		buf[--pos] = digit + '0';
    e588:	e56b6001 	strb	r6, [fp, #-1]!
	while (n >= 10) {
    e58c:	8affffec 	bhi	e544 <longlong_to_string+0x4c>
	}
	buf[--pos] = n + '0';

	if (negative)
    e590:	e35a0000 	cmp	sl, #0
	buf[--pos] = n + '0';
    e594:	e2477001 	sub	r7, r7, #1
    e598:	e2844030 	add	r4, r4, #48	; 0x30
    e59c:	e0880007 	add	r0, r8, r7
    e5a0:	e7c84007 	strb	r4, [r8, r7]
	if (negative)
    e5a4:	1a00000c 	bne	e5dc <longlong_to_string+0xe4>
		*signchar = '-';
	else if ((flag & SHOWSIGNFLAG))
    e5a8:	e3190c02 	tst	r9, #512	; 0x200
    e5ac:	1a000006 	bne	e5cc <longlong_to_string+0xd4>
		*signchar = '+';
	else if ((flag & BLANKPOSFLAG))
    e5b0:	e3190a02 	tst	r9, #8192	; 0x2000
		*signchar = ' ';
    e5b4:	159d2030 	ldrne	r2, [sp, #48]	; 0x30
    e5b8:	13a03020 	movne	r3, #32
	else
		*signchar = '\0';
    e5bc:	059d3030 	ldreq	r3, [sp, #48]	; 0x30
		*signchar = ' ';
    e5c0:	15c23000 	strbne	r3, [r2]
		*signchar = '\0';
    e5c4:	05c3a000 	strbeq	sl, [r3]

	return &buf[pos];
}
    e5c8:	e8bd8ff8 	pop	{r3, r4, r5, r6, r7, r8, r9, sl, fp, pc}
		*signchar = '+';
    e5cc:	e59d2030 	ldr	r2, [sp, #48]	; 0x30
    e5d0:	e3a0302b 	mov	r3, #43	; 0x2b
    e5d4:	e5c23000 	strb	r3, [r2]
    e5d8:	e8bd8ff8 	pop	{r3, r4, r5, r6, r7, r8, r9, sl, fp, pc}
		*signchar = '-';
    e5dc:	e59d2030 	ldr	r2, [sp, #48]	; 0x30
    e5e0:	e3a0302d 	mov	r3, #45	; 0x2d
    e5e4:	e5c23000 	strb	r3, [r2]
    e5e8:	e8bd8ff8 	pop	{r3, r4, r5, r6, r7, r8, r9, sl, fp, pc}
		n = -n;
    e5ec:	e2724000 	rsbs	r4, r2, #0
		negative = 1;
    e5f0:	e3a0a001 	mov	sl, #1
		n = -n;
    e5f4:	e2e55000 	rsc	r5, r5, #0
    e5f8:	eaffffca 	b	e528 <longlong_to_string+0x30>

0000e5fc <exponent_to_string>:
__NO_INLINE static size_t exponent_to_string(char *buf, int32_t exponent)
{
	size_t pos = 0;

	/* handle sign */
	if (exponent < 0) {
    e5fc:	e3510000 	cmp	r1, #0
{
    e600:	e92d4070 	push	{r4, r5, r6, lr}
		OUT('-');
		exponent = -exponent;
    e604:	b2611000 	rsblt	r1, r1, #0
		OUT('-');
    e608:	b3a0302d 	movlt	r3, #45	; 0x2d
	} else {
		OUT('+');
    e60c:	a3a0302b 	movge	r3, #43	; 0x2b
	}

	/* see how far we need to bump into the string to print from the right */
	if (exponent >= 1000) pos += 4;
    e610:	e3510ffa 	cmp	r1, #1000	; 0x3e8
{
    e614:	e1a0e000 	mov	lr, r0
		OUT('+');
    e618:	e5c03000 	strb	r3, [r0]
	if (exponent >= 1000) pos += 4;
    e61c:	a3a00005 	movge	r0, #5
    e620:	aa000002 	bge	e630 <exponent_to_string+0x34>
	else if (exponent >= 100) pos += 3;
    e624:	e3510063 	cmp	r1, #99	; 0x63
    e628:	c3a00004 	movgt	r0, #4
    e62c:	da00000f 	ble	e670 <exponent_to_string+0x74>
	else pos++;

	/* print decimal string, from the right */
	uint i = pos;
	do {
		uint digit = (uint32_t)exponent % 10;
    e630:	e30c5ccd 	movw	r5, #52429	; 0xcccd

		buf[--i] = digit + '0';

		exponent /= 10;
    e634:	e3064667 	movw	r4, #26215	; 0x6667
    e638:	e08ee000 	add	lr, lr, r0
		uint digit = (uint32_t)exponent % 10;
    e63c:	e34c5ccc 	movt	r5, #52428	; 0xcccc
		exponent /= 10;
    e640:	e3464666 	movt	r4, #26214	; 0x6666
		uint digit = (uint32_t)exponent % 10;
    e644:	e0832195 	umull	r2, r3, r5, r1
		exponent /= 10;
    e648:	e1a02fc1 	asr	r2, r1, #31
    e64c:	e0cc6194 	smull	r6, ip, r4, r1
		uint digit = (uint32_t)exponent % 10;
    e650:	e1a031a3 	lsr	r3, r3, #3
    e654:	e0833103 	add	r3, r3, r3, lsl #2
    e658:	e0413083 	sub	r3, r1, r3, lsl #1
	} while (exponent != 0);
    e65c:	e072114c 	rsbs	r1, r2, ip, asr #2
		buf[--i] = digit + '0';
    e660:	e2833030 	add	r3, r3, #48	; 0x30
    e664:	e56e3001 	strb	r3, [lr, #-1]!
	} while (exponent != 0);
    e668:	1afffff5 	bne	e644 <exponent_to_string+0x48>
    e66c:	e8bd8070 	pop	{r4, r5, r6, pc}
	else pos++;
    e670:	e3510009 	cmp	r1, #9
    e674:	c3a00003 	movgt	r0, #3
    e678:	d3a00002 	movle	r0, #2
    e67c:	eaffffeb 	b	e630 <exponent_to_string+0x34>

0000e680 <_vsnprintf_output>:
	size_t len;
	size_t pos;
};

static int _vsnprintf_output(const char *str, size_t len, void *state)
{
    e680:	e92d4010 	push	{r4, lr}
	struct _output_args *args = state;

	size_t count = 0;
	while (count < len && *str) {
    e684:	e251e000 	subs	lr, r1, #0
    e688:	0a000016 	beq	e6e8 <_vsnprintf_output+0x68>
    e68c:	e5d01000 	ldrb	r1, [r0]
    e690:	e3510000 	cmp	r1, #0
    e694:	0a000011 	beq	e6e0 <_vsnprintf_output+0x60>
    e698:	e24ee001 	sub	lr, lr, #1
	size_t count = 0;
    e69c:	e3a01000 	mov	r1, #0
    e6a0:	e080e00e 	add	lr, r0, lr
    e6a4:	ea000002 	b	e6b4 <_vsnprintf_output+0x34>
	while (count < len && *str) {
    e6a8:	e5f03001 	ldrb	r3, [r0, #1]!
    e6ac:	e3530000 	cmp	r3, #0
    e6b0:	0a00000a 	beq	e6e0 <_vsnprintf_output+0x60>
		if (args->pos < args->len) {
    e6b4:	e5923008 	ldr	r3, [r2, #8]
			args->outstr[args->pos++] = *str;
		}

		str++;
		count++;
    e6b8:	e2811001 	add	r1, r1, #1
		if (args->pos < args->len) {
    e6bc:	e592c004 	ldr	ip, [r2, #4]
			args->outstr[args->pos++] = *str;
    e6c0:	e2834001 	add	r4, r3, #1
		if (args->pos < args->len) {
    e6c4:	e153000c 	cmp	r3, ip
			args->outstr[args->pos++] = *str;
    e6c8:	35824008 	strcc	r4, [r2, #8]
    e6cc:	3592c000 	ldrcc	ip, [r2]
    e6d0:	35d04000 	ldrbcc	r4, [r0]
    e6d4:	37cc4003 	strbcc	r4, [ip, r3]
	while (count < len && *str) {
    e6d8:	e150000e 	cmp	r0, lr
    e6dc:	1afffff1 	bne	e6a8 <_vsnprintf_output+0x28>
    e6e0:	e1a00001 	mov	r0, r1
	}

	return count;
}
    e6e4:	e8bd8010 	pop	{r4, pc}
	while (count < len && *str) {
    e6e8:	e1a0000e 	mov	r0, lr
    e6ec:	e8bd8010 	pop	{r4, pc}

0000e6f0 <double_to_hexstring.isra.0>:
__NO_INLINE static char *double_to_hexstring(char *buf, size_t len, double d, uint flag)
    e6f0:	e92d4ff0 	push	{r4, r5, r6, r7, r8, r9, sl, fp, lr}
	uint64_t fraction = (u.i & ((1ULL << 52) - 1));
    e6f4:	e3a06000 	mov	r6, #0
__NO_INLINE static char *double_to_hexstring(char *buf, size_t len, double d, uint flag)
    e6f8:	ec532b10 	vmov	r2, r3, d0
	uint64_t fraction = (u.i & ((1ULL << 52) - 1));
    e6fc:	e3a07000 	mov	r7, #0
	if (neg) {
    e700:	e1520006 	cmp	r2, r6
__NO_INLINE static char *double_to_hexstring(char *buf, size_t len, double d, uint flag)
    e704:	e1a05000 	mov	r5, r0
	if (neg) {
    e708:	e0d30007 	sbcs	r0, r3, r7
	uint32_t exponent = (u.i >> 52) & 0x7ff;
    e70c:	e7ea2a53 	ubfx	r2, r3, #20, #11
		OUT('-');
    e710:	b3a0002d 	movlt	r0, #45	; 0x2d
	uint64_t fraction = (u.i & ((1ULL << 52) - 1));
    e714:	e7f37053 	ubfx	r7, r3, #0, #20
		OUT('-');
    e718:	b5c50000 	strblt	r0, [r5]
	if (exponent == 0x7ff) {
    e71c:	e30007ff 	movw	r0, #2047	; 0x7ff
		OUT('-');
    e720:	b3a03001 	movlt	r3, #1
	size_t pos = 0;
    e724:	a3a03000 	movge	r3, #0
	if (exponent == 0x7ff) {
    e728:	e1520000 	cmp	r2, r0
__NO_INLINE static char *double_to_hexstring(char *buf, size_t len, double d, uint flag)
    e72c:	e24dd014 	sub	sp, sp, #20
    e730:	e2011c01 	and	r1, r1, #256	; 0x100
	uint64_t fraction = (u.i & ((1ULL << 52) - 1));
    e734:	ee106a10 	vmov	r6, s0
    e738:	e58d1004 	str	r1, [sp, #4]
	if (exponent == 0x7ff) {
    e73c:	0a000028 	beq	e7e4 <double_to_hexstring.isra.0+0xf4>
	} else if (exponent == 0) {
    e740:	e3520000 	cmp	r2, #0
    e744:	1a000015 	bne	e7a0 <double_to_hexstring.isra.0+0xb0>
		if (fraction == 0) {
    e748:	e1962007 	orrs	r2, r6, r7
			if (flag & CAPSFLAG) OUTSTR("0X0P+0"); else OUTSTR("0x0p+0");
    e74c:	e59d2004 	ldr	r2, [sp, #4]
		if (fraction == 0) {
    e750:	1a000040 	bne	e858 <double_to_hexstring.isra.0+0x168>
			if (flag & CAPSFLAG) OUTSTR("0X0P+0"); else OUTSTR("0x0p+0");
    e754:	e3520000 	cmp	r2, #0
    e758:	1a0000c3 	bne	ea6c <double_to_hexstring.isra.0+0x37c>
    e75c:	e0850003 	add	r0, r5, r3
    e760:	e59fc334 	ldr	ip, [pc, #820]	; ea9c <double_to_hexstring.isra.0+0x3ac>
    e764:	e3a02078 	mov	r2, #120	; 0x78
    e768:	e3a01030 	mov	r1, #48	; 0x30
    e76c:	ea000000 	b	e774 <double_to_hexstring.isra.0+0x84>
    e770:	e5fc2001 	ldrb	r2, [ip, #1]!
    e774:	e3520000 	cmp	r2, #0
    e778:	e4c01001 	strb	r1, [r0], #1
    e77c:	e2833001 	add	r3, r3, #1
    e780:	e1a01002 	mov	r1, r2
    e784:	1afffff9 	bne	e770 <double_to_hexstring.isra.0+0x80>
    e788:	e0853003 	add	r3, r5, r3
	buf[pos] = 0;
    e78c:	e3a02000 	mov	r2, #0
}
    e790:	e1a00005 	mov	r0, r5
	buf[pos] = 0;
    e794:	e5c32000 	strb	r2, [r3]
}
    e798:	e28dd014 	add	sp, sp, #20
    e79c:	e8bd8ff0 	pop	{r4, r5, r6, r7, r8, r9, sl, fp, pc}
		if (flag & CAPSFLAG) OUTSTR("0X1"); else OUTSTR("0x1");
    e7a0:	e59d1004 	ldr	r1, [sp, #4]
		int exponent_signed = exponent - 1023;
    e7a4:	e2422fff 	sub	r2, r2, #1020	; 0x3fc
    e7a8:	e2422003 	sub	r2, r2, #3
    e7ac:	e58d200c 	str	r2, [sp, #12]
		if (flag & CAPSFLAG) OUTSTR("0X1"); else OUTSTR("0x1");
    e7b0:	e3510000 	cmp	r1, #0
    e7b4:	0a000034 	beq	e88c <double_to_hexstring.isra.0+0x19c>
    e7b8:	e59fc2e0 	ldr	ip, [pc, #736]	; eaa0 <double_to_hexstring.isra.0+0x3b0>
    e7bc:	e0850003 	add	r0, r5, r3
    e7c0:	e3a02058 	mov	r2, #88	; 0x58
    e7c4:	e3a01030 	mov	r1, #48	; 0x30
    e7c8:	e3520000 	cmp	r2, #0
    e7cc:	e4c01001 	strb	r1, [r0], #1
    e7d0:	e2833001 	add	r3, r3, #1
    e7d4:	e1a01002 	mov	r1, r2
    e7d8:	0a000036 	beq	e8b8 <double_to_hexstring.isra.0+0x1c8>
    e7dc:	e5fc2001 	ldrb	r2, [ip, #1]!
    e7e0:	eafffff8 	b	e7c8 <double_to_hexstring.isra.0+0xd8>
		if (fraction == 0) {
    e7e4:	e1962007 	orrs	r2, r6, r7
    e7e8:	1a00000c 	bne	e820 <double_to_hexstring.isra.0+0x130>
			if (flag & CAPSFLAG) OUTSTR("INF"); else OUTSTR("inf");
    e7ec:	e3510000 	cmp	r1, #0
    e7f0:	1a000087 	bne	ea14 <double_to_hexstring.isra.0+0x324>
    e7f4:	e59fc2a8 	ldr	ip, [pc, #680]	; eaa4 <double_to_hexstring.isra.0+0x3b4>
    e7f8:	e0850003 	add	r0, r5, r3
    e7fc:	e3a0206e 	mov	r2, #110	; 0x6e
    e800:	e3a01069 	mov	r1, #105	; 0x69
    e804:	e3520000 	cmp	r2, #0
    e808:	e4c01001 	strb	r1, [r0], #1
    e80c:	e2833001 	add	r3, r3, #1
    e810:	e1a01002 	mov	r1, r2
    e814:	0affffdb 	beq	e788 <double_to_hexstring.isra.0+0x98>
    e818:	e5fc2001 	ldrb	r2, [ip, #1]!
    e81c:	eafffff8 	b	e804 <double_to_hexstring.isra.0+0x114>
			if (flag & CAPSFLAG) OUTSTR("NAN"); else OUTSTR("nan");
    e820:	e59d2004 	ldr	r2, [sp, #4]
    e824:	e3520000 	cmp	r2, #0
    e828:	1a00006e 	bne	e9e8 <double_to_hexstring.isra.0+0x2f8>
    e82c:	e59fc274 	ldr	ip, [pc, #628]	; eaa8 <double_to_hexstring.isra.0+0x3b8>
    e830:	e0850003 	add	r0, r5, r3
    e834:	e3a02061 	mov	r2, #97	; 0x61
    e838:	e3a0106e 	mov	r1, #110	; 0x6e
    e83c:	e3520000 	cmp	r2, #0
    e840:	e4c01001 	strb	r1, [r0], #1
    e844:	e2833001 	add	r3, r3, #1
    e848:	e1a01002 	mov	r1, r2
    e84c:	0affffcd 	beq	e788 <double_to_hexstring.isra.0+0x98>
    e850:	e5fc2001 	ldrb	r2, [ip, #1]!
    e854:	eafffff8 	b	e83c <double_to_hexstring.isra.0+0x14c>
			if (flag & CAPSFLAG) OUTSTR("DEN"); else OUTSTR("den");
    e858:	e3520000 	cmp	r2, #0
    e85c:	1a000077 	bne	ea40 <double_to_hexstring.isra.0+0x350>
    e860:	e59fc244 	ldr	ip, [pc, #580]	; eaac <double_to_hexstring.isra.0+0x3bc>
    e864:	e0850003 	add	r0, r5, r3
    e868:	e3a02065 	mov	r2, #101	; 0x65
    e86c:	e3a01064 	mov	r1, #100	; 0x64
    e870:	e3520000 	cmp	r2, #0
    e874:	e4c01001 	strb	r1, [r0], #1
    e878:	e2833001 	add	r3, r3, #1
    e87c:	e1a01002 	mov	r1, r2
    e880:	0affffc0 	beq	e788 <double_to_hexstring.isra.0+0x98>
    e884:	e5fc2001 	ldrb	r2, [ip, #1]!
    e888:	eafffff8 	b	e870 <double_to_hexstring.isra.0+0x180>
    e88c:	e59fc21c 	ldr	ip, [pc, #540]	; eab0 <double_to_hexstring.isra.0+0x3c0>
    e890:	e0850003 	add	r0, r5, r3
		if (flag & CAPSFLAG) OUTSTR("0X1"); else OUTSTR("0x1");
    e894:	e3a02078 	mov	r2, #120	; 0x78
    e898:	e3a01030 	mov	r1, #48	; 0x30
    e89c:	e3520000 	cmp	r2, #0
    e8a0:	e4c01001 	strb	r1, [r0], #1
    e8a4:	e2833001 	add	r3, r3, #1
    e8a8:	e1a01002 	mov	r1, r2
    e8ac:	0a000049 	beq	e9d8 <double_to_hexstring.isra.0+0x2e8>
    e8b0:	e5fc2001 	ldrb	r2, [ip, #1]!
    e8b4:	eafffff8 	b	e89c <double_to_hexstring.isra.0+0x1ac>
		const char *table = (flag & CAPSFLAG) ? hextable_caps : hextable;
    e8b8:	e3022844 	movw	r2, #10308	; 0x2844
    e8bc:	e3402001 	movt	r2, #1
    e8c0:	e58d2008 	str	r2, [sp, #8]
		bool output_dot = false;
    e8c4:	e3a0a000 	mov	sl, #0
		for (int i = 52 - 4; i >= 0; i -= 4) {
    e8c8:	e3a01030 	mov	r1, #48	; 0x30
		int zero_count = 0;
    e8cc:	e1a0c00a 	mov	ip, sl
					OUT('0');
    e8d0:	e1a0e001 	mov	lr, r1
    e8d4:	ea000002 	b	e8e4 <double_to_hexstring.isra.0+0x1f4>
		for (int i = 52 - 4; i >= 0; i -= 4) {
    e8d8:	e2411004 	sub	r1, r1, #4
    e8dc:	e3710004 	cmn	r1, #4
    e8e0:	0a00002d 	beq	e99c <double_to_hexstring.isra.0+0x2ac>
			uint digit = (fraction >> i) & 0xf;
    e8e4:	e1a02136 	lsr	r2, r6, r1
    e8e8:	e2610020 	rsb	r0, r1, #32
    e8ec:	e2418020 	sub	r8, r1, #32
    e8f0:	e1822017 	orr	r2, r2, r7, lsl r0
    e8f4:	e2834001 	add	r4, r3, #1
    e8f8:	e0850004 	add	r0, r5, r4
    e8fc:	e1822837 	orr	r2, r2, r7, lsr r8
    e900:	e0859003 	add	r9, r5, r3
			if (digit == 0) {
    e904:	e212200f 	ands	r2, r2, #15
				zero_count++;
    e908:	028cc001 	addeq	ip, ip, #1
			if (digit == 0) {
    e90c:	0afffff1 	beq	e8d8 <double_to_hexstring.isra.0+0x1e8>
				if (!output_dot) {
    e910:	e35a0000 	cmp	sl, #0
    e914:	e283a002 	add	sl, r3, #2
    e918:	e085b00a 	add	fp, r5, sl
    e91c:	1a000008 	bne	e944 <double_to_hexstring.isra.0+0x254>
    e920:	e2838003 	add	r8, r3, #3
					OUT('.');
    e924:	e3a0302e 	mov	r3, #46	; 0x2e
    e928:	e5c93000 	strb	r3, [r9]
    e92c:	e1a03004 	mov	r3, r4
    e930:	e1a09000 	mov	r9, r0
    e934:	e1a0400a 	mov	r4, sl
    e938:	e1a0000b 	mov	r0, fp
    e93c:	e1a0a008 	mov	sl, r8
    e940:	e085b008 	add	fp, r5, r8
				while (zero_count > 0) {
    e944:	e35c0000 	cmp	ip, #0
    e948:	0a00001c 	beq	e9c0 <double_to_hexstring.isra.0+0x2d0>
    e94c:	e085400c 	add	r4, r5, ip
    e950:	e0850003 	add	r0, r5, r3
    e954:	e0844003 	add	r4, r4, r3
					OUT('0');
    e958:	e4c0e001 	strb	lr, [r0], #1
				while (zero_count > 0) {
    e95c:	e1540000 	cmp	r4, r0
    e960:	1afffffc 	bne	e958 <double_to_hexstring.isra.0+0x268>
    e964:	e08cc003 	add	ip, ip, r3
    e968:	e28c3001 	add	r3, ip, #1
    e96c:	e28c4002 	add	r4, ip, #2
    e970:	e0859003 	add	r9, r5, r3
    e974:	e085800c 	add	r8, r5, ip
    e978:	e0850004 	add	r0, r5, r4
				buf[pos++] = table[digit];
    e97c:	e59dc008 	ldr	ip, [sp, #8]
		for (int i = 52 - 4; i >= 0; i -= 4) {
    e980:	e2411004 	sub	r1, r1, #4
    e984:	e3710004 	cmn	r1, #4
				buf[pos++] = table[digit];
    e988:	e3a0a001 	mov	sl, #1
    e98c:	e7dc2002 	ldrb	r2, [ip, r2]
    e990:	e3a0c000 	mov	ip, #0
    e994:	e5c82000 	strb	r2, [r8]
		for (int i = 52 - 4; i >= 0; i -= 4) {
    e998:	1affffd1 	bne	e8e4 <double_to_hexstring.isra.0+0x1f4>
		buf[pos++] = (flag & CAPSFLAG) ? 'P' : 'p';
    e99c:	e59d3004 	ldr	r3, [sp, #4]
		pos += exponent_to_string(&buf[pos], exponent_signed);
    e9a0:	e59d100c 	ldr	r1, [sp, #12]
		buf[pos++] = (flag & CAPSFLAG) ? 'P' : 'p';
    e9a4:	e3530000 	cmp	r3, #0
    e9a8:	03a03070 	moveq	r3, #112	; 0x70
    e9ac:	13a03050 	movne	r3, #80	; 0x50
    e9b0:	e5c93000 	strb	r3, [r9]
		pos += exponent_to_string(&buf[pos], exponent_signed);
    e9b4:	ebffff10 	bl	e5fc <exponent_to_string>
    e9b8:	e0803004 	add	r3, r0, r4
    e9bc:	eaffff71 	b	e788 <double_to_hexstring.isra.0+0x98>
				while (zero_count > 0) {
    e9c0:	e1a08009 	mov	r8, r9
    e9c4:	e1a03004 	mov	r3, r4
    e9c8:	e1a09000 	mov	r9, r0
    e9cc:	e1a0400a 	mov	r4, sl
    e9d0:	e1a0000b 	mov	r0, fp
    e9d4:	eaffffe8 	b	e97c <double_to_hexstring.isra.0+0x28c>
		const char *table = (flag & CAPSFLAG) ? hextable_caps : hextable;
    e9d8:	e3022834 	movw	r2, #10292	; 0x2834
    e9dc:	e3402001 	movt	r2, #1
    e9e0:	e58d2008 	str	r2, [sp, #8]
    e9e4:	eaffffb6 	b	e8c4 <double_to_hexstring.isra.0+0x1d4>
    e9e8:	e59fc0c4 	ldr	ip, [pc, #196]	; eab4 <double_to_hexstring.isra.0+0x3c4>
    e9ec:	e0850003 	add	r0, r5, r3
			if (flag & CAPSFLAG) OUTSTR("NAN"); else OUTSTR("nan");
    e9f0:	e3a02041 	mov	r2, #65	; 0x41
    e9f4:	e3a0104e 	mov	r1, #78	; 0x4e
    e9f8:	e3520000 	cmp	r2, #0
    e9fc:	e4c01001 	strb	r1, [r0], #1
    ea00:	e2833001 	add	r3, r3, #1
    ea04:	e1a01002 	mov	r1, r2
    ea08:	0affff5e 	beq	e788 <double_to_hexstring.isra.0+0x98>
    ea0c:	e5fc2001 	ldrb	r2, [ip, #1]!
    ea10:	eafffff8 	b	e9f8 <double_to_hexstring.isra.0+0x308>
    ea14:	e59fc09c 	ldr	ip, [pc, #156]	; eab8 <double_to_hexstring.isra.0+0x3c8>
    ea18:	e0850003 	add	r0, r5, r3
			if (flag & CAPSFLAG) OUTSTR("INF"); else OUTSTR("inf");
    ea1c:	e3a0204e 	mov	r2, #78	; 0x4e
    ea20:	e3a01049 	mov	r1, #73	; 0x49
    ea24:	e3520000 	cmp	r2, #0
    ea28:	e4c01001 	strb	r1, [r0], #1
    ea2c:	e2833001 	add	r3, r3, #1
    ea30:	e1a01002 	mov	r1, r2
    ea34:	0affff53 	beq	e788 <double_to_hexstring.isra.0+0x98>
    ea38:	e5fc2001 	ldrb	r2, [ip, #1]!
    ea3c:	eafffff8 	b	ea24 <double_to_hexstring.isra.0+0x334>
    ea40:	e59fc074 	ldr	ip, [pc, #116]	; eabc <double_to_hexstring.isra.0+0x3cc>
    ea44:	e0850003 	add	r0, r5, r3
			if (flag & CAPSFLAG) OUTSTR("DEN"); else OUTSTR("den");
    ea48:	e3a02045 	mov	r2, #69	; 0x45
    ea4c:	e3a01044 	mov	r1, #68	; 0x44
    ea50:	e3520000 	cmp	r2, #0
    ea54:	e4c01001 	strb	r1, [r0], #1
    ea58:	e2833001 	add	r3, r3, #1
    ea5c:	e1a01002 	mov	r1, r2
    ea60:	0affff48 	beq	e788 <double_to_hexstring.isra.0+0x98>
    ea64:	e5fc2001 	ldrb	r2, [ip, #1]!
    ea68:	eafffff8 	b	ea50 <double_to_hexstring.isra.0+0x360>
    ea6c:	e59fc04c 	ldr	ip, [pc, #76]	; eac0 <double_to_hexstring.isra.0+0x3d0>
    ea70:	e0850003 	add	r0, r5, r3
			if (flag & CAPSFLAG) OUTSTR("0X0P+0"); else OUTSTR("0x0p+0");
    ea74:	e3a02058 	mov	r2, #88	; 0x58
    ea78:	e3a01030 	mov	r1, #48	; 0x30
    ea7c:	ea000000 	b	ea84 <double_to_hexstring.isra.0+0x394>
    ea80:	e5fc2001 	ldrb	r2, [ip, #1]!
    ea84:	e3520000 	cmp	r2, #0
    ea88:	e4c01001 	strb	r1, [r0], #1
    ea8c:	e2833001 	add	r3, r3, #1
    ea90:	e1a01002 	mov	r1, r2
    ea94:	1afffff9 	bne	ea80 <double_to_hexstring.isra.0+0x390>
    ea98:	eaffff3a 	b	e788 <double_to_hexstring.isra.0+0x98>
    ea9c:	00012801 	.word	0x00012801
    eaa0:	0001281d 	.word	0x0001281d
    eaa4:	000127f1 	.word	0x000127f1
    eaa8:	000127f9 	.word	0x000127f9
    eaac:	00012811 	.word	0x00012811
    eab0:	00012819 	.word	0x00012819
    eab4:	000127fd 	.word	0x000127fd
    eab8:	000127f5 	.word	0x000127f5
    eabc:	00012815 	.word	0x00012815
    eac0:	00012809 	.word	0x00012809

0000eac4 <longlong_to_hexstring.constprop.1>:
__NO_INLINE static char *longlong_to_hexstring(char *buf, unsigned long long u, size_t len, uint flag)
    eac4:	e92d4010 	push	{r4, lr}
	const char *table = (flag & CAPSFLAG) ? hextable_caps : hextable;
    eac8:	e3021834 	movw	r1, #10292	; 0x2834
__NO_INLINE static char *longlong_to_hexstring(char *buf, unsigned long long u, size_t len, uint flag)
    eacc:	e59dc008 	ldr	ip, [sp, #8]
	const char *table = (flag & CAPSFLAG) ? hextable_caps : hextable;
    ead0:	e3401001 	movt	r1, #1
    ead4:	e3024844 	movw	r4, #10308	; 0x2844
    ead8:	e3404001 	movt	r4, #1
    eadc:	e31c0c01 	tst	ip, #256	; 0x100
    eae0:	e280c01e 	add	ip, r0, #30
    eae4:	01a04001 	moveq	r4, r1
	buf[--pos] = 0;
    eae8:	e3a01000 	mov	r1, #0
    eaec:	e5c0101f 	strb	r1, [r0, #31]
		u /= 16;
    eaf0:	e1a01222 	lsr	r1, r2, #4
    eaf4:	e1a00223 	lsr	r0, r3, #4
    eaf8:	e1811e03 	orr	r1, r1, r3, lsl #28
		unsigned int digit = u % 16;
    eafc:	e202e00f 	and	lr, r2, #15
		u /= 16;
    eb00:	e1a03000 	mov	r3, r0
    eb04:	e1a02001 	mov	r2, r1
		buf[--pos] = table[digit];
    eb08:	e7d4100e 	ldrb	r1, [r4, lr]
	} while (u != 0);
    eb0c:	e192e003 	orrs	lr, r2, r3
		buf[--pos] = table[digit];
    eb10:	e1a0000c 	mov	r0, ip
    eb14:	e44c1001 	strb	r1, [ip], #-1
	} while (u != 0);
    eb18:	1afffff4 	bne	eaf0 <longlong_to_hexstring.constprop.1+0x2c>
    eb1c:	e8bd8010 	pop	{r4, pc}

0000eb20 <double_to_string.constprop.2>:
__NO_INLINE static char *double_to_string(char *buf, size_t len, double d, uint flag)
    eb20:	e92d47f0 	push	{r4, r5, r6, r7, r8, r9, sl, lr}
    eb24:	e1a0a000 	mov	sl, r0
    eb28:	ec576b10 	vmov	r6, r7, d0
    eb2c:	e24dd018 	sub	sp, sp, #24
	if (neg) {
    eb30:	e3560000 	cmp	r6, #0
	uint32_t exponent = (u.i >> 52) & 0x7ff;
    eb34:	e1a03007 	mov	r3, r7
	if (neg) {
    eb38:	e2d72000 	sbcs	r2, r7, #0
	uint32_t exponent = (u.i >> 52) & 0x7ff;
    eb3c:	e7ea2a57 	ubfx	r2, r7, #20, #11
		OUT('-');
    eb40:	b3a0302d 	movlt	r3, #45	; 0x2d
	bool neg = !!(u.i & (1ULL << 63));
    eb44:	e1a05007 	mov	r5, r7
		OUT('-');
    eb48:	b5c03000 	strblt	r3, [r0]
	if (exponent == 0x7ff) {
    eb4c:	e30007ff 	movw	r0, #2047	; 0x7ff
	uint64_t fraction = (u.i & ((1ULL << 52) - 1));
    eb50:	e7f39057 	ubfx	r9, r7, #0, #20
		OUT('-');
    eb54:	b3a03001 	movlt	r3, #1
		d = -d;
    eb58:	b2277102 	eorlt	r7, r7, #-2147483648	; 0x80000000
	size_t pos = 0;
    eb5c:	a3a03000 	movge	r3, #0
	if (exponent == 0x7ff) {
    eb60:	e1520000 	cmp	r2, r0
	bool neg = !!(u.i & (1ULL << 63));
    eb64:	ee104a10 	vmov	r4, s0
	uint64_t fraction = (u.i & ((1ULL << 52) - 1));
    eb68:	ee108a10 	vmov	r8, s0
	if (exponent == 0x7ff) {
    eb6c:	0a000024 	beq	ec04 <double_to_string.constprop.2+0xe4>
	} else if (exponent == 0) {
    eb70:	e3520000 	cmp	r2, #0
    eb74:	1a00000e 	bne	ebb4 <double_to_string.constprop.2+0x94>
		if (fraction == 0) {
    eb78:	e1982009 	orrs	r2, r8, r9
    eb7c:	0a00003f 	beq	ec80 <double_to_string.constprop.2+0x160>
			if (flag & CAPSFLAG) OUTSTR("DEN"); else OUTSTR("den");
    eb80:	e3110c01 	tst	r1, #256	; 0x100
    eb84:	1a00008f 	bne	edc8 <double_to_string.constprop.2+0x2a8>
    eb88:	e59fc2e0 	ldr	ip, [pc, #736]	; ee70 <double_to_string.constprop.2+0x350>
    eb8c:	e08a0003 	add	r0, sl, r3
    eb90:	e3a02065 	mov	r2, #101	; 0x65
    eb94:	e3a01064 	mov	r1, #100	; 0x64
    eb98:	e3520000 	cmp	r2, #0
    eb9c:	e4c01001 	strb	r1, [r0], #1
    eba0:	e2833001 	add	r3, r3, #1
    eba4:	e1a01002 	mov	r1, r2
    eba8:	0a000010 	beq	ebf0 <double_to_string.constprop.2+0xd0>
    ebac:	e5fc2001 	ldrb	r2, [ip, #1]!
    ebb0:	eafffff8 	b	eb98 <double_to_string.constprop.2+0x78>
		if (exponent_signed < -52 || exponent_signed > 52) {
    ebb4:	e2420ff2 	sub	r0, r2, #968	; 0x3c8
    ebb8:	e2400003 	sub	r0, r0, #3
    ebbc:	e3500068 	cmp	r0, #104	; 0x68
    ebc0:	9a00003a 	bls	ecb0 <double_to_string.constprop.2+0x190>
    ebc4:	e59fc2a8 	ldr	ip, [pc, #680]	; ee74 <double_to_string.constprop.2+0x354>
    ebc8:	e08a0003 	add	r0, sl, r3
    ebcc:	e3a02072 	mov	r2, #114	; 0x72
			OUTSTR("<range>");
    ebd0:	e3a0103c 	mov	r1, #60	; 0x3c
    ebd4:	ea000000 	b	ebdc <double_to_string.constprop.2+0xbc>
    ebd8:	e5fc2001 	ldrb	r2, [ip, #1]!
    ebdc:	e3520000 	cmp	r2, #0
    ebe0:	e4c01001 	strb	r1, [r0], #1
    ebe4:	e2833001 	add	r3, r3, #1
    ebe8:	e1a01002 	mov	r1, r2
    ebec:	1afffff9 	bne	ebd8 <double_to_string.constprop.2+0xb8>
	buf[pos] = 0;
    ebf0:	e1a0000a 	mov	r0, sl
    ebf4:	e3a02000 	mov	r2, #0
    ebf8:	e7ca2003 	strb	r2, [sl, r3]
}
    ebfc:	e28dd018 	add	sp, sp, #24
    ec00:	e8bd87f0 	pop	{r4, r5, r6, r7, r8, r9, sl, pc}
		if (fraction == 0) {
    ec04:	e1982009 	orrs	r2, r8, r9
    ec08:	e2011c01 	and	r1, r1, #256	; 0x100
    ec0c:	1a00000d 	bne	ec48 <double_to_string.constprop.2+0x128>
			if (flag & CAPSFLAG) OUTSTR("INF"); else OUTSTR("inf");
    ec10:	e3510000 	cmp	r1, #0
    ec14:	1a00005f 	bne	ed98 <double_to_string.constprop.2+0x278>
    ec18:	e08a0003 	add	r0, sl, r3
    ec1c:	e59fc254 	ldr	ip, [pc, #596]	; ee78 <double_to_string.constprop.2+0x358>
    ec20:	e3a0206e 	mov	r2, #110	; 0x6e
    ec24:	e3a01069 	mov	r1, #105	; 0x69
    ec28:	ea000000 	b	ec30 <double_to_string.constprop.2+0x110>
    ec2c:	e5fc2001 	ldrb	r2, [ip, #1]!
    ec30:	e3520000 	cmp	r2, #0
    ec34:	e4c01001 	strb	r1, [r0], #1
    ec38:	e2833001 	add	r3, r3, #1
    ec3c:	e1a01002 	mov	r1, r2
    ec40:	1afffff9 	bne	ec2c <double_to_string.constprop.2+0x10c>
    ec44:	eaffffe9 	b	ebf0 <double_to_string.constprop.2+0xd0>
			if (flag & CAPSFLAG) OUTSTR("NAN"); else OUTSTR("nan");
    ec48:	e3510000 	cmp	r1, #0
    ec4c:	1a000045 	bne	ed68 <double_to_string.constprop.2+0x248>
    ec50:	e08a0003 	add	r0, sl, r3
    ec54:	e59fc220 	ldr	ip, [pc, #544]	; ee7c <double_to_string.constprop.2+0x35c>
    ec58:	e3a02061 	mov	r2, #97	; 0x61
    ec5c:	e3a0106e 	mov	r1, #110	; 0x6e
    ec60:	ea000000 	b	ec68 <double_to_string.constprop.2+0x148>
    ec64:	e5fc2001 	ldrb	r2, [ip, #1]!
    ec68:	e3520000 	cmp	r2, #0
    ec6c:	e4c01001 	strb	r1, [r0], #1
    ec70:	e2833001 	add	r3, r3, #1
    ec74:	e1a01002 	mov	r1, r2
    ec78:	1afffff9 	bne	ec64 <double_to_string.constprop.2+0x144>
    ec7c:	eaffffdb 	b	ebf0 <double_to_string.constprop.2+0xd0>
    ec80:	e59fc1f8 	ldr	ip, [pc, #504]	; ee80 <double_to_string.constprop.2+0x360>
    ec84:	e08a0003 	add	r0, sl, r3
		if (fraction == 0) {
    ec88:	e3a0202e 	mov	r2, #46	; 0x2e
			OUTSTR("0.000000");
    ec8c:	e3a01030 	mov	r1, #48	; 0x30
    ec90:	ea000000 	b	ec98 <double_to_string.constprop.2+0x178>
    ec94:	e5fc2001 	ldrb	r2, [ip, #1]!
    ec98:	e3520000 	cmp	r2, #0
    ec9c:	e4c01001 	strb	r1, [r0], #1
    eca0:	e2833001 	add	r3, r3, #1
    eca4:	e1a01002 	mov	r1, r2
    eca8:	1afffff9 	bne	ec94 <double_to_string.constprop.2+0x174>
    ecac:	eaffffcf 	b	ebf0 <double_to_string.constprop.2+0xd0>
    ecb0:	e28ac018 	add	ip, sl, #24
				OUTREV('0');
    ecb4:	e3a00030 	mov	r0, #48	; 0x30
			OUTREV(0);
    ecb8:	e3a0e000 	mov	lr, #0
    ecbc:	e1a0300a 	mov	r3, sl
    ecc0:	e5e3e01f 	strb	lr, [r3, #31]!
				OUTREV('0');
    ecc4:	e5630001 	strb	r0, [r3, #-1]!
			for (int i = 0; i <= 6; i++)
    ecc8:	e153000c 	cmp	r3, ip
    eccc:	1afffffc 	bne	ecc4 <double_to_string.constprop.2+0x1a4>
		int exponent_signed = exponent - 1023;
    ecd0:	e2423fff 	sub	r3, r2, #1020	; 0x3fc
    ecd4:	e2433003 	sub	r3, r3, #3
			if (exponent_signed >= 0) {
    ecd8:	e3530000 	cmp	r3, #0
				OUTREV('0');
    ecdc:	b3a09017 	movlt	r9, #23
    ece0:	b5ca0017 	strblt	r0, [sl, #23]
			if (exponent_signed >= 0) {
    ece4:	aa000042 	bge	edf4 <double_to_string.constprop.2+0x2d4>
				uint32_t frac = ((d - u) * 1000000) + .5;
    ece8:	ed9f6b5e 	vldr	d6, [pc, #376]	; ee68 <double_to_string.constprop.2+0x348>
			buf[decimal_spot] = '.';
    ecec:	e3a0302e 	mov	r3, #46	; 0x2e
				uint32_t frac = ((d - u) * 1000000) + .5;
    ecf0:	eeb67b00 	vmov.f64	d7, #96	; 0x3f000000  0.5
    ecf4:	ec476b15 	vmov	d5, r6, r7
			buf[decimal_spot] = '.';
    ecf8:	e5ca3020 	strb	r3, [sl, #32]
				uint32_t frac = ((d - u) * 1000000) + .5;
    ecfc:	ee057b06 	vmla.f64	d7, d5, d6
    ed00:	eefc7bc7 	vcvt.u32.f64	s15, d7
    ed04:	ee171a90 	vmov	r1, s15
				while (frac != 0) {
    ed08:	e3510000 	cmp	r1, #0
    ed0c:	0a00000a 	beq	ed3c <double_to_string.constprop.2+0x21c>
					uint digit = frac % 10;
    ed10:	e30ccccd 	movw	ip, #52429	; 0xcccd
    ed14:	e28a0027 	add	r0, sl, #39	; 0x27
    ed18:	e34ccccc 	movt	ip, #52428	; 0xcccc
    ed1c:	e083219c 	umull	r2, r3, ip, r1
    ed20:	e1a031a3 	lsr	r3, r3, #3
    ed24:	e0832103 	add	r2, r3, r3, lsl #2
    ed28:	e0412082 	sub	r2, r1, r2, lsl #1
				while (frac != 0) {
    ed2c:	e2531000 	subs	r1, r3, #0
					buf[--i] = digit + '0';
    ed30:	e2823030 	add	r3, r2, #48	; 0x30
    ed34:	e5603001 	strb	r3, [r0, #-1]!
				while (frac != 0) {
    ed38:	1afffff7 	bne	ed1c <double_to_string.constprop.2+0x1fc>
			if (neg)
    ed3c:	e3540000 	cmp	r4, #0
    ed40:	e2d53000 	sbcs	r3, r5, #0
    ed44:	a08a0009 	addge	r0, sl, r9
    ed48:	aaffffab 	bge	ebfc <double_to_string.constprop.2+0xdc>
				OUTREV('-');
    ed4c:	e3590000 	cmp	r9, #0
    ed50:	12490001 	subne	r0, r9, #1
    ed54:	13a0302d 	movne	r3, #45	; 0x2d
    ed58:	17ca3000 	strbne	r3, [sl, r0]
    ed5c:	01a0000a 	moveq	r0, sl
    ed60:	108a0000 	addne	r0, sl, r0
    ed64:	eaffffa4 	b	ebfc <double_to_string.constprop.2+0xdc>
    ed68:	e59fc114 	ldr	ip, [pc, #276]	; ee84 <double_to_string.constprop.2+0x364>
    ed6c:	e08a0003 	add	r0, sl, r3
			if (flag & CAPSFLAG) OUTSTR("NAN"); else OUTSTR("nan");
    ed70:	e3a02041 	mov	r2, #65	; 0x41
    ed74:	e3a0104e 	mov	r1, #78	; 0x4e
    ed78:	ea000000 	b	ed80 <double_to_string.constprop.2+0x260>
    ed7c:	e5fc2001 	ldrb	r2, [ip, #1]!
    ed80:	e3520000 	cmp	r2, #0
    ed84:	e4c01001 	strb	r1, [r0], #1
    ed88:	e2833001 	add	r3, r3, #1
    ed8c:	e1a01002 	mov	r1, r2
    ed90:	1afffff9 	bne	ed7c <double_to_string.constprop.2+0x25c>
    ed94:	eaffff95 	b	ebf0 <double_to_string.constprop.2+0xd0>
    ed98:	e59fc0e8 	ldr	ip, [pc, #232]	; ee88 <double_to_string.constprop.2+0x368>
    ed9c:	e08a0003 	add	r0, sl, r3
			if (flag & CAPSFLAG) OUTSTR("INF"); else OUTSTR("inf");
    eda0:	e3a0204e 	mov	r2, #78	; 0x4e
    eda4:	e3a01049 	mov	r1, #73	; 0x49
    eda8:	ea000000 	b	edb0 <double_to_string.constprop.2+0x290>
    edac:	e5fc2001 	ldrb	r2, [ip, #1]!
    edb0:	e3520000 	cmp	r2, #0
    edb4:	e4c01001 	strb	r1, [r0], #1
    edb8:	e2833001 	add	r3, r3, #1
    edbc:	e1a01002 	mov	r1, r2
    edc0:	1afffff9 	bne	edac <double_to_string.constprop.2+0x28c>
    edc4:	eaffff89 	b	ebf0 <double_to_string.constprop.2+0xd0>
    edc8:	e59fc0bc 	ldr	ip, [pc, #188]	; ee8c <double_to_string.constprop.2+0x36c>
    edcc:	e08a0003 	add	r0, sl, r3
			if (flag & CAPSFLAG) OUTSTR("DEN"); else OUTSTR("den");
    edd0:	e3a02045 	mov	r2, #69	; 0x45
    edd4:	e3a01044 	mov	r1, #68	; 0x44
    edd8:	e3520000 	cmp	r2, #0
    eddc:	e4c01001 	strb	r1, [r0], #1
    ede0:	e2833001 	add	r3, r3, #1
    ede4:	e1a01002 	mov	r1, r2
    ede8:	0affff80 	beq	ebf0 <double_to_string.constprop.2+0xd0>
    edec:	e5fc2001 	ldrb	r2, [ip, #1]!
    edf0:	eafffff8 	b	edd8 <double_to_string.constprop.2+0x2b8>
				u >>= (52 - exponent_signed);
    edf4:	e2633034 	rsb	r3, r3, #52	; 0x34
				u |= (1ULL<<52);
    edf8:	e3892601 	orr	r2, r9, #1048576	; 0x100000
				u >>= (52 - exponent_signed);
    edfc:	e1a08338 	lsr	r8, r8, r3
    ee00:	e263c020 	rsb	ip, r3, #32
    ee04:	e2430020 	sub	r0, r3, #32
    ee08:	e1a09332 	lsr	r9, r2, r3
    ee0c:	e1888c12 	orr	r8, r8, r2, lsl ip
				char *s = longlong_to_string(buf, u, pos + 1, flag, &(char){0});
    ee10:	e58d1004 	str	r1, [sp, #4]
				u |= (1ULL<<52);
    ee14:	e3a0c000 	mov	ip, #0
				u >>= (52 - exponent_signed);
    ee18:	e1888032 	orr	r8, r8, r2, lsr r0
				char *s = longlong_to_string(buf, u, pos + 1, flag, &(char){0});
    ee1c:	e28d1018 	add	r1, sp, #24
    ee20:	e3a00019 	mov	r0, #25
    ee24:	e561c001 	strb	ip, [r1, #-1]!
    ee28:	e1a03009 	mov	r3, r9
    ee2c:	e1a02008 	mov	r2, r8
    ee30:	e58d1008 	str	r1, [sp, #8]
    ee34:	e58d0000 	str	r0, [sp]
    ee38:	e1a0000a 	mov	r0, sl
    ee3c:	ebfffdad 	bl	e4f8 <longlong_to_string>
    ee40:	e1a01009 	mov	r1, r9
				pos = s - buf;
    ee44:	e040900a 	sub	r9, r0, sl
    ee48:	e1a00008 	mov	r0, r8
    ee4c:	fa0003c6 	blx	fd6c <__aeabi_ul2d>
    ee50:	ec476b17 	vmov	d7, r6, r7
    ee54:	ec410b16 	vmov	d6, r0, r1
    ee58:	ee377b46 	vsub.f64	d7, d7, d6
    ee5c:	ec576b17 	vmov	r6, r7, d7
    ee60:	eaffffa0 	b	ece8 <double_to_string.constprop.2+0x1c8>
    ee64:	e320f000 	nop	{0}
    ee68:	00000000 	.word	0x00000000
    ee6c:	412e8480 	.word	0x412e8480
    ee70:	00012811 	.word	0x00012811
    ee74:	0001282d 	.word	0x0001282d
    ee78:	000127f1 	.word	0x000127f1
    ee7c:	000127f9 	.word	0x000127f9
    ee80:	00012821 	.word	0x00012821
    ee84:	000127fd 	.word	0x000127fd
    ee88:	000127f5 	.word	0x000127f5
    ee8c:	00012815 	.word	0x00012815

0000ee90 <_printf_engine>:
		str[wlen] = '\0';
	return wlen;
}

int _printf_engine(_printf_engine_output_func out, void *state, const char *fmt, va_list ap)
{
    ee90:	e92d4ff0 	push	{r4, r5, r6, r7, r8, r9, sl, fp, lr}
				OUTPUT_CHAR(uc);
				break;
			case 's':
				s = va_arg(ap, const char *);
				if (s == 0)
					s = "<null>";
    ee94:	e302c7e8 	movw	ip, #10216	; 0x27e8
{
    ee98:	e1a0b000 	mov	fp, r0
	size_t chars_written = 0;
    ee9c:	e3a06000 	mov	r6, #0
{
    eea0:	e1a07001 	mov	r7, r1
    eea4:	e1a00002 	mov	r0, r2
    eea8:	e24dd04c 	sub	sp, sp, #76	; 0x4c
					s = "<null>";
    eeac:	e340c001 	movt	ip, #1
{
    eeb0:	e58d3010 	str	r3, [sp, #16]
					s = "<null>";
    eeb4:	e58dc014 	str	ip, [sp, #20]
		while ((c = *fmt++) != 0) {
    eeb8:	e5d01000 	ldrb	r1, [r0]
		signchar = '\0';
    eebc:	e3a03000 	mov	r3, #0
		while ((c = *fmt++) != 0) {
    eec0:	e2804001 	add	r4, r0, #1
		signchar = '\0';
    eec4:	e5cd3027 	strb	r3, [sp, #39]	; 0x27
		while ((c = *fmt++) != 0) {
    eec8:	e3510000 	cmp	r1, #0
    eecc:	0a000008 	beq	eef4 <_printf_engine+0x64>
			if (c == '%')
    eed0:	e3510025 	cmp	r1, #37	; 0x25
    eed4:	1a000002 	bne	eee4 <_printf_engine+0x54>
    eed8:	ea00000c 	b	ef10 <_printf_engine+0x80>
    eedc:	e3530025 	cmp	r3, #37	; 0x25
    eee0:	0a00000b 	beq	ef14 <_printf_engine+0x84>
    eee4:	e0441000 	sub	r1, r4, r0
		while ((c = *fmt++) != 0) {
    eee8:	e4d43001 	ldrb	r3, [r4], #1
    eeec:	e3530000 	cmp	r3, #0
    eef0:	1afffff9 	bne	eedc <_printf_engine+0x4c>
		OUTPUT_STRING(s, string_len);
    eef4:	e1a02007 	mov	r2, r7
    eef8:	e12fff3b 	blx	fp
    eefc:	e2503000 	subs	r3, r0, #0
    ef00:	aa00006c 	bge	f0b8 <_printf_engine+0x228>
#undef OUTPUT_STRING
#undef OUTPUT_CHAR

exit:
	return (err < 0) ? err : (int)chars_written;
}
    ef04:	e1a00003 	mov	r0, r3
    ef08:	e28dd04c 	add	sp, sp, #76	; 0x4c
    ef0c:	e8bd8ff0 	pop	{r4, r5, r6, r7, r8, r9, sl, fp, pc}
		string_len = 0;
    ef10:	e3a01000 	mov	r1, #0
		OUTPUT_STRING(s, string_len);
    ef14:	e1a02007 	mov	r2, r7
    ef18:	e12fff3b 	blx	fp
    ef1c:	e2503000 	subs	r3, r0, #0
    ef20:	bafffff7 	blt	ef04 <_printf_engine+0x74>
		format_num = 0;
    ef24:	e3a05000 	mov	r5, #0
		OUTPUT_STRING(s, string_len);
    ef28:	e0866003 	add	r6, r6, r3
		flags = 0;
    ef2c:	e1a0a005 	mov	sl, r5
		c = *fmt++;
    ef30:	e4d49001 	ldrb	r9, [r4], #1
		if (c == 0)
    ef34:	e3590000 	cmp	r9, #0
    ef38:	0a00005f 	beq	f0bc <_printf_engine+0x22c>
		switch (c) {
    ef3c:	e2493020 	sub	r3, r9, #32
    ef40:	e353005a 	cmp	r3, #90	; 0x5a
    ef44:	979ff103 	ldrls	pc, [pc, r3, lsl #2]
    ef48:	ea000163 	b	f4dc <_printf_engine+0x64c>
    ef4c:	0000f398 	.word	0x0000f398
    ef50:	0000f4dc 	.word	0x0000f4dc
    ef54:	0000f4dc 	.word	0x0000f4dc
    ef58:	0000f360 	.word	0x0000f360
    ef5c:	0000f4dc 	.word	0x0000f4dc
    ef60:	0000f368 	.word	0x0000f368
    ef64:	0000f4dc 	.word	0x0000f4dc
    ef68:	0000f4dc 	.word	0x0000f4dc
    ef6c:	0000f4dc 	.word	0x0000f4dc
    ef70:	0000f4dc 	.word	0x0000f4dc
    ef74:	0000f4dc 	.word	0x0000f4dc
    ef78:	0000f3a0 	.word	0x0000f3a0
    ef7c:	0000f4dc 	.word	0x0000f4dc
    ef80:	0000f3a8 	.word	0x0000f3a8
    ef84:	0000ef30 	.word	0x0000ef30
    ef88:	0000f4dc 	.word	0x0000f4dc
    ef8c:	0000f3b0 	.word	0x0000f3b0
    ef90:	0000f3b0 	.word	0x0000f3b0
    ef94:	0000f3b0 	.word	0x0000f3b0
    ef98:	0000f3b0 	.word	0x0000f3b0
    ef9c:	0000f3b0 	.word	0x0000f3b0
    efa0:	0000f3b0 	.word	0x0000f3b0
    efa4:	0000f3b0 	.word	0x0000f3b0
    efa8:	0000f3b0 	.word	0x0000f3b0
    efac:	0000f3b0 	.word	0x0000f3b0
    efb0:	0000f3b0 	.word	0x0000f3b0
    efb4:	0000f4dc 	.word	0x0000f4dc
    efb8:	0000f4dc 	.word	0x0000f4dc
    efbc:	0000f4dc 	.word	0x0000f4dc
    efc0:	0000f4dc 	.word	0x0000f4dc
    efc4:	0000f4dc 	.word	0x0000f4dc
    efc8:	0000f4dc 	.word	0x0000f4dc
    efcc:	0000f4dc 	.word	0x0000f4dc
    efd0:	0000f2bc 	.word	0x0000f2bc
    efd4:	0000f4dc 	.word	0x0000f4dc
    efd8:	0000f4dc 	.word	0x0000f4dc
    efdc:	0000f4dc 	.word	0x0000f4dc
    efe0:	0000f4dc 	.word	0x0000f4dc
    efe4:	0000f224 	.word	0x0000f224
    efe8:	0000f4dc 	.word	0x0000f4dc
    efec:	0000f4dc 	.word	0x0000f4dc
    eff0:	0000f4dc 	.word	0x0000f4dc
    eff4:	0000f4dc 	.word	0x0000f4dc
    eff8:	0000f4dc 	.word	0x0000f4dc
    effc:	0000f4dc 	.word	0x0000f4dc
    f000:	0000f4dc 	.word	0x0000f4dc
    f004:	0000f4dc 	.word	0x0000f4dc
    f008:	0000f4dc 	.word	0x0000f4dc
    f00c:	0000f4dc 	.word	0x0000f4dc
    f010:	0000f4dc 	.word	0x0000f4dc
    f014:	0000f4dc 	.word	0x0000f4dc
    f018:	0000f4dc 	.word	0x0000f4dc
    f01c:	0000f4dc 	.word	0x0000f4dc
    f020:	0000f4dc 	.word	0x0000f4dc
    f024:	0000f4dc 	.word	0x0000f4dc
    f028:	0000f4dc 	.word	0x0000f4dc
    f02c:	0000f498 	.word	0x0000f498
    f030:	0000f4dc 	.word	0x0000f4dc
    f034:	0000f4dc 	.word	0x0000f4dc
    f038:	0000f4dc 	.word	0x0000f4dc
    f03c:	0000f4dc 	.word	0x0000f4dc
    f040:	0000f4dc 	.word	0x0000f4dc
    f044:	0000f4dc 	.word	0x0000f4dc
    f048:	0000f4dc 	.word	0x0000f4dc
    f04c:	0000f4dc 	.word	0x0000f4dc
    f050:	0000f2c0 	.word	0x0000f2c0
    f054:	0000f4dc 	.word	0x0000f4dc
    f058:	0000f3cc 	.word	0x0000f3cc
    f05c:	0000f404 	.word	0x0000f404
    f060:	0000f4dc 	.word	0x0000f4dc
    f064:	0000f228 	.word	0x0000f228
    f068:	0000f4dc 	.word	0x0000f4dc
    f06c:	0000f444 	.word	0x0000f444
    f070:	0000f404 	.word	0x0000f404
    f074:	0000f4b0 	.word	0x0000f4b0
    f078:	0000f4dc 	.word	0x0000f4dc
    f07c:	0000f434 	.word	0x0000f434
    f080:	0000f4dc 	.word	0x0000f4dc
    f084:	0000f2ec 	.word	0x0000f2ec
    f088:	0000f4dc 	.word	0x0000f4dc
    f08c:	0000f0cc 	.word	0x0000f0cc
    f090:	0000f4dc 	.word	0x0000f4dc
    f094:	0000f4dc 	.word	0x0000f4dc
    f098:	0000f4b8 	.word	0x0000f4b8
    f09c:	0000f4a8 	.word	0x0000f4a8
    f0a0:	0000f454 	.word	0x0000f454
    f0a4:	0000f4dc 	.word	0x0000f4dc
    f0a8:	0000f4dc 	.word	0x0000f4dc
    f0ac:	0000f0d0 	.word	0x0000f0d0
    f0b0:	0000f4dc 	.word	0x0000f4dc
    f0b4:	0000f358 	.word	0x0000f358
		OUTPUT_STRING(s, string_len);
    f0b8:	e0866003 	add	r6, r6, r3
	return (err < 0) ? err : (int)chars_written;
    f0bc:	e1a03006 	mov	r3, r6
}
    f0c0:	e1a00003 	mov	r0, r3
    f0c4:	e28dd04c 	add	sp, sp, #76	; 0x4c
    f0c8:	e8bd8ff0 	pop	{r4, r5, r6, r7, r8, r9, sl, fp, pc}
				flags |= LONGFLAG | ALTFLAG;
    f0cc:	e38aa081 	orr	sl, sl, #129	; 0x81
				n = (flags & LONGLONGFLAG) ? va_arg(ap, unsigned long long) :
    f0d0:	e31a0002 	tst	sl, #2
    f0d4:	0a00008f 	beq	f318 <_printf_engine+0x488>
    f0d8:	e59d3010 	ldr	r3, [sp, #16]
				    (flags & LONGFLAG) ? va_arg(ap, unsigned long) :
    f0dc:	e2833007 	add	r3, r3, #7
    f0e0:	e3c33007 	bic	r3, r3, #7
    f0e4:	e2832008 	add	r2, r3, #8
    f0e8:	e58d2010 	str	r2, [sp, #16]
    f0ec:	e1c320d0 	ldrd	r2, [r3]
				s = longlong_to_hexstring(num_buffer, n, sizeof(num_buffer), flags);
    f0f0:	e58da000 	str	sl, [sp]
    f0f4:	e28d0028 	add	r0, sp, #40	; 0x28
    f0f8:	ebfffe71 	bl	eac4 <longlong_to_hexstring.constprop.1>
				if (flags & ALTFLAG) {
    f0fc:	e31a0080 	tst	sl, #128	; 0x80
				s = longlong_to_hexstring(num_buffer, n, sizeof(num_buffer), flags);
    f100:	e1a09000 	mov	r9, r0
				if (flags & ALTFLAG) {
    f104:	0a000051 	beq	f250 <_printf_engine+0x3c0>
					OUTPUT_CHAR('0');
    f108:	e3a03030 	mov	r3, #48	; 0x30
    f10c:	e28d8048 	add	r8, sp, #72	; 0x48
    f110:	e5683024 	strb	r3, [r8, #-36]!	; 0xffffffdc
    f114:	e1a02007 	mov	r2, r7
    f118:	e1a00008 	mov	r0, r8
    f11c:	e3a01001 	mov	r1, #1
    f120:	e12fff3b 	blx	fp
    f124:	e2503000 	subs	r3, r0, #0
    f128:	baffff75 	blt	ef04 <_printf_engine+0x74>
					OUTPUT_CHAR((flags & CAPSFLAG) ? 'X': 'x');
    f12c:	e31a0c01 	tst	sl, #256	; 0x100
    f130:	e1a00008 	mov	r0, r8
    f134:	03a0c078 	moveq	ip, #120	; 0x78
    f138:	13a0c058 	movne	ip, #88	; 0x58
    f13c:	e1a02007 	mov	r2, r7
    f140:	e3a01001 	mov	r1, #1
    f144:	e5cdc024 	strb	ip, [sp, #36]	; 0x24
					OUTPUT_CHAR('0');
    f148:	e0836006 	add	r6, r3, r6
					OUTPUT_CHAR((flags & CAPSFLAG) ? 'X': 'x');
    f14c:	e12fff3b 	blx	fp
    f150:	e2503000 	subs	r3, r0, #0
    f154:	baffff6a 	blt	ef04 <_printf_engine+0x74>
		if (flags & LEFTFORMATFLAG) {
    f158:	e31a0b02 	tst	sl, #2048	; 0x800
					OUTPUT_CHAR((flags & CAPSFLAG) ? 'X': 'x');
    f15c:	e0836006 	add	r6, r3, r6
			OUTPUT_STRING(s, SIZE_MAX);
    f160:	e1a00009 	mov	r0, r9
		if (flags & LEFTFORMATFLAG) {
    f164:	1a00003c 	bne	f25c <_printf_engine+0x3cc>
    f168:	e20a8a01 	and	r8, sl, #4096	; 0x1000
    f16c:	e58d8018 	str	r8, [sp, #24]
			string_len = strlen(s);
    f170:	eb000217 	bl	f9d4 <strlen>
			if (signchar != '\0' && format_num > 0)
    f174:	e5dd3027 	ldrb	r3, [sp, #39]	; 0x27
			string_len = strlen(s);
    f178:	e1a0a000 	mov	sl, r0
			if (signchar != '\0' && format_num > 0)
    f17c:	e3530000 	cmp	r3, #0
    f180:	0a000070 	beq	f348 <_printf_engine+0x4b8>
    f184:	e3550000 	cmp	r5, #0
    f188:	0a000102 	beq	f598 <_printf_engine+0x708>
			if (flags & LEADZEROFLAG && signchar != '\0')
    f18c:	e3580000 	cmp	r8, #0
				format_num--;
    f190:	e2455001 	sub	r5, r5, #1
			if (flags & LEADZEROFLAG && signchar != '\0')
    f194:	0a00016c 	beq	f74c <_printf_engine+0x8bc>
				OUTPUT_CHAR(signchar);
    f198:	e28d8048 	add	r8, sp, #72	; 0x48
    f19c:	e1a02007 	mov	r2, r7
    f1a0:	e5683024 	strb	r3, [r8, #-36]!	; 0xffffffdc
    f1a4:	e3a01001 	mov	r1, #1
    f1a8:	e1a00008 	mov	r0, r8
    f1ac:	e12fff3b 	blx	fp
    f1b0:	e2503000 	subs	r3, r0, #0
    f1b4:	baffff52 	blt	ef04 <_printf_engine+0x74>
			for (; format_num > string_len; format_num--)
    f1b8:	e15a0005 	cmp	sl, r5
				OUTPUT_CHAR(signchar);
    f1bc:	e0866003 	add	r6, r6, r3
			for (; format_num > string_len; format_num--)
    f1c0:	2a0000e7 	bcs	f564 <_printf_engine+0x6d4>
    f1c4:	e59d3018 	ldr	r3, [sp, #24]
    f1c8:	e58d401c 	str	r4, [sp, #28]
    f1cc:	e1a0400a 	mov	r4, sl
    f1d0:	e1a0a008 	mov	sl, r8
    f1d4:	e3530000 	cmp	r3, #0
    f1d8:	13a03030 	movne	r3, #48	; 0x30
    f1dc:	03a03020 	moveq	r3, #32
    f1e0:	e1a08003 	mov	r8, r3
    f1e4:	ea000001 	b	f1f0 <_printf_engine+0x360>
    f1e8:	e1540005 	cmp	r4, r5
    f1ec:	0a0000cc 	beq	f524 <_printf_engine+0x694>
				OUTPUT_CHAR(flags & LEADZEROFLAG ? '0' : ' ');
    f1f0:	e1a02007 	mov	r2, r7
    f1f4:	e3a01001 	mov	r1, #1
    f1f8:	e1a0000a 	mov	r0, sl
    f1fc:	e5cd8024 	strb	r8, [sp, #36]	; 0x24
    f200:	e12fff3b 	blx	fp
    f204:	e3500000 	cmp	r0, #0
			for (; format_num > string_len; format_num--)
    f208:	e2455001 	sub	r5, r5, #1
				OUTPUT_CHAR(flags & LEADZEROFLAG ? '0' : ' ');
    f20c:	e0866000 	add	r6, r6, r0
    f210:	aafffff4 	bge	f1e8 <_printf_engine+0x358>
    f214:	e1a03000 	mov	r3, r0
}
    f218:	e1a00003 	mov	r0, r3
    f21c:	e28dd04c 	add	sp, sp, #76	; 0x4c
    f220:	e8bd8ff0 	pop	{r4, r5, r6, r7, r8, r9, sl, fp, pc}
				flags |= CAPSFLAG;
    f224:	e38aac01 	orr	sl, sl, #256	; 0x100
				double d = va_arg(ap, double);
    f228:	e59d3010 	ldr	r3, [sp, #16]
				s = double_to_string(num_buffer, sizeof(num_buffer), d, flags);
    f22c:	e1a0100a 	mov	r1, sl
    f230:	e28d0028 	add	r0, sp, #40	; 0x28
				double d = va_arg(ap, double);
    f234:	e2833007 	add	r3, r3, #7
    f238:	e3c33007 	bic	r3, r3, #7
				s = double_to_string(num_buffer, sizeof(num_buffer), d, flags);
    f23c:	ed930b00 	vldr	d0, [r3]
				double d = va_arg(ap, double);
    f240:	e2833008 	add	r3, r3, #8
    f244:	e58d3010 	str	r3, [sp, #16]
				s = double_to_string(num_buffer, sizeof(num_buffer), d, flags);
    f248:	ebfffe34 	bl	eb20 <double_to_string.constprop.2>
    f24c:	e1a09000 	mov	r9, r0
		if (flags & LEFTFORMATFLAG) {
    f250:	e31a0b02 	tst	sl, #2048	; 0x800
			OUTPUT_STRING(s, SIZE_MAX);
    f254:	e1a00009 	mov	r0, r9
		if (flags & LEFTFORMATFLAG) {
    f258:	0affffc2 	beq	f168 <_printf_engine+0x2d8>
			OUTPUT_STRING(s, SIZE_MAX);
    f25c:	e1a02007 	mov	r2, r7
    f260:	e3e01000 	mvn	r1, #0
    f264:	e12fff3b 	blx	fp
    f268:	e2503000 	subs	r3, r0, #0
    f26c:	baffff24 	blt	ef04 <_printf_engine+0x74>
			for (; format_num > written; format_num--)
    f270:	e1530005 	cmp	r3, r5
			OUTPUT_STRING(s, SIZE_MAX);
    f274:	e1a09003 	mov	r9, r3
    f278:	e0866003 	add	r6, r6, r3
			for (; format_num > written; format_num--)
    f27c:	2a000023 	bcs	f310 <_printf_engine+0x480>
    f280:	e28d8024 	add	r8, sp, #36	; 0x24
				OUTPUT_CHAR(' ');
    f284:	e3a0a020 	mov	sl, #32
    f288:	ea000001 	b	f294 <_printf_engine+0x404>
			for (; format_num > written; format_num--)
    f28c:	e1590005 	cmp	r9, r5
    f290:	0a00001e 	beq	f310 <_printf_engine+0x480>
				OUTPUT_CHAR(' ');
    f294:	e1a02007 	mov	r2, r7
    f298:	e3a01001 	mov	r1, #1
    f29c:	e1a00008 	mov	r0, r8
    f2a0:	e5cda024 	strb	sl, [sp, #36]	; 0x24
    f2a4:	e12fff3b 	blx	fp
    f2a8:	e3500000 	cmp	r0, #0
			for (; format_num > written; format_num--)
    f2ac:	e2455001 	sub	r5, r5, #1
				OUTPUT_CHAR(' ');
    f2b0:	e0866000 	add	r6, r6, r0
    f2b4:	aafffff4 	bge	f28c <_printf_engine+0x3fc>
    f2b8:	eaffffd5 	b	f214 <_printf_engine+0x384>
				flags |= CAPSFLAG;
    f2bc:	e38aac01 	orr	sl, sl, #256	; 0x100
				double d = va_arg(ap, double);
    f2c0:	e59d3010 	ldr	r3, [sp, #16]
				s = double_to_hexstring(num_buffer, sizeof(num_buffer), d, flags);
    f2c4:	e1a0100a 	mov	r1, sl
    f2c8:	e28d0028 	add	r0, sp, #40	; 0x28
				double d = va_arg(ap, double);
    f2cc:	e2833007 	add	r3, r3, #7
    f2d0:	e3c33007 	bic	r3, r3, #7
				s = double_to_hexstring(num_buffer, sizeof(num_buffer), d, flags);
    f2d4:	ed930b00 	vldr	d0, [r3]
				double d = va_arg(ap, double);
    f2d8:	e2833008 	add	r3, r3, #8
    f2dc:	e58d3010 	str	r3, [sp, #16]
				s = double_to_hexstring(num_buffer, sizeof(num_buffer), d, flags);
    f2e0:	ebfffd02 	bl	e6f0 <double_to_hexstring.isra.0>
    f2e4:	e1a09000 	mov	r9, r0
				goto _output_string;
    f2e8:	eaffffd8 	b	f250 <_printf_engine+0x3c0>
				ptr = va_arg(ap, void *);
    f2ec:	e59d3010 	ldr	r3, [sp, #16]
				if (flags & LONGLONGFLAG)
    f2f0:	e31a0002 	tst	sl, #2
				ptr = va_arg(ap, void *);
    f2f4:	e2832004 	add	r2, r3, #4
    f2f8:	e5933000 	ldr	r3, [r3]
				if (flags & LONGLONGFLAG)
    f2fc:	0a0000c3 	beq	f610 <_printf_engine+0x780>
				ptr = va_arg(ap, void *);
    f300:	e58d2010 	str	r2, [sp, #16]
					*(long long *)ptr = chars_written;
    f304:	e3a02000 	mov	r2, #0
    f308:	e5836000 	str	r6, [r3]
    f30c:	e5832004 	str	r2, [r3, #4]
				ptr = va_arg(ap, void *);
    f310:	e1a00004 	mov	r0, r4
    f314:	eafffee7 	b	eeb8 <_printf_engine+0x28>
				    (flags & LONGFLAG) ? va_arg(ap, unsigned long) :
    f318:	e31a0001 	tst	sl, #1
    f31c:	1a000097 	bne	f580 <_printf_engine+0x6f0>
    f320:	e31a0008 	tst	sl, #8
    f324:	1a0000c6 	bne	f644 <_printf_engine+0x7b4>
    f328:	e31a0004 	tst	sl, #4
    f32c:	0a0000d6 	beq	f68c <_printf_engine+0x7fc>
    f330:	e59d1010 	ldr	r1, [sp, #16]
    f334:	e3a03000 	mov	r3, #0
    f338:	e1d120b0 	ldrh	r2, [r1]
				    (flags & HALFFLAG) ? (unsigned short)va_arg(ap, unsigned int) :
    f33c:	e2811004 	add	r1, r1, #4
    f340:	e58d1010 	str	r1, [sp, #16]
    f344:	eaffff69 	b	f0f0 <_printf_engine+0x260>
			for (; format_num > string_len; format_num--)
    f348:	e1550000 	cmp	r5, r0
    f34c:	9a000075 	bls	f528 <_printf_engine+0x698>
    f350:	e28d8024 	add	r8, sp, #36	; 0x24
    f354:	eaffff9a 	b	f1c4 <_printf_engine+0x334>
				flags |= SIZETFLAG;
    f358:	e38aa010 	orr	sl, sl, #16
				goto next_format;
    f35c:	eafffef3 	b	ef30 <_printf_engine+0xa0>
				flags |= ALTFLAG;
    f360:	e38aa080 	orr	sl, sl, #128	; 0x80
				goto next_format;
    f364:	eafffef1 	b	ef30 <_printf_engine+0xa0>
				OUTPUT_CHAR('%');
    f368:	e3a03025 	mov	r3, #37	; 0x25
    f36c:	e28d8048 	add	r8, sp, #72	; 0x48
    f370:	e5683024 	strb	r3, [r8, #-36]!	; 0xffffffdc
    f374:	e1a02007 	mov	r2, r7
    f378:	e1a00008 	mov	r0, r8
    f37c:	e3a01001 	mov	r1, #1
    f380:	e12fff3b 	blx	fp
    f384:	e2503000 	subs	r3, r0, #0
    f388:	bafffedd 	blt	ef04 <_printf_engine+0x74>
				OUTPUT_CHAR(c);
    f38c:	e0836006 	add	r6, r3, r6
				ptr = va_arg(ap, void *);
    f390:	e1a00004 	mov	r0, r4
    f394:	eafffec7 	b	eeb8 <_printf_engine+0x28>
				flags |= BLANKPOSFLAG;
    f398:	e38aaa02 	orr	sl, sl, #8192	; 0x2000
				goto next_format;
    f39c:	eafffee3 	b	ef30 <_printf_engine+0xa0>
				flags |= SHOWSIGNFLAG;
    f3a0:	e38aac02 	orr	sl, sl, #512	; 0x200
				goto next_format;
    f3a4:	eafffee1 	b	ef30 <_printf_engine+0xa0>
				flags |= LEFTFORMATFLAG;
    f3a8:	e38aab02 	orr	sl, sl, #2048	; 0x800
				goto next_format;
    f3ac:	eafffedf 	b	ef30 <_printf_engine+0xa0>
				if (c == '0' && format_num == 0)
    f3b0:	e3590030 	cmp	r9, #48	; 0x30
    f3b4:	03550000 	cmpeq	r5, #0
				format_num *= 10;
    f3b8:	e0855105 	add	r5, r5, r5, lsl #2
				format_num += c - '0';
    f3bc:	e2499030 	sub	r9, r9, #48	; 0x30
					flags |= LEADZEROFLAG;
    f3c0:	038aaa01 	orreq	sl, sl, #4096	; 0x1000
				format_num += c - '0';
    f3c4:	e0895085 	add	r5, r9, r5, lsl #1
				goto next_format;
    f3c8:	eafffed8 	b	ef30 <_printf_engine+0xa0>
				uc = va_arg(ap, unsigned int);
    f3cc:	e59d5010 	ldr	r5, [sp, #16]
    f3d0:	e28d8048 	add	r8, sp, #72	; 0x48
				OUTPUT_CHAR(uc);
    f3d4:	e1a02007 	mov	r2, r7
    f3d8:	e3a01001 	mov	r1, #1
				uc = va_arg(ap, unsigned int);
    f3dc:	e5953000 	ldr	r3, [r5]
    f3e0:	e5683024 	strb	r3, [r8, #-36]!	; 0xffffffdc
				OUTPUT_CHAR(uc);
    f3e4:	e1a00008 	mov	r0, r8
    f3e8:	e12fff3b 	blx	fp
    f3ec:	e2503000 	subs	r3, r0, #0
    f3f0:	bafffec3 	blt	ef04 <_printf_engine+0x74>
				uc = va_arg(ap, unsigned int);
    f3f4:	e2852004 	add	r2, r5, #4
				OUTPUT_CHAR(uc);
    f3f8:	e0866003 	add	r6, r6, r3
				uc = va_arg(ap, unsigned int);
    f3fc:	e58d2010 	str	r2, [sp, #16]
				break;
    f400:	eaffffc2 	b	f310 <_printf_engine+0x480>
				n = (flags & LONGLONGFLAG) ? va_arg(ap, long long) :
    f404:	e31a0002 	tst	sl, #2
    f408:	1a000066 	bne	f5a8 <_printf_engine+0x718>
    f40c:	e31a0001 	tst	sl, #1
    f410:	1a000097 	bne	f674 <_printf_engine+0x7e4>
    f414:	e31a0008 	tst	sl, #8
    f418:	0a0000a4 	beq	f6b0 <_printf_engine+0x820>
    f41c:	e59d1010 	ldr	r1, [sp, #16]
    f420:	e1d120d0 	ldrsb	r2, [r1]
				    (flags & HALFHALFFLAG) ? (signed char)va_arg(ap, int) :
    f424:	e2811004 	add	r1, r1, #4
    f428:	e58d1010 	str	r1, [sp, #16]
				n = (flags & LONGLONGFLAG) ? va_arg(ap, long long) :
    f42c:	e1a03fc2 	asr	r3, r2, #31
    f430:	ea000062 	b	f5c0 <_printf_engine+0x730>
				if (flags & LONGFLAG)
    f434:	e31a0001 	tst	sl, #1
					flags |= LONGLONGFLAG;
    f438:	138aa002 	orrne	sl, sl, #2
				flags |= LONGFLAG;
    f43c:	e38aa001 	orr	sl, sl, #1
				goto next_format;
    f440:	eafffeba 	b	ef30 <_printf_engine+0xa0>
				if (flags & HALFFLAG)
    f444:	e31a0004 	tst	sl, #4
					flags |= HALFHALFFLAG;
    f448:	138aa008 	orrne	sl, sl, #8
				flags |= HALFFLAG;
    f44c:	e38aa004 	orr	sl, sl, #4
				goto next_format;
    f450:	eafffeb6 	b	ef30 <_printf_engine+0xa0>
				n = (flags & LONGLONGFLAG) ? va_arg(ap, unsigned long long) :
    f454:	e31a0002 	tst	sl, #2
    f458:	0a000062 	beq	f5e8 <_printf_engine+0x758>
    f45c:	e59d3010 	ldr	r3, [sp, #16]
				    (flags & LONGFLAG) ? va_arg(ap, unsigned long) :
    f460:	e2833007 	add	r3, r3, #7
    f464:	e3c33007 	bic	r3, r3, #7
    f468:	e2832008 	add	r2, r3, #8
    f46c:	e58d2010 	str	r2, [sp, #16]
    f470:	e1c320d0 	ldrd	r2, [r3]
				s = longlong_to_string(num_buffer, n, sizeof(num_buffer), flags, &signchar);
    f474:	e28d0027 	add	r0, sp, #39	; 0x27
    f478:	e3a01020 	mov	r1, #32
    f47c:	e58d0008 	str	r0, [sp, #8]
    f480:	e28d0028 	add	r0, sp, #40	; 0x28
    f484:	e58da004 	str	sl, [sp, #4]
    f488:	e58d1000 	str	r1, [sp]
    f48c:	ebfffc19 	bl	e4f8 <longlong_to_string>
    f490:	e1a09000 	mov	r9, r0
				goto _output_string;
    f494:	eaffff6d 	b	f250 <_printf_engine+0x3c0>
				flags |= CAPSFLAG;
    f498:	e38aac01 	orr	sl, sl, #256	; 0x100
				n = (flags & LONGLONGFLAG) ? va_arg(ap, unsigned long long) :
    f49c:	e31a0002 	tst	sl, #2
    f4a0:	0affff9c 	beq	f318 <_printf_engine+0x488>
    f4a4:	eaffff0b 	b	f0d8 <_printf_engine+0x248>
				flags |= PTRDIFFFLAG;
    f4a8:	e38aa040 	orr	sl, sl, #64	; 0x40
				goto next_format;
    f4ac:	eafffe9f 	b	ef30 <_printf_engine+0xa0>
				flags |= INTMAXFLAG;
    f4b0:	e38aa020 	orr	sl, sl, #32
				goto next_format;
    f4b4:	eafffe9d 	b	ef30 <_printf_engine+0xa0>
				s = va_arg(ap, const char *);
    f4b8:	e59d3010 	ldr	r3, [sp, #16]
				flags &= ~LEADZEROFLAG; /* doesn't make sense for strings */
    f4bc:	e3caaa01 	bic	sl, sl, #4096	; 0x1000
				s = va_arg(ap, const char *);
    f4c0:	e5939000 	ldr	r9, [r3]
    f4c4:	e2833004 	add	r3, r3, #4
    f4c8:	e58d3010 	str	r3, [sp, #16]
					s = "<null>";
    f4cc:	e59d3014 	ldr	r3, [sp, #20]
    f4d0:	e3590000 	cmp	r9, #0
    f4d4:	01a09003 	moveq	r9, r3
				goto _output_string;
    f4d8:	eaffff5c 	b	f250 <_printf_engine+0x3c0>
				OUTPUT_CHAR('%');
    f4dc:	e3a03025 	mov	r3, #37	; 0x25
    f4e0:	e28d8048 	add	r8, sp, #72	; 0x48
    f4e4:	e5683024 	strb	r3, [r8, #-36]!	; 0xffffffdc
    f4e8:	e1a02007 	mov	r2, r7
    f4ec:	e1a00008 	mov	r0, r8
    f4f0:	e3a01001 	mov	r1, #1
    f4f4:	e12fff3b 	blx	fp
    f4f8:	e2505000 	subs	r5, r0, #0
    f4fc:	ba000090 	blt	f744 <_printf_engine+0x8b4>
				OUTPUT_CHAR(c);
    f500:	e1a00008 	mov	r0, r8
    f504:	e1a02007 	mov	r2, r7
    f508:	e3a01001 	mov	r1, #1
    f50c:	e5cd9024 	strb	r9, [sp, #36]	; 0x24
    f510:	e12fff3b 	blx	fp
    f514:	e2503000 	subs	r3, r0, #0
    f518:	bafffe79 	blt	ef04 <_printf_engine+0x74>
				OUTPUT_CHAR('%');
    f51c:	e0856006 	add	r6, r5, r6
    f520:	eaffff99 	b	f38c <_printf_engine+0x4fc>
    f524:	e59d401c 	ldr	r4, [sp, #28]
			if (!(flags & LEADZEROFLAG) && signchar != '\0')
    f528:	e59d3018 	ldr	r3, [sp, #24]
    f52c:	e3530000 	cmp	r3, #0
    f530:	1a00000b 	bne	f564 <_printf_engine+0x6d4>
    f534:	e5dd3027 	ldrb	r3, [sp, #39]	; 0x27
    f538:	e3530000 	cmp	r3, #0
    f53c:	0a000008 	beq	f564 <_printf_engine+0x6d4>
				OUTPUT_CHAR(signchar);
    f540:	e28d8048 	add	r8, sp, #72	; 0x48
    f544:	e1a02007 	mov	r2, r7
    f548:	e5683024 	strb	r3, [r8, #-36]!	; 0xffffffdc
    f54c:	e3a01001 	mov	r1, #1
    f550:	e1a00008 	mov	r0, r8
    f554:	e12fff3b 	blx	fp
    f558:	e2503000 	subs	r3, r0, #0
    f55c:	bafffe68 	blt	ef04 <_printf_engine+0x74>
    f560:	e0866003 	add	r6, r6, r3
			OUTPUT_STRING(s, SIZE_MAX);
    f564:	e1a00009 	mov	r0, r9
    f568:	e1a02007 	mov	r2, r7
    f56c:	e3e01000 	mvn	r1, #0
    f570:	e12fff3b 	blx	fp
    f574:	e2503000 	subs	r3, r0, #0
    f578:	bafffe61 	blt	ef04 <_printf_engine+0x74>
    f57c:	eaffff82 	b	f38c <_printf_engine+0x4fc>
				    (flags & LONGFLAG) ? va_arg(ap, unsigned long) :
    f580:	e59d3010 	ldr	r3, [sp, #16]
    f584:	e5932000 	ldr	r2, [r3]
				    (flags & SIZETFLAG) ? va_arg(ap, size_t) :
    f588:	e2833004 	add	r3, r3, #4
    f58c:	e58d3010 	str	r3, [sp, #16]
				    (flags & LONGFLAG) ? va_arg(ap, unsigned long) :
    f590:	e3a03000 	mov	r3, #0
    f594:	eafffed5 	b	f0f0 <_printf_engine+0x260>
			if (flags & LEADZEROFLAG && signchar != '\0')
    f598:	e59d2018 	ldr	r2, [sp, #24]
    f59c:	e3520000 	cmp	r2, #0
    f5a0:	1afffefc 	bne	f198 <_printf_engine+0x308>
    f5a4:	eaffffe5 	b	f540 <_printf_engine+0x6b0>
				    (flags & INTMAXFLAG) ? va_arg(ap, intmax_t) :
    f5a8:	e59d3010 	ldr	r3, [sp, #16]
    f5ac:	e2833007 	add	r3, r3, #7
    f5b0:	e3c33007 	bic	r3, r3, #7
    f5b4:	e2832008 	add	r2, r3, #8
    f5b8:	e58d2010 	str	r2, [sp, #16]
				n = (flags & LONGLONGFLAG) ? va_arg(ap, long long) :
    f5bc:	e1c320d0 	ldrd	r2, [r3]
				s = longlong_to_string(num_buffer, n, sizeof(num_buffer), flags, &signchar);
    f5c0:	e28d0027 	add	r0, sp, #39	; 0x27
    f5c4:	e3a01020 	mov	r1, #32
				flags |= SIGNEDFLAG;
    f5c8:	e38aab01 	orr	sl, sl, #1024	; 0x400
				s = longlong_to_string(num_buffer, n, sizeof(num_buffer), flags, &signchar);
    f5cc:	e58d0008 	str	r0, [sp, #8]
    f5d0:	e58da004 	str	sl, [sp, #4]
    f5d4:	e28d0028 	add	r0, sp, #40	; 0x28
    f5d8:	e58d1000 	str	r1, [sp]
    f5dc:	ebfffbc5 	bl	e4f8 <longlong_to_string>
    f5e0:	e1a09000 	mov	r9, r0
				goto _output_string;
    f5e4:	eaffff19 	b	f250 <_printf_engine+0x3c0>
				    (flags & LONGFLAG) ? va_arg(ap, unsigned long) :
    f5e8:	e31a0001 	tst	sl, #1
    f5ec:	1a00001a 	bne	f65c <_printf_engine+0x7cc>
    f5f0:	e31a0008 	tst	sl, #8
    f5f4:	0a000035 	beq	f6d0 <_printf_engine+0x840>
    f5f8:	e59d1010 	ldr	r1, [sp, #16]
    f5fc:	e3a03000 	mov	r3, #0
    f600:	e5d12000 	ldrb	r2, [r1]
				    (flags & HALFHALFFLAG) ? (unsigned char)va_arg(ap, unsigned int) :
    f604:	e2811004 	add	r1, r1, #4
    f608:	e58d1010 	str	r1, [sp, #16]
    f60c:	eaffff98 	b	f474 <_printf_engine+0x5e4>
				else if (flags & LONGFLAG)
    f610:	e31a0001 	tst	sl, #1
    f614:	1a000007 	bne	f638 <_printf_engine+0x7a8>
				else if (flags & HALFHALFFLAG)
    f618:	e31a0008 	tst	sl, #8
					*(signed char *)ptr = chars_written;
    f61c:	15c36000 	strbne	r6, [r3]
				ptr = va_arg(ap, void *);
    f620:	158d2010 	strne	r2, [sp, #16]
				else if (flags & HALFHALFFLAG)
    f624:	1affff39 	bne	f310 <_printf_engine+0x480>
				else if (flags & HALFFLAG)
    f628:	e31a0004 	tst	sl, #4
					*(short *)ptr = chars_written;
    f62c:	11c360b0 	strhne	r6, [r3]
				ptr = va_arg(ap, void *);
    f630:	158d2010 	strne	r2, [sp, #16]
				else if (flags & HALFFLAG)
    f634:	1affff35 	bne	f310 <_printf_engine+0x480>
					*(int *)ptr = chars_written;
    f638:	e5836000 	str	r6, [r3]
				ptr = va_arg(ap, void *);
    f63c:	e58d2010 	str	r2, [sp, #16]
    f640:	eaffff32 	b	f310 <_printf_engine+0x480>
				    (flags & LONGFLAG) ? va_arg(ap, unsigned long) :
    f644:	e59d1010 	ldr	r1, [sp, #16]
    f648:	e3a03000 	mov	r3, #0
    f64c:	e5d12000 	ldrb	r2, [r1]
				    (flags & HALFHALFFLAG) ? (unsigned char)va_arg(ap, unsigned int) :
    f650:	e2811004 	add	r1, r1, #4
    f654:	e58d1010 	str	r1, [sp, #16]
    f658:	eafffea4 	b	f0f0 <_printf_engine+0x260>
				    (flags & LONGFLAG) ? va_arg(ap, unsigned long) :
    f65c:	e59d3010 	ldr	r3, [sp, #16]
    f660:	e5932000 	ldr	r2, [r3]
				    (flags & SIZETFLAG) ? va_arg(ap, size_t) :
    f664:	e2833004 	add	r3, r3, #4
    f668:	e58d3010 	str	r3, [sp, #16]
				    (flags & LONGFLAG) ? va_arg(ap, unsigned long) :
    f66c:	e3a03000 	mov	r3, #0
    f670:	eaffff7f 	b	f474 <_printf_engine+0x5e4>
				n = (flags & LONGLONGFLAG) ? va_arg(ap, long long) :
    f674:	e59d3010 	ldr	r3, [sp, #16]
    f678:	e5932000 	ldr	r2, [r3]
				    (flags & SIZETFLAG) ? va_arg(ap, ssize_t) :
    f67c:	e2833004 	add	r3, r3, #4
    f680:	e58d3010 	str	r3, [sp, #16]
				n = (flags & LONGLONGFLAG) ? va_arg(ap, long long) :
    f684:	e1a03fc2 	asr	r3, r2, #31
    f688:	eaffffcc 	b	f5c0 <_printf_engine+0x730>
				    (flags & LONGFLAG) ? va_arg(ap, unsigned long) :
    f68c:	e31a0010 	tst	sl, #16
    f690:	1affffba 	bne	f580 <_printf_engine+0x6f0>
    f694:	e31a0020 	tst	sl, #32
    f698:	e59d3010 	ldr	r3, [sp, #16]
    f69c:	1afffe8e 	bne	f0dc <_printf_engine+0x24c>
    f6a0:	e4932004 	ldr	r2, [r3], #4
    f6a4:	e58d3010 	str	r3, [sp, #16]
    f6a8:	e3a03000 	mov	r3, #0
    f6ac:	eafffe8f 	b	f0f0 <_printf_engine+0x260>
				n = (flags & LONGLONGFLAG) ? va_arg(ap, long long) :
    f6b0:	e31a0004 	tst	sl, #4
    f6b4:	0a00000d 	beq	f6f0 <_printf_engine+0x860>
    f6b8:	e59d1010 	ldr	r1, [sp, #16]
    f6bc:	e1d120f0 	ldrsh	r2, [r1]
				    (flags & HALFFLAG) ? (short)va_arg(ap, int) :
    f6c0:	e2811004 	add	r1, r1, #4
    f6c4:	e58d1010 	str	r1, [sp, #16]
				n = (flags & LONGLONGFLAG) ? va_arg(ap, long long) :
    f6c8:	e1a03fc2 	asr	r3, r2, #31
    f6cc:	eaffffbb 	b	f5c0 <_printf_engine+0x730>
				    (flags & LONGFLAG) ? va_arg(ap, unsigned long) :
    f6d0:	e31a0004 	tst	sl, #4
    f6d4:	0a000011 	beq	f720 <_printf_engine+0x890>
    f6d8:	e59d1010 	ldr	r1, [sp, #16]
    f6dc:	e3a03000 	mov	r3, #0
    f6e0:	e1d120b0 	ldrh	r2, [r1]
				    (flags & HALFFLAG) ? (unsigned short)va_arg(ap, unsigned int) :
    f6e4:	e2811004 	add	r1, r1, #4
    f6e8:	e58d1010 	str	r1, [sp, #16]
    f6ec:	eaffff60 	b	f474 <_printf_engine+0x5e4>
				n = (flags & LONGLONGFLAG) ? va_arg(ap, long long) :
    f6f0:	e31a0010 	tst	sl, #16
    f6f4:	1affffde 	bne	f674 <_printf_engine+0x7e4>
    f6f8:	e31a0020 	tst	sl, #32
    f6fc:	1affffa9 	bne	f5a8 <_printf_engine+0x718>
    f700:	e59d2010 	ldr	r2, [sp, #16]
    f704:	e31a0040 	tst	sl, #64	; 0x40
    f708:	e2823004 	add	r3, r2, #4
    f70c:	059d2010 	ldreq	r2, [sp, #16]
    f710:	e5922000 	ldr	r2, [r2]
				    va_arg(ap, int);
    f714:	e58d3010 	str	r3, [sp, #16]
				n = (flags & LONGLONGFLAG) ? va_arg(ap, long long) :
    f718:	e1a03fc2 	asr	r3, r2, #31
    f71c:	eaffffa7 	b	f5c0 <_printf_engine+0x730>
				    (flags & LONGFLAG) ? va_arg(ap, unsigned long) :
    f720:	e31a0010 	tst	sl, #16
    f724:	1affffcc 	bne	f65c <_printf_engine+0x7cc>
    f728:	e31a0020 	tst	sl, #32
    f72c:	e59d3010 	ldr	r3, [sp, #16]
    f730:	1affff4a 	bne	f460 <_printf_engine+0x5d0>
    f734:	e4932004 	ldr	r2, [r3], #4
    f738:	e58d3010 	str	r3, [sp, #16]
    f73c:	e3a03000 	mov	r3, #0
    f740:	eaffff4b 	b	f474 <_printf_engine+0x5e4>
				OUTPUT_CHAR('%');
    f744:	e1a03005 	mov	r3, r5
    f748:	eafffded 	b	ef04 <_printf_engine+0x74>
			for (; format_num > string_len; format_num--)
    f74c:	e1500005 	cmp	r0, r5
    f750:	3afffefe 	bcc	f350 <_printf_engine+0x4c0>
    f754:	eaffff77 	b	f538 <_printf_engine+0x6a8>

0000f758 <vsnprintf>:
{
    f758:	e92d4070 	push	{r4, r5, r6, lr}
    f75c:	e1a04000 	mov	r4, r0
    f760:	e24dd010 	sub	sp, sp, #16
	wlen = _printf_engine(&_vsnprintf_output, (void *)&args, fmt, ap);
    f764:	e30e0680 	movw	r0, #59008	; 0xe680
{
    f768:	e1a05001 	mov	r5, r1
	args.pos = 0;
    f76c:	e3a06000 	mov	r6, #0
	wlen = _printf_engine(&_vsnprintf_output, (void *)&args, fmt, ap);
    f770:	e28d1004 	add	r1, sp, #4
    f774:	e3400000 	movt	r0, #0
	args.len = len;
    f778:	e1cd40f4 	strd	r4, [sp, #4]
	args.pos = 0;
    f77c:	e58d600c 	str	r6, [sp, #12]
	wlen = _printf_engine(&_vsnprintf_output, (void *)&args, fmt, ap);
    f780:	ebfffdc2 	bl	ee90 <_printf_engine>
	if (args.pos >= len)
    f784:	e59d300c 	ldr	r3, [sp, #12]
    f788:	e1530005 	cmp	r3, r5
		str[len-1] = '\0';
    f78c:	20844005 	addcs	r4, r4, r5
		str[wlen] = '\0';
    f790:	37c46000 	strbcc	r6, [r4, r0]
		str[len-1] = '\0';
    f794:	25446001 	strbcs	r6, [r4, #-1]
}
    f798:	e28dd010 	add	sp, sp, #16
    f79c:	e8bd8070 	pop	{r4, r5, r6, pc}

0000f7a0 <sprintf>:
{
    f7a0:	e92d000e 	push	{r1, r2, r3}
	return vsnprintf(str, INT_MAX, fmt, ap);
    f7a4:	e3e01102 	mvn	r1, #-2147483648	; 0x80000000
{
    f7a8:	e52de004 	push	{lr}		; (str lr, [sp, #-4]!)
    f7ac:	e24dd008 	sub	sp, sp, #8
	va_start(ap, fmt);
    f7b0:	e28dc010 	add	ip, sp, #16
	return vsnprintf(str, INT_MAX, fmt, ap);
    f7b4:	e1a0300c 	mov	r3, ip
    f7b8:	e59d200c 	ldr	r2, [sp, #12]
	va_start(ap, fmt);
    f7bc:	e58dc004 	str	ip, [sp, #4]
	return vsnprintf(str, INT_MAX, fmt, ap);
    f7c0:	ebffffe4 	bl	f758 <vsnprintf>
}
    f7c4:	e28dd008 	add	sp, sp, #8
    f7c8:	e49de004 	pop	{lr}		; (ldr lr, [sp], #4)
    f7cc:	e28dd00c 	add	sp, sp, #12
    f7d0:	e12fff1e 	bx	lr

0000f7d4 <rand>:
	randseed ^= enp;
}

int rand(void)
{
	return (randseed = randseed * 1664525 + 1013904223);
    f7d4:	e303309c 	movw	r3, #12444	; 0x309c
    f7d8:	e306160d 	movw	r1, #26125	; 0x660d
    f7dc:	e3403001 	movt	r3, #1
    f7e0:	e30f235f 	movw	r2, #62303	; 0xf35f
    f7e4:	e5930000 	ldr	r0, [r3]
    f7e8:	e3401019 	movt	r1, #25
    f7ec:	e3432c6e 	movt	r2, #15470	; 0x3c6e
    f7f0:	e0202091 	mla	r0, r1, r0, r2
    f7f4:	e5830000 	str	r0, [r3]
}
    f7f8:	e12fff1e 	bx	lr

0000f7fc <vfprintf>:
	return getc(stdin);
}

int vfprintf(FILE *fp, const char *fmt, va_list ap)
{
	return fp->vfprintf(fp->ctx, fmt, ap);
    f7fc:	e5903010 	ldr	r3, [r0, #16]
    f800:	e5900000 	ldr	r0, [r0]
    f804:	e12fff13 	bx	r3

0000f808 <fprintf>:
}

int fprintf(FILE *fp, const char *fmt, ...)
{
    f808:	e92d000e 	push	{r1, r2, r3}
    f80c:	e92d4010 	push	{r4, lr}
    f810:	e24dd00c 	sub	sp, sp, #12
	va_list ap;
	int err;

	va_start(ap, fmt);
    f814:	e28d3018 	add	r3, sp, #24
	return fp->vfprintf(fp->ctx, fmt, ap);
    f818:	e1a02003 	mov	r2, r3
    f81c:	e5904010 	ldr	r4, [r0, #16]
    f820:	e59d1014 	ldr	r1, [sp, #20]
    f824:	e5900000 	ldr	r0, [r0]
	va_start(ap, fmt);
    f828:	e58d3004 	str	r3, [sp, #4]
	return fp->vfprintf(fp->ctx, fmt, ap);
    f82c:	e12fff34 	blx	r4
	err = vfprintf(fp, fmt, ap);
	va_end(ap);
	return err;
}
    f830:	e28dd00c 	add	sp, sp, #12
    f834:	e8bd4010 	pop	{r4, lr}
    f838:	e28dd00c 	add	sp, sp, #12
    f83c:	e12fff1e 	bx	lr

0000f840 <raise>:
#endif

/* needed by some piece of EABI */
void raise(void)
{
}
    f840:	e12fff1e 	bx	lr

0000f844 <memcpy>:
{
	char *d = (char *)dest;
	const char *s = (const char *)src;
	int len;

	if (count == 0 || dest == src)
    f844:	e040c001 	sub	ip, r0, r1
    f848:	e3520000 	cmp	r2, #0
    f84c:	e16fcf1c 	clz	ip, ip
    f850:	e1a0c2ac 	lsr	ip, ip, #5
    f854:	03a0c001 	moveq	ip, #1
    f858:	e35c0000 	cmp	ip, #0
    f85c:	112fff1e 	bxne	lr
		return dest;

	if (((long)d | (long)s) & lmask) {
    f860:	e1803001 	orr	r3, r0, r1
{
    f864:	e92d4030 	push	{r4, r5, lr}
	if (((long)d | (long)s) & lmask) {
    f868:	e3130003 	tst	r3, #3
    f86c:	1a000015 	bne	f8c8 <memcpy+0x84>
    f870:	e1a0c122 	lsr	ip, r2, #2
    f874:	e1a03000 	mov	r3, r0
    f878:	e2022003 	and	r2, r2, #3

		count -= len;
		for (; len > 0; len--)
			*d++ = *s++;
	}
	for (len = count / lsize; len > 0; len--) {
    f87c:	e35c0000 	cmp	ip, #0
    f880:	0a000028 	beq	f928 <memcpy+0xe4>
    f884:	e1a0e10c 	lsl	lr, ip, #2
    f888:	e2414004 	sub	r4, r1, #4
    f88c:	e083c00e 	add	ip, r3, lr
		*(word *)d = *(word *)s;
    f890:	e5b45004 	ldr	r5, [r4, #4]!
    f894:	e4835004 	str	r5, [r3], #4
	for (len = count / lsize; len > 0; len--) {
    f898:	e153000c 	cmp	r3, ip
    f89c:	1afffffb 	bne	f890 <memcpy+0x4c>
    f8a0:	e081100e 	add	r1, r1, lr
		d += lsize;
		s += lsize;
	}
	for (len = count & lmask; len > 0; len--)
    f8a4:	e3520000 	cmp	r2, #0
    f8a8:	08bd8030 	popeq	{r4, r5, pc}
    f8ac:	e24cc001 	sub	ip, ip, #1
    f8b0:	e0812002 	add	r2, r1, r2
		*d++ = *s++;
    f8b4:	e4d13001 	ldrb	r3, [r1], #1
	for (len = count & lmask; len > 0; len--)
    f8b8:	e1520001 	cmp	r2, r1
		*d++ = *s++;
    f8bc:	e5ec3001 	strb	r3, [ip, #1]!
	for (len = count & lmask; len > 0; len--)
    f8c0:	1afffffb 	bne	f8b4 <memcpy+0x70>
    f8c4:	e8bd8030 	pop	{r4, r5, pc}
		if ((((long)d ^ (long)s) & lmask) || (count < lsize))
    f8c8:	e0203001 	eor	r3, r0, r1
    f8cc:	e2133003 	ands	r3, r3, #3
    f8d0:	13a03001 	movne	r3, #1
    f8d4:	e3520003 	cmp	r2, #3
    f8d8:	93833001 	orrls	r3, r3, #1
    f8dc:	e3530000 	cmp	r3, #0
    f8e0:	0a00000a 	beq	f910 <memcpy+0xcc>
		for (; len > 0; len--)
    f8e4:	e2523000 	subs	r3, r2, #0
    f8e8:	d8bd8030 	pople	{r4, r5, pc}
    f8ec:	e1a0200c 	mov	r2, ip
    f8f0:	e240e001 	sub	lr, r0, #1
    f8f4:	e0815003 	add	r5, r1, r3
			*d++ = *s++;
    f8f8:	e4d14001 	ldrb	r4, [r1], #1
		for (; len > 0; len--)
    f8fc:	e1510005 	cmp	r1, r5
			*d++ = *s++;
    f900:	e5ee4001 	strb	r4, [lr, #1]!
		for (; len > 0; len--)
    f904:	1afffffb 	bne	f8f8 <memcpy+0xb4>
    f908:	e0803003 	add	r3, r0, r3
    f90c:	eaffffda 	b	f87c <memcpy+0x38>
			len = lsize - ((long)d & lmask); // move the ptrs up to a word boundary
    f910:	e2003003 	and	r3, r0, #3
    f914:	e2633004 	rsb	r3, r3, #4
    f918:	e0422003 	sub	r2, r2, r3
    f91c:	e1a0c122 	lsr	ip, r2, #2
    f920:	e2022003 	and	r2, r2, #3
    f924:	eafffff1 	b	f8f0 <memcpy+0xac>
	for (len = count / lsize; len > 0; len--) {
    f928:	e1a0c003 	mov	ip, r3
    f92c:	eaffffdc 	b	f8a4 <memcpy+0x60>

0000f930 <memset>:

void *
memset(void *s, int c, size_t count)
{
	char *xs = (char *) s;
	size_t len = (-(size_t)s) & (sizeof(size_t)-1);
    f930:	e2603000 	rsb	r3, r0, #0
    f934:	e2033003 	and	r3, r3, #3
	size_t cc = c & 0xff;

	if ( count > len ) {
    f938:	e1530002 	cmp	r3, r2
    f93c:	2a00001b 	bcs	f9b0 <memset+0x80>
{
    f940:	e92d4010 	push	{r4, lr}
	size_t cc = c & 0xff;
    f944:	e6ef4071 	uxtb	r4, r1
		cc |= cc << 16;
		if (sizeof(size_t) == 8)
			cc |= (uint64_t)cc << 32; // should be optimized out on 32 bit machines

		// write to non-aligned memory byte-wise
		for ( ; len > 0; len-- )
    f948:	e3530000 	cmp	r3, #0
		cc |= cc << 8;
    f94c:	e184e404 	orr	lr, r4, r4, lsl #8
		count -= len;
    f950:	e0422003 	sub	r2, r2, r3
	char *xs = (char *) s;
    f954:	01a03000 	moveq	r3, r0
		cc |= cc << 16;
    f958:	e18ee80e 	orr	lr, lr, lr, lsl #16
		for ( ; len > 0; len-- )
    f95c:	0a000004 	beq	f974 <memset+0x44>
    f960:	e080c003 	add	ip, r0, r3
	char *xs = (char *) s;
    f964:	e1a03000 	mov	r3, r0
			*xs++ = c;
    f968:	e4c34001 	strb	r4, [r3], #1
		for ( ; len > 0; len-- )
    f96c:	e15c0003 	cmp	ip, r3
    f970:	1afffffc 	bne	f968 <memset+0x38>

		// write to aligned memory dword-wise
		for ( len = count/sizeof(size_t); len > 0; len-- ) {
    f974:	e1b0c122 	lsrs	ip, r2, #2
    f978:	0a000003 	beq	f98c <memset+0x5c>
    f97c:	e083c10c 	add	ip, r3, ip, lsl #2
			*((size_t *)xs) = (size_t)cc;
    f980:	e483e004 	str	lr, [r3], #4
		for ( len = count/sizeof(size_t); len > 0; len-- ) {
    f984:	e15c0003 	cmp	ip, r3
    f988:	1afffffc 	bne	f980 <memset+0x50>
			xs += sizeof(size_t);
		}

		count &= sizeof(size_t)-1;
    f98c:	e2022003 	and	r2, r2, #3
	}

	// write remaining bytes
	for ( ; count > 0; count-- )
    f990:	e3520000 	cmp	r2, #0
    f994:	08bd8010 	popeq	{r4, pc}
    f998:	e6ef1071 	uxtb	r1, r1
    f99c:	e0832002 	add	r2, r3, r2
		*xs++ = c;
    f9a0:	e4c31001 	strb	r1, [r3], #1
	for ( ; count > 0; count-- )
    f9a4:	e1520003 	cmp	r2, r3
    f9a8:	1afffffc 	bne	f9a0 <memset+0x70>
    f9ac:	e8bd8010 	pop	{r4, pc}
    f9b0:	e3520000 	cmp	r2, #0
	char *xs = (char *) s;
    f9b4:	e1a03000 	mov	r3, r0
	for ( ; count > 0; count-- )
    f9b8:	012fff1e 	bxeq	lr
    f9bc:	e6ef1071 	uxtb	r1, r1
    f9c0:	e0802002 	add	r2, r0, r2
		*xs++ = c;
    f9c4:	e4c31001 	strb	r1, [r3], #1
	for ( ; count > 0; count-- )
    f9c8:	e1520003 	cmp	r2, r3
    f9cc:	1afffffc 	bne	f9c4 <memset+0x94>
    f9d0:	e12fff1e 	bx	lr

0000f9d4 <strlen>:
strlen(char const *s)
{
	size_t i;

	i= 0;
	while (s[i]) {
    f9d4:	e5d03000 	ldrb	r3, [r0]
    f9d8:	e3530000 	cmp	r3, #0
    f9dc:	0a000006 	beq	f9fc <strlen+0x28>
    f9e0:	e1a03000 	mov	r3, r0
	i= 0;
    f9e4:	e3a00000 	mov	r0, #0
	while (s[i]) {
    f9e8:	e5f32001 	ldrb	r2, [r3, #1]!
		i+= 1;
    f9ec:	e2800001 	add	r0, r0, #1
	while (s[i]) {
    f9f0:	e3520000 	cmp	r2, #0
    f9f4:	1afffffb 	bne	f9e8 <strlen+0x14>
    f9f8:	e12fff1e 	bx	lr
	i= 0;
    f9fc:	e1a00003 	mov	r0, r3
	}

	return i;
}
    fa00:	e12fff1e 	bx	lr

0000fa04 <strnlen>:
size_t
strnlen(char const *s, size_t count)
{
	const char *sc;

	for (sc = s; count-- && *sc != '\0'; ++sc)
    fa04:	e3510000 	cmp	r1, #0
    fa08:	0a000010 	beq	fa50 <strnlen+0x4c>
    fa0c:	e5d03000 	ldrb	r3, [r0]
    fa10:	e3530000 	cmp	r3, #0
    fa14:	0a00000f 	beq	fa58 <strnlen+0x54>
    fa18:	e0801001 	add	r1, r0, r1
    fa1c:	e2803001 	add	r3, r0, #1
    fa20:	ea000003 	b	fa34 <strnlen+0x30>
    fa24:	e5d3c000 	ldrb	ip, [r3]
    fa28:	e35c0000 	cmp	ip, #0
    fa2c:	0a000005 	beq	fa48 <strnlen+0x44>
    fa30:	e1a03002 	mov	r3, r2
    fa34:	e1510003 	cmp	r1, r3
    fa38:	e2832001 	add	r2, r3, #1
    fa3c:	1afffff8 	bne	fa24 <strnlen+0x20>
    fa40:	e0410000 	sub	r0, r1, r0
    fa44:	e12fff1e 	bx	lr
    fa48:	e0430000 	sub	r0, r3, r0
    fa4c:	e12fff1e 	bx	lr
    fa50:	e1a00001 	mov	r0, r1
    fa54:	e12fff1e 	bx	lr
    fa58:	e1a00003 	mov	r0, r3
		;
	return sc - s;
}
    fa5c:	e12fff1e 	bx	lr

0000fa60 <__aeabi_drsub>:
    fa60:	f081 4100 	eor.w	r1, r1, #2147483648	; 0x80000000
    fa64:	e002      	b.n	fa6c <__adddf3>
    fa66:	bf00      	nop

0000fa68 <__aeabi_dsub>:
    fa68:	f083 4300 	eor.w	r3, r3, #2147483648	; 0x80000000

0000fa6c <__adddf3>:
    fa6c:	b530      	push	{r4, r5, lr}
    fa6e:	ea4f 0441 	mov.w	r4, r1, lsl #1
    fa72:	ea4f 0543 	mov.w	r5, r3, lsl #1
    fa76:	ea94 0f05 	teq	r4, r5
    fa7a:	bf08      	it	eq
    fa7c:	ea90 0f02 	teqeq	r0, r2
    fa80:	bf1f      	itttt	ne
    fa82:	ea54 0c00 	orrsne.w	ip, r4, r0
    fa86:	ea55 0c02 	orrsne.w	ip, r5, r2
    fa8a:	ea7f 5c64 	mvnsne.w	ip, r4, asr #21
    fa8e:	ea7f 5c65 	mvnsne.w	ip, r5, asr #21
    fa92:	f000 80e2 	beq.w	fc5a <__adddf3+0x1ee>
    fa96:	ea4f 5454 	mov.w	r4, r4, lsr #21
    fa9a:	ebd4 5555 	rsbs	r5, r4, r5, lsr #21
    fa9e:	bfb8      	it	lt
    faa0:	426d      	neglt	r5, r5
    faa2:	dd0c      	ble.n	fabe <__adddf3+0x52>
    faa4:	442c      	add	r4, r5
    faa6:	ea80 0202 	eor.w	r2, r0, r2
    faaa:	ea81 0303 	eor.w	r3, r1, r3
    faae:	ea82 0000 	eor.w	r0, r2, r0
    fab2:	ea83 0101 	eor.w	r1, r3, r1
    fab6:	ea80 0202 	eor.w	r2, r0, r2
    faba:	ea81 0303 	eor.w	r3, r1, r3
    fabe:	2d36      	cmp	r5, #54	; 0x36
    fac0:	bf88      	it	hi
    fac2:	bd30      	pophi	{r4, r5, pc}
    fac4:	f011 4f00 	tst.w	r1, #2147483648	; 0x80000000
    fac8:	ea4f 3101 	mov.w	r1, r1, lsl #12
    facc:	f44f 1c80 	mov.w	ip, #1048576	; 0x100000
    fad0:	ea4c 3111 	orr.w	r1, ip, r1, lsr #12
    fad4:	d002      	beq.n	fadc <__adddf3+0x70>
    fad6:	4240      	negs	r0, r0
    fad8:	eb61 0141 	sbc.w	r1, r1, r1, lsl #1
    fadc:	f013 4f00 	tst.w	r3, #2147483648	; 0x80000000
    fae0:	ea4f 3303 	mov.w	r3, r3, lsl #12
    fae4:	ea4c 3313 	orr.w	r3, ip, r3, lsr #12
    fae8:	d002      	beq.n	faf0 <__adddf3+0x84>
    faea:	4252      	negs	r2, r2
    faec:	eb63 0343 	sbc.w	r3, r3, r3, lsl #1
    faf0:	ea94 0f05 	teq	r4, r5
    faf4:	f000 80a7 	beq.w	fc46 <__adddf3+0x1da>
    faf8:	f1a4 0401 	sub.w	r4, r4, #1
    fafc:	f1d5 0e20 	rsbs	lr, r5, #32
    fb00:	db0d      	blt.n	fb1e <__adddf3+0xb2>
    fb02:	fa02 fc0e 	lsl.w	ip, r2, lr
    fb06:	fa22 f205 	lsr.w	r2, r2, r5
    fb0a:	1880      	adds	r0, r0, r2
    fb0c:	f141 0100 	adc.w	r1, r1, #0
    fb10:	fa03 f20e 	lsl.w	r2, r3, lr
    fb14:	1880      	adds	r0, r0, r2
    fb16:	fa43 f305 	asr.w	r3, r3, r5
    fb1a:	4159      	adcs	r1, r3
    fb1c:	e00e      	b.n	fb3c <__adddf3+0xd0>
    fb1e:	f1a5 0520 	sub.w	r5, r5, #32
    fb22:	f10e 0e20 	add.w	lr, lr, #32
    fb26:	2a01      	cmp	r2, #1
    fb28:	fa03 fc0e 	lsl.w	ip, r3, lr
    fb2c:	bf28      	it	cs
    fb2e:	f04c 0c02 	orrcs.w	ip, ip, #2
    fb32:	fa43 f305 	asr.w	r3, r3, r5
    fb36:	18c0      	adds	r0, r0, r3
    fb38:	eb51 71e3 	adcs.w	r1, r1, r3, asr #31
    fb3c:	f001 4500 	and.w	r5, r1, #2147483648	; 0x80000000
    fb40:	d507      	bpl.n	fb52 <__adddf3+0xe6>
    fb42:	f04f 0e00 	mov.w	lr, #0
    fb46:	f1dc 0c00 	rsbs	ip, ip, #0
    fb4a:	eb7e 0000 	sbcs.w	r0, lr, r0
    fb4e:	eb6e 0101 	sbc.w	r1, lr, r1
    fb52:	f5b1 1f80 	cmp.w	r1, #1048576	; 0x100000
    fb56:	d31b      	bcc.n	fb90 <__adddf3+0x124>
    fb58:	f5b1 1f00 	cmp.w	r1, #2097152	; 0x200000
    fb5c:	d30c      	bcc.n	fb78 <__adddf3+0x10c>
    fb5e:	0849      	lsrs	r1, r1, #1
    fb60:	ea5f 0030 	movs.w	r0, r0, rrx
    fb64:	ea4f 0c3c 	mov.w	ip, ip, rrx
    fb68:	f104 0401 	add.w	r4, r4, #1
    fb6c:	ea4f 5244 	mov.w	r2, r4, lsl #21
    fb70:	f512 0f80 	cmn.w	r2, #4194304	; 0x400000
    fb74:	f080 809a 	bcs.w	fcac <__adddf3+0x240>
    fb78:	f1bc 4f00 	cmp.w	ip, #2147483648	; 0x80000000
    fb7c:	bf08      	it	eq
    fb7e:	ea5f 0c50 	movseq.w	ip, r0, lsr #1
    fb82:	f150 0000 	adcs.w	r0, r0, #0
    fb86:	eb41 5104 	adc.w	r1, r1, r4, lsl #20
    fb8a:	ea41 0105 	orr.w	r1, r1, r5
    fb8e:	bd30      	pop	{r4, r5, pc}
    fb90:	ea5f 0c4c 	movs.w	ip, ip, lsl #1
    fb94:	4140      	adcs	r0, r0
    fb96:	eb41 0101 	adc.w	r1, r1, r1
    fb9a:	f411 1f80 	tst.w	r1, #1048576	; 0x100000
    fb9e:	f1a4 0401 	sub.w	r4, r4, #1
    fba2:	d1e9      	bne.n	fb78 <__adddf3+0x10c>
    fba4:	f091 0f00 	teq	r1, #0
    fba8:	bf04      	itt	eq
    fbaa:	4601      	moveq	r1, r0
    fbac:	2000      	moveq	r0, #0
    fbae:	fab1 f381 	clz	r3, r1
    fbb2:	bf08      	it	eq
    fbb4:	3320      	addeq	r3, #32
    fbb6:	f1a3 030b 	sub.w	r3, r3, #11
    fbba:	f1b3 0220 	subs.w	r2, r3, #32
    fbbe:	da0c      	bge.n	fbda <__adddf3+0x16e>
    fbc0:	320c      	adds	r2, #12
    fbc2:	dd08      	ble.n	fbd6 <__adddf3+0x16a>
    fbc4:	f102 0c14 	add.w	ip, r2, #20
    fbc8:	f1c2 020c 	rsb	r2, r2, #12
    fbcc:	fa01 f00c 	lsl.w	r0, r1, ip
    fbd0:	fa21 f102 	lsr.w	r1, r1, r2
    fbd4:	e00c      	b.n	fbf0 <__adddf3+0x184>
    fbd6:	f102 0214 	add.w	r2, r2, #20
    fbda:	bfd8      	it	le
    fbdc:	f1c2 0c20 	rsble	ip, r2, #32
    fbe0:	fa01 f102 	lsl.w	r1, r1, r2
    fbe4:	fa20 fc0c 	lsr.w	ip, r0, ip
    fbe8:	bfdc      	itt	le
    fbea:	ea41 010c 	orrle.w	r1, r1, ip
    fbee:	4090      	lslle	r0, r2
    fbf0:	1ae4      	subs	r4, r4, r3
    fbf2:	bfa2      	ittt	ge
    fbf4:	eb01 5104 	addge.w	r1, r1, r4, lsl #20
    fbf8:	4329      	orrge	r1, r5
    fbfa:	bd30      	popge	{r4, r5, pc}
    fbfc:	ea6f 0404 	mvn.w	r4, r4
    fc00:	3c1f      	subs	r4, #31
    fc02:	da1c      	bge.n	fc3e <__adddf3+0x1d2>
    fc04:	340c      	adds	r4, #12
    fc06:	dc0e      	bgt.n	fc26 <__adddf3+0x1ba>
    fc08:	f104 0414 	add.w	r4, r4, #20
    fc0c:	f1c4 0220 	rsb	r2, r4, #32
    fc10:	fa20 f004 	lsr.w	r0, r0, r4
    fc14:	fa01 f302 	lsl.w	r3, r1, r2
    fc18:	ea40 0003 	orr.w	r0, r0, r3
    fc1c:	fa21 f304 	lsr.w	r3, r1, r4
    fc20:	ea45 0103 	orr.w	r1, r5, r3
    fc24:	bd30      	pop	{r4, r5, pc}
    fc26:	f1c4 040c 	rsb	r4, r4, #12
    fc2a:	f1c4 0220 	rsb	r2, r4, #32
    fc2e:	fa20 f002 	lsr.w	r0, r0, r2
    fc32:	fa01 f304 	lsl.w	r3, r1, r4
    fc36:	ea40 0003 	orr.w	r0, r0, r3
    fc3a:	4629      	mov	r1, r5
    fc3c:	bd30      	pop	{r4, r5, pc}
    fc3e:	fa21 f004 	lsr.w	r0, r1, r4
    fc42:	4629      	mov	r1, r5
    fc44:	bd30      	pop	{r4, r5, pc}
    fc46:	f094 0f00 	teq	r4, #0
    fc4a:	f483 1380 	eor.w	r3, r3, #1048576	; 0x100000
    fc4e:	bf06      	itte	eq
    fc50:	f481 1180 	eoreq.w	r1, r1, #1048576	; 0x100000
    fc54:	3401      	addeq	r4, #1
    fc56:	3d01      	subne	r5, #1
    fc58:	e74e      	b.n	faf8 <__adddf3+0x8c>
    fc5a:	ea7f 5c64 	mvns.w	ip, r4, asr #21
    fc5e:	bf18      	it	ne
    fc60:	ea7f 5c65 	mvnsne.w	ip, r5, asr #21
    fc64:	d029      	beq.n	fcba <__adddf3+0x24e>
    fc66:	ea94 0f05 	teq	r4, r5
    fc6a:	bf08      	it	eq
    fc6c:	ea90 0f02 	teqeq	r0, r2
    fc70:	d005      	beq.n	fc7e <__adddf3+0x212>
    fc72:	ea54 0c00 	orrs.w	ip, r4, r0
    fc76:	bf04      	itt	eq
    fc78:	4619      	moveq	r1, r3
    fc7a:	4610      	moveq	r0, r2
    fc7c:	bd30      	pop	{r4, r5, pc}
    fc7e:	ea91 0f03 	teq	r1, r3
    fc82:	bf1e      	ittt	ne
    fc84:	2100      	movne	r1, #0
    fc86:	2000      	movne	r0, #0
    fc88:	bd30      	popne	{r4, r5, pc}
    fc8a:	ea5f 5c54 	movs.w	ip, r4, lsr #21
    fc8e:	d105      	bne.n	fc9c <__adddf3+0x230>
    fc90:	0040      	lsls	r0, r0, #1
    fc92:	4149      	adcs	r1, r1
    fc94:	bf28      	it	cs
    fc96:	f041 4100 	orrcs.w	r1, r1, #2147483648	; 0x80000000
    fc9a:	bd30      	pop	{r4, r5, pc}
    fc9c:	f514 0480 	adds.w	r4, r4, #4194304	; 0x400000
    fca0:	bf3c      	itt	cc
    fca2:	f501 1180 	addcc.w	r1, r1, #1048576	; 0x100000
    fca6:	bd30      	popcc	{r4, r5, pc}
    fca8:	f001 4500 	and.w	r5, r1, #2147483648	; 0x80000000
    fcac:	f045 41fe 	orr.w	r1, r5, #2130706432	; 0x7f000000
    fcb0:	f441 0170 	orr.w	r1, r1, #15728640	; 0xf00000
    fcb4:	f04f 0000 	mov.w	r0, #0
    fcb8:	bd30      	pop	{r4, r5, pc}
    fcba:	ea7f 5c64 	mvns.w	ip, r4, asr #21
    fcbe:	bf1a      	itte	ne
    fcc0:	4619      	movne	r1, r3
    fcc2:	4610      	movne	r0, r2
    fcc4:	ea7f 5c65 	mvnseq.w	ip, r5, asr #21
    fcc8:	bf1c      	itt	ne
    fcca:	460b      	movne	r3, r1
    fccc:	4602      	movne	r2, r0
    fcce:	ea50 3401 	orrs.w	r4, r0, r1, lsl #12
    fcd2:	bf06      	itte	eq
    fcd4:	ea52 3503 	orrseq.w	r5, r2, r3, lsl #12
    fcd8:	ea91 0f03 	teqeq	r1, r3
    fcdc:	f441 2100 	orrne.w	r1, r1, #524288	; 0x80000
    fce0:	bd30      	pop	{r4, r5, pc}
    fce2:	bf00      	nop

0000fce4 <__aeabi_ui2d>:
    fce4:	f090 0f00 	teq	r0, #0
    fce8:	bf04      	itt	eq
    fcea:	2100      	moveq	r1, #0
    fcec:	4770      	bxeq	lr
    fcee:	b530      	push	{r4, r5, lr}
    fcf0:	f44f 6480 	mov.w	r4, #1024	; 0x400
    fcf4:	f104 0432 	add.w	r4, r4, #50	; 0x32
    fcf8:	f04f 0500 	mov.w	r5, #0
    fcfc:	f04f 0100 	mov.w	r1, #0
    fd00:	e750      	b.n	fba4 <__adddf3+0x138>
    fd02:	bf00      	nop

0000fd04 <__aeabi_i2d>:
    fd04:	f090 0f00 	teq	r0, #0
    fd08:	bf04      	itt	eq
    fd0a:	2100      	moveq	r1, #0
    fd0c:	4770      	bxeq	lr
    fd0e:	b530      	push	{r4, r5, lr}
    fd10:	f44f 6480 	mov.w	r4, #1024	; 0x400
    fd14:	f104 0432 	add.w	r4, r4, #50	; 0x32
    fd18:	f010 4500 	ands.w	r5, r0, #2147483648	; 0x80000000
    fd1c:	bf48      	it	mi
    fd1e:	4240      	negmi	r0, r0
    fd20:	f04f 0100 	mov.w	r1, #0
    fd24:	e73e      	b.n	fba4 <__adddf3+0x138>
    fd26:	bf00      	nop

0000fd28 <__aeabi_f2d>:
    fd28:	0042      	lsls	r2, r0, #1
    fd2a:	ea4f 01e2 	mov.w	r1, r2, asr #3
    fd2e:	ea4f 0131 	mov.w	r1, r1, rrx
    fd32:	ea4f 7002 	mov.w	r0, r2, lsl #28
    fd36:	bf1f      	itttt	ne
    fd38:	f012 437f 	andsne.w	r3, r2, #4278190080	; 0xff000000
    fd3c:	f093 4f7f 	teqne	r3, #4278190080	; 0xff000000
    fd40:	f081 5160 	eorne.w	r1, r1, #939524096	; 0x38000000
    fd44:	4770      	bxne	lr
    fd46:	f032 427f 	bics.w	r2, r2, #4278190080	; 0xff000000
    fd4a:	bf08      	it	eq
    fd4c:	4770      	bxeq	lr
    fd4e:	f093 4f7f 	teq	r3, #4278190080	; 0xff000000
    fd52:	bf04      	itt	eq
    fd54:	f441 2100 	orreq.w	r1, r1, #524288	; 0x80000
    fd58:	4770      	bxeq	lr
    fd5a:	b530      	push	{r4, r5, lr}
    fd5c:	f44f 7460 	mov.w	r4, #896	; 0x380
    fd60:	f001 4500 	and.w	r5, r1, #2147483648	; 0x80000000
    fd64:	f021 4100 	bic.w	r1, r1, #2147483648	; 0x80000000
    fd68:	e71c      	b.n	fba4 <__adddf3+0x138>
    fd6a:	bf00      	nop

0000fd6c <__aeabi_ul2d>:
    fd6c:	ea50 0201 	orrs.w	r2, r0, r1
    fd70:	bf08      	it	eq
    fd72:	4770      	bxeq	lr
    fd74:	b530      	push	{r4, r5, lr}
    fd76:	f04f 0500 	mov.w	r5, #0
    fd7a:	e00a      	b.n	fd92 <__aeabi_l2d+0x16>

0000fd7c <__aeabi_l2d>:
    fd7c:	ea50 0201 	orrs.w	r2, r0, r1
    fd80:	bf08      	it	eq
    fd82:	4770      	bxeq	lr
    fd84:	b530      	push	{r4, r5, lr}
    fd86:	f011 4500 	ands.w	r5, r1, #2147483648	; 0x80000000
    fd8a:	d502      	bpl.n	fd92 <__aeabi_l2d+0x16>
    fd8c:	4240      	negs	r0, r0
    fd8e:	eb61 0141 	sbc.w	r1, r1, r1, lsl #1
    fd92:	f44f 6480 	mov.w	r4, #1024	; 0x400
    fd96:	f104 0432 	add.w	r4, r4, #50	; 0x32
    fd9a:	ea5f 5c91 	movs.w	ip, r1, lsr #22
    fd9e:	f43f aed8 	beq.w	fb52 <__adddf3+0xe6>
    fda2:	f04f 0203 	mov.w	r2, #3
    fda6:	ea5f 0cdc 	movs.w	ip, ip, lsr #3
    fdaa:	bf18      	it	ne
    fdac:	3203      	addne	r2, #3
    fdae:	ea5f 0cdc 	movs.w	ip, ip, lsr #3
    fdb2:	bf18      	it	ne
    fdb4:	3203      	addne	r2, #3
    fdb6:	eb02 02dc 	add.w	r2, r2, ip, lsr #3
    fdba:	f1c2 0320 	rsb	r3, r2, #32
    fdbe:	fa00 fc03 	lsl.w	ip, r0, r3
    fdc2:	fa20 f002 	lsr.w	r0, r0, r2
    fdc6:	fa01 fe03 	lsl.w	lr, r1, r3
    fdca:	ea40 000e 	orr.w	r0, r0, lr
    fdce:	fa21 f102 	lsr.w	r1, r1, r2
    fdd2:	4414      	add	r4, r2
    fdd4:	e6bd      	b.n	fb52 <__adddf3+0xe6>
    fdd6:	bf00      	nop

0000fdd8 <__aeabi_uldivmod>:
    fdd8:	b953      	cbnz	r3, fdf0 <__aeabi_uldivmod+0x18>
    fdda:	b94a      	cbnz	r2, fdf0 <__aeabi_uldivmod+0x18>
    fddc:	2900      	cmp	r1, #0
    fdde:	bf08      	it	eq
    fde0:	2800      	cmpeq	r0, #0
    fde2:	bf1c      	itt	ne
    fde4:	f04f 31ff 	movne.w	r1, #4294967295	; 0xffffffff
    fde8:	f04f 30ff 	movne.w	r0, #4294967295	; 0xffffffff
    fdec:	f000 b80c 	b.w	fe08 <__aeabi_idiv0>
    fdf0:	f1ad 0c08 	sub.w	ip, sp, #8
    fdf4:	e96d ce04 	strd	ip, lr, [sp, #-16]!
    fdf8:	f000 f80c 	bl	fe14 <__udivmoddi4>
    fdfc:	f8dd e004 	ldr.w	lr, [sp, #4]
    fe00:	e9dd 2302 	ldrd	r2, r3, [sp, #8]
    fe04:	b004      	add	sp, #16
    fe06:	4770      	bx	lr

0000fe08 <__aeabi_idiv0>:
    fe08:	b502      	push	{r1, lr}
    fe0a:	f04f 0008 	mov.w	r0, #8
    fe0e:	f7ff ed18 	blx	f840 <raise>
    fe12:	bd02      	pop	{r1, pc}

0000fe14 <__udivmoddi4>:
    fe14:	4299      	cmp	r1, r3
    fe16:	e92d 4ff0 	stmdb	sp!, {r4, r5, r6, r7, r8, r9, sl, fp, lr}
    fe1a:	bf08      	it	eq
    fe1c:	4290      	cmpeq	r0, r2
    fe1e:	4604      	mov	r4, r0
    fe20:	bf38      	it	cc
    fe22:	2000      	movcc	r0, #0
    fe24:	460d      	mov	r5, r1
    fe26:	f8dd e024 	ldr.w	lr, [sp, #36]	; 0x24
    fe2a:	bf38      	it	cc
    fe2c:	4601      	movcc	r1, r0
    fe2e:	d368      	bcc.n	ff02 <__udivmoddi4+0xee>
    fe30:	4692      	mov	sl, r2
    fe32:	469b      	mov	fp, r3
    fe34:	fab3 fc83 	clz	ip, r3
    fe38:	2b00      	cmp	r3, #0
    fe3a:	d06d      	beq.n	ff18 <__udivmoddi4+0x104>
    fe3c:	fab5 f185 	clz	r1, r5
    fe40:	2d00      	cmp	r5, #0
    fe42:	d065      	beq.n	ff10 <__udivmoddi4+0xfc>
    fe44:	ebac 0c01 	sub.w	ip, ip, r1
    fe48:	f1ac 0820 	sub.w	r8, ip, #32
    fe4c:	fa0b f70c 	lsl.w	r7, fp, ip
    fe50:	fa0a f108 	lsl.w	r1, sl, r8
    fe54:	f1cc 0920 	rsb	r9, ip, #32
    fe58:	fa2a f309 	lsr.w	r3, sl, r9
    fe5c:	fa0a f60c 	lsl.w	r6, sl, ip
    fe60:	430f      	orrs	r7, r1
    fe62:	431f      	orrs	r7, r3
    fe64:	42bd      	cmp	r5, r7
    fe66:	bf08      	it	eq
    fe68:	42b4      	cmpeq	r4, r6
    fe6a:	bf3c      	itt	cc
    fe6c:	2000      	movcc	r0, #0
    fe6e:	4601      	movcc	r1, r0
    fe70:	d30a      	bcc.n	fe88 <__udivmoddi4+0x74>
    fe72:	2001      	movs	r0, #1
    fe74:	1ba4      	subs	r4, r4, r6
    fe76:	fa00 f108 	lsl.w	r1, r0, r8
    fe7a:	fa20 f309 	lsr.w	r3, r0, r9
    fe7e:	fa00 f00c 	lsl.w	r0, r0, ip
    fe82:	eb65 0507 	sbc.w	r5, r5, r7
    fe86:	4319      	orrs	r1, r3
    fe88:	f1bc 0f00 	cmp.w	ip, #0
    fe8c:	d039      	beq.n	ff02 <__udivmoddi4+0xee>
    fe8e:	087f      	lsrs	r7, r7, #1
    fe90:	ea4f 0636 	mov.w	r6, r6, rrx
    fe94:	4662      	mov	r2, ip
    fe96:	e00a      	b.n	feae <__udivmoddi4+0x9a>
    fe98:	1ba3      	subs	r3, r4, r6
    fe9a:	eb65 0a07 	sbc.w	sl, r5, r7
    fe9e:	18db      	adds	r3, r3, r3
    fea0:	eb4a 0a0a 	adc.w	sl, sl, sl
    fea4:	1c5c      	adds	r4, r3, #1
    fea6:	f14a 0500 	adc.w	r5, sl, #0
    feaa:	3a01      	subs	r2, #1
    feac:	d007      	beq.n	febe <__udivmoddi4+0xaa>
    feae:	42bd      	cmp	r5, r7
    feb0:	bf08      	it	eq
    feb2:	42b4      	cmpeq	r4, r6
    feb4:	d2f0      	bcs.n	fe98 <__udivmoddi4+0x84>
    feb6:	1924      	adds	r4, r4, r4
    feb8:	416d      	adcs	r5, r5
    feba:	3a01      	subs	r2, #1
    febc:	d1f7      	bne.n	feae <__udivmoddi4+0x9a>
    febe:	fa24 f30c 	lsr.w	r3, r4, ip
    fec2:	fa05 f909 	lsl.w	r9, r5, r9
    fec6:	fa25 f20c 	lsr.w	r2, r5, ip
    feca:	fa25 f808 	lsr.w	r8, r5, r8
    fece:	1900      	adds	r0, r0, r4
    fed0:	ea43 0309 	orr.w	r3, r3, r9
    fed4:	ea43 0408 	orr.w	r4, r3, r8
    fed8:	eb45 0101 	adc.w	r1, r5, r1
    fedc:	4615      	mov	r5, r2
    fede:	f1ac 0220 	sub.w	r2, ip, #32
    fee2:	fa05 f30c 	lsl.w	r3, r5, ip
    fee6:	fa04 f60c 	lsl.w	r6, r4, ip
    feea:	fa04 f202 	lsl.w	r2, r4, r2
    feee:	f1cc 0c20 	rsb	ip, ip, #32
    fef2:	fa24 fc0c 	lsr.w	ip, r4, ip
    fef6:	4313      	orrs	r3, r2
    fef8:	1b80      	subs	r0, r0, r6
    fefa:	ea43 030c 	orr.w	r3, r3, ip
    fefe:	eb61 0103 	sbc.w	r1, r1, r3
    ff02:	f1be 0f00 	cmp.w	lr, #0
    ff06:	d001      	beq.n	ff0c <__udivmoddi4+0xf8>
    ff08:	e9ce 4500 	strd	r4, r5, [lr]
    ff0c:	e8bd 8ff0 	ldmia.w	sp!, {r4, r5, r6, r7, r8, r9, sl, fp, pc}
    ff10:	fab4 f184 	clz	r1, r4
    ff14:	3120      	adds	r1, #32
    ff16:	e795      	b.n	fe44 <__udivmoddi4+0x30>
    ff18:	fab2 fc82 	clz	ip, r2
    ff1c:	fab5 f185 	clz	r1, r5
    ff20:	f10c 0c20 	add.w	ip, ip, #32
    ff24:	2d00      	cmp	r5, #0
    ff26:	d18d      	bne.n	fe44 <__udivmoddi4+0x30>
    ff28:	e7f2      	b.n	ff10 <__udivmoddi4+0xfc>
    ff2a:	bf00      	nop
