
t186ref/build-t186/user_tasks/sample/ipc-unittest/main/main.syms.elf:     file format elf32-littlearm


Disassembly of section .text:

00008000 <exit>:
    8000:	e92d4010 	push	{r4, lr}
    8004:	eb001950 	bl	e54c <__cxa_finalize>
    8008:	eb002257 	bl	1096c <exit_group>

0000800c <main>:
    800c:	e3023bb4 	movw	r3, #11188	; 0x2bb4
    8010:	e92d4ff0 	push	{r4, r5, r6, r7, r8, r9, sl, fp, lr}
    8014:	e3403001 	movt	r3, #1
    8018:	e24ddf71 	sub	sp, sp, #452	; 0x1c4
    801c:	e302cbbc 	movw	ip, #11196	; 0x2bbc
    8020:	e28d4044 	add	r4, sp, #68	; 0x44
    8024:	e8930003 	ldm	r3, {r0, r1}
    8028:	e340c001 	movt	ip, #1
    802c:	e28de04c 	add	lr, sp, #76	; 0x4c
    8030:	e3022fc0 	movw	r2, #12224	; 0x2fc0
    8034:	e3402001 	movt	r2, #1
    8038:	e30035ef 	movw	r3, #1519	; 0x5ef
    803c:	e0c410b2 	strh	r1, [r4], #2
    8040:	e58d0040 	str	r0, [sp, #64]	; 0x40
    8044:	e1a05821 	lsr	r5, r1, #16
    8048:	e89c0003 	ldm	ip, {r0, r1}
    804c:	e5c45000 	strb	r5, [r4]
    8050:	e0ce10b2 	strh	r1, [lr], #2
    8054:	e1a0c821 	lsr	ip, r1, #16
    8058:	e30215c0 	movw	r1, #9664	; 0x25c0
    805c:	e58d0048 	str	r0, [sp, #72]	; 0x48
    8060:	e3401001 	movt	r1, #1
    8064:	e59f06c8 	ldr	r0, [pc, #1736]	; 8734 <main+0x728>
    8068:	e5cec000 	strb	ip, [lr]
    806c:	eb002729 	bl	11d18 <fprintf>
    8070:	e30235e4 	movw	r3, #9700	; 0x25e4
    8074:	e3022fe4 	movw	r2, #12260	; 0x2fe4
    8078:	e30215ec 	movw	r1, #9708	; 0x25ec
    807c:	e3403001 	movt	r3, #1
    8080:	e3402001 	movt	r2, #1
    8084:	e3401001 	movt	r1, #1
    8088:	e28d00b0 	add	r0, sp, #176	; 0xb0
    808c:	eb002707 	bl	11cb0 <sprintf>
    8090:	e3a03002 	mov	r3, #2
    8094:	e28d00b0 	add	r0, sp, #176	; 0xb0
    8098:	e3a02a01 	mov	r2, #4096	; 0x1000
    809c:	e3a01001 	mov	r1, #1
    80a0:	eb002237 	bl	10984 <port_create>
    80a4:	e2503000 	subs	r3, r0, #0
    80a8:	e58d302c 	str	r3, [sp, #44]	; 0x2c
    80ac:	ba000ac8 	blt	abd4 <main+0x2bc8>
    80b0:	e30236cc 	movw	r3, #9932	; 0x26cc
    80b4:	e30b0eef 	movw	r0, #48879	; 0xbeef
    80b8:	e3403001 	movt	r3, #1
    80bc:	e1a0c000 	mov	ip, r0
    80c0:	e58d3018 	str	r3, [sp, #24]
    80c4:	e30b3eef 	movw	r3, #48879	; 0xbeef
    80c8:	e3400001 	movt	r0, #1
    80cc:	e3403003 	movt	r3, #3
    80d0:	e3022fc0 	movw	r2, #12224	; 0x2fc0
    80d4:	e3021620 	movw	r1, #9760	; 0x2620
    80d8:	e58d0034 	str	r0, [sp, #52]	; 0x34
    80dc:	e340c002 	movt	ip, #2
    80e0:	e58d303c 	str	r3, [sp, #60]	; 0x3c
    80e4:	e3402001 	movt	r2, #1
    80e8:	e30035fb 	movw	r3, #1531	; 0x5fb
    80ec:	e3401001 	movt	r1, #1
    80f0:	e59f063c 	ldr	r0, [pc, #1596]	; 8734 <main+0x728>
    80f4:	e58dc038 	str	ip, [sp, #56]	; 0x38
    80f8:	eb002706 	bl	11d18 <fprintf>
    80fc:	e3e03000 	mvn	r3, #0
    8100:	e58d3028 	str	r3, [sp, #40]	; 0x28
    8104:	e3e01000 	mvn	r1, #0
    8108:	e28d0058 	add	r0, sp, #88	; 0x58
    810c:	eb00222e 	bl	109cc <wait_any>
    8110:	e59d305c 	ldr	r3, [sp, #92]	; 0x5c
    8114:	e1a08000 	mov	r8, r0
    8118:	e59dc058 	ldr	ip, [sp, #88]	; 0x58
    811c:	e3022fc0 	movw	r2, #12224	; 0x2fc0
    8120:	e302163c 	movw	r1, #9788	; 0x263c
    8124:	e59f0608 	ldr	r0, [pc, #1544]	; 8734 <main+0x728>
    8128:	e58d3004 	str	r3, [sp, #4]
    812c:	e3402001 	movt	r2, #1
    8130:	e58d8000 	str	r8, [sp]
    8134:	e3401001 	movt	r1, #1
    8138:	e58dc008 	str	ip, [sp, #8]
    813c:	e3a03c06 	mov	r3, #1536	; 0x600
    8140:	eb0026f4 	bl	11d18 <fprintf>
    8144:	e3580000 	cmp	r8, #0
    8148:	1a00000a 	bne	8178 <main+0x16c>
    814c:	e59d305c 	ldr	r3, [sp, #92]	; 0x5c
    8150:	e3130001 	tst	r3, #1
    8154:	1a00000b 	bne	8188 <main+0x17c>
    8158:	e59d2028 	ldr	r2, [sp, #40]	; 0x28
    815c:	e1e02002 	mvn	r2, r2
    8160:	e1a02fa2 	lsr	r2, r2, #31
    8164:	e0123123 	ands	r3, r2, r3, lsr #2
    8168:	0affffe5 	beq	8104 <main+0xf8>
    816c:	e59d0028 	ldr	r0, [sp, #40]	; 0x28
    8170:	eb00220c 	bl	109a8 <close>
    8174:	eaffffe2 	b	8104 <main+0xf8>
    8178:	aaffffe1 	bge	8104 <main+0xf8>
    817c:	e59d002c 	ldr	r0, [sp, #44]	; 0x2c
    8180:	e28ddf71 	add	sp, sp, #452	; 0x1c4
    8184:	e8bd8ff0 	pop	{r4, r5, r6, r7, r8, r9, sl, fp, pc}
    8188:	e28d1070 	add	r1, sp, #112	; 0x70
    818c:	e59d0058 	ldr	r0, [sp, #88]	; 0x58
    8190:	eb002201 	bl	1099c <accept>
    8194:	e2503000 	subs	r3, r0, #0
    8198:	e58d3028 	str	r3, [sp, #40]	; 0x28
    819c:	bafffff6 	blt	817c <main+0x170>
    81a0:	e3022fc0 	movw	r2, #12224	; 0x2fc0
    81a4:	e3021668 	movw	r1, #9832	; 0x2668
    81a8:	e30440a0 	movw	r4, #16544	; 0x40a0
    81ac:	e304a09c 	movw	sl, #16540	; 0x409c
    81b0:	e3402001 	movt	r2, #1
    81b4:	e3401001 	movt	r1, #1
    81b8:	e30035b2 	movw	r3, #1458	; 0x5b2
    81bc:	e3404001 	movt	r4, #1
    81c0:	e59f056c 	ldr	r0, [pc, #1388]	; 8734 <main+0x728>
    81c4:	e340a001 	movt	sl, #1
    81c8:	e30294b0 	movw	r9, #9392	; 0x24b0
    81cc:	e28dbe13 	add	fp, sp, #304	; 0x130
    81d0:	eb0026d0 	bl	11d18 <fprintf>
    81d4:	e3409001 	movt	r9, #1
    81d8:	e5848000 	str	r8, [r4]
    81dc:	e58a8000 	str	r8, [sl]
    81e0:	e3027684 	movw	r7, #9860	; 0x2684
    81e4:	eb000da8 	bl	b88c <run_port_create_test>
    81e8:	eb000ec7 	bl	bd0c <run_wait_on_port_test>
    81ec:	e3022fc0 	movw	r2, #12224	; 0x2fc0
    81f0:	e3021fd4 	movw	r1, #12244	; 0x2fd4
    81f4:	e58d9000 	str	r9, [sp]
    81f8:	e3402001 	movt	r2, #1
    81fc:	e3401001 	movt	r1, #1
    8200:	e3a03f8d 	mov	r3, #564	; 0x234
    8204:	e58b8004 	str	r8, [fp, #4]
    8208:	e3407001 	movt	r7, #1
    820c:	e58b8008 	str	r8, [fp, #8]
    8210:	e58b800c 	str	r8, [fp, #12]
    8214:	e59f0518 	ldr	r0, [pc, #1304]	; 8734 <main+0x728>
    8218:	e58d8130 	str	r8, [sp, #304]	; 0x130
    821c:	eb0026bd 	bl	11d18 <fprintf>
    8220:	e3022fe4 	movw	r2, #12260	; 0x2fe4
    8224:	e303127c 	movw	r1, #12924	; 0x327c
    8228:	e1a03007 	mov	r3, r7
    822c:	e3402001 	movt	r2, #1
    8230:	e3401001 	movt	r1, #1
    8234:	e28d0e17 	add	r0, sp, #368	; 0x170
    8238:	eb00269c 	bl	11cb0 <sprintf>
    823c:	e1a01008 	mov	r1, r8
    8240:	e28d0e17 	add	r0, sp, #368	; 0x170
    8244:	eb0021d1 	bl	10990 <connect>
    8248:	e5943000 	ldr	r3, [r4]
    824c:	e3700002 	cmn	r0, #2
    8250:	e1a06000 	mov	r6, r0
    8254:	03a08001 	moveq	r8, #1
    8258:	e2833001 	add	r3, r3, #1
    825c:	e5843000 	str	r3, [r4]
    8260:	0a00000d 	beq	829c <main+0x290>
    8264:	e3e03001 	mvn	r3, #1
    8268:	e3022fc0 	movw	r2, #12224	; 0x2fc0
    826c:	e3031130 	movw	r1, #12592	; 0x3130
    8270:	e58d0008 	str	r0, [sp, #8]
    8274:	e58d3004 	str	r3, [sp, #4]
    8278:	e3402001 	movt	r2, #1
    827c:	e300323a 	movw	r3, #570	; 0x23a
    8280:	e58d7000 	str	r7, [sp]
    8284:	e3401001 	movt	r1, #1
    8288:	e59f04a4 	ldr	r0, [pc, #1188]	; 8734 <main+0x728>
    828c:	eb0026a1 	bl	11d18 <fprintf>
    8290:	e59a3000 	ldr	r3, [sl]
    8294:	e2833001 	add	r3, r3, #1
    8298:	e58a3000 	str	r3, [sl]
    829c:	e1a00006 	mov	r0, r6
    82a0:	eb0021c0 	bl	109a8 <close>
    82a4:	e5943000 	ldr	r3, [r4]
    82a8:	e370002a 	cmn	r0, #42	; 0x2a
    82ac:	e2833001 	add	r3, r3, #1
    82b0:	e5843000 	str	r3, [r4]
    82b4:	0a00000e 	beq	82f4 <main+0x2e8>
    82b8:	e3e03029 	mvn	r3, #41	; 0x29
    82bc:	e3022fc0 	movw	r2, #12224	; 0x2fc0
    82c0:	e30311a8 	movw	r1, #12712	; 0x31a8
    82c4:	e58d0008 	str	r0, [sp, #8]
    82c8:	e58d3004 	str	r3, [sp, #4]
    82cc:	e3402001 	movt	r2, #1
    82d0:	e3a03f8f 	mov	r3, #572	; 0x23c
    82d4:	e58d7000 	str	r7, [sp]
    82d8:	e3401001 	movt	r1, #1
    82dc:	e59f0450 	ldr	r0, [pc, #1104]	; 8734 <main+0x728>
    82e0:	eb00268c 	bl	11d18 <fprintf>
    82e4:	e59a3000 	ldr	r3, [sl]
    82e8:	e3a08000 	mov	r8, #0
    82ec:	e2833001 	add	r3, r3, #1
    82f0:	e58a3000 	str	r3, [sl]
    82f4:	e3a01002 	mov	r1, #2
    82f8:	e28d0e17 	add	r0, sp, #368	; 0x170
    82fc:	eb0021a3 	bl	10990 <connect>
    8300:	e5943000 	ldr	r3, [r4]
    8304:	e3700002 	cmn	r0, #2
    8308:	e1a05000 	mov	r5, r0
    830c:	e2833001 	add	r3, r3, #1
    8310:	e5843000 	str	r3, [r4]
    8314:	0a00000e 	beq	8354 <main+0x348>
    8318:	e3e03001 	mvn	r3, #1
    831c:	e3022fc0 	movw	r2, #12224	; 0x2fc0
    8320:	e3031130 	movw	r1, #12592	; 0x3130
    8324:	e58d0008 	str	r0, [sp, #8]
    8328:	e58d3004 	str	r3, [sp, #4]
    832c:	e3402001 	movt	r2, #1
    8330:	e3a03d09 	mov	r3, #576	; 0x240
    8334:	e58d7000 	str	r7, [sp]
    8338:	e3401001 	movt	r1, #1
    833c:	e59f03f0 	ldr	r0, [pc, #1008]	; 8734 <main+0x728>
    8340:	eb002674 	bl	11d18 <fprintf>
    8344:	e59a3000 	ldr	r3, [sl]
    8348:	e3a08000 	mov	r8, #0
    834c:	e2833001 	add	r3, r3, #1
    8350:	e58a3000 	str	r3, [sl]
    8354:	e1a00005 	mov	r0, r5
    8358:	eb002192 	bl	109a8 <close>
    835c:	e5943000 	ldr	r3, [r4]
    8360:	e370002a 	cmn	r0, #42	; 0x2a
    8364:	e2833001 	add	r3, r3, #1
    8368:	e5843000 	str	r3, [r4]
    836c:	0a00000e 	beq	83ac <main+0x3a0>
    8370:	e3e03029 	mvn	r3, #41	; 0x29
    8374:	e3022fc0 	movw	r2, #12224	; 0x2fc0
    8378:	e30311a8 	movw	r1, #12712	; 0x31a8
    837c:	e58d0008 	str	r0, [sp, #8]
    8380:	e58d3004 	str	r3, [sp, #4]
    8384:	e3402001 	movt	r2, #1
    8388:	e3003242 	movw	r3, #578	; 0x242
    838c:	e58d7000 	str	r7, [sp]
    8390:	e3401001 	movt	r1, #1
    8394:	e59f0398 	ldr	r0, [pc, #920]	; 8734 <main+0x728>
    8398:	eb00265e 	bl	11d18 <fprintf>
    839c:	e59a3000 	ldr	r3, [sl]
    83a0:	e3a08000 	mov	r8, #0
    83a4:	e2833001 	add	r3, r3, #1
    83a8:	e58a3000 	str	r3, [sl]
    83ac:	e3a01003 	mov	r1, #3
    83b0:	e28d0e17 	add	r0, sp, #368	; 0x170
    83b4:	eb002175 	bl	10990 <connect>
    83b8:	e5943000 	ldr	r3, [r4]
    83bc:	e2505000 	subs	r5, r0, #0
    83c0:	e2833001 	add	r3, r3, #1
    83c4:	e5843000 	str	r3, [r4]
    83c8:	ba000c29 	blt	b474 <main+0x3468>
    83cc:	e28d30f0 	add	r3, sp, #240	; 0xf0
    83d0:	e3a02ffa 	mov	r2, #1000	; 0x3e8
    83d4:	e1a01003 	mov	r1, r3
    83d8:	e58d3024 	str	r3, [sp, #36]	; 0x24
    83dc:	eb002177 	bl	109c0 <wait>
    83e0:	e5943000 	ldr	r3, [r4]
    83e4:	e370000d 	cmn	r0, #13
    83e8:	e2833001 	add	r3, r3, #1
    83ec:	e5843000 	str	r3, [r4]
    83f0:	1a000c0f 	bne	b434 <main+0x3428>
    83f4:	e1a00005 	mov	r0, r5
    83f8:	eb00216a 	bl	109a8 <close>
    83fc:	e5943000 	ldr	r3, [r4]
    8400:	e3500000 	cmp	r0, #0
    8404:	e2833001 	add	r3, r3, #1
    8408:	e5843000 	str	r3, [r4]
    840c:	1a0009f9 	bne	abf8 <main+0x2bec>
    8410:	e3a01003 	mov	r1, #3
    8414:	e28d0e17 	add	r0, sp, #368	; 0x170
    8418:	eb00215c 	bl	10990 <connect>
    841c:	e5943000 	ldr	r3, [r4]
    8420:	e2506000 	subs	r6, r0, #0
    8424:	e2833001 	add	r3, r3, #1
    8428:	e5843000 	str	r3, [r4]
    842c:	ba000bf3 	blt	b400 <main+0x33f4>
    8430:	e3a02064 	mov	r2, #100	; 0x64
    8434:	e59d1024 	ldr	r1, [sp, #36]	; 0x24
    8438:	eb002160 	bl	109c0 <wait>
    843c:	e5943000 	ldr	r3, [r4]
    8440:	e370000d 	cmn	r0, #13
    8444:	e2833001 	add	r3, r3, #1
    8448:	e5843000 	str	r3, [r4]
    844c:	1a000bdb 	bne	b3c0 <main+0x33b4>
    8450:	e3a03001 	mov	r3, #1
    8454:	e3a02040 	mov	r2, #64	; 0x40
    8458:	e1a01003 	mov	r1, r3
    845c:	e28d0e17 	add	r0, sp, #368	; 0x170
    8460:	eb002147 	bl	10984 <port_create>
    8464:	e5943000 	ldr	r3, [r4]
    8468:	e2502000 	subs	r2, r0, #0
    846c:	e58d2014 	str	r2, [sp, #20]
    8470:	e2833001 	add	r3, r3, #1
    8474:	e5843000 	str	r3, [r4]
    8478:	ba0009ed 	blt	ac34 <main+0x2c28>
    847c:	e3a02ffa 	mov	r2, #1000	; 0x3e8
    8480:	e59d1024 	ldr	r1, [sp, #36]	; 0x24
    8484:	eb00214d 	bl	109c0 <wait>
    8488:	e5943000 	ldr	r3, [r4]
    848c:	e2505000 	subs	r5, r0, #0
    8490:	e2832001 	add	r2, r3, #1
    8494:	e5842000 	str	r2, [r4]
    8498:	1a000cce 	bne	b7d8 <main+0x37cc>
    849c:	e59d00f4 	ldr	r0, [sp, #244]	; 0xf4
    84a0:	e2833002 	add	r3, r3, #2
    84a4:	e5843000 	str	r3, [r4]
    84a8:	e3500001 	cmp	r0, #1
    84ac:	0a00000e 	beq	84ec <main+0x4e0>
    84b0:	e3a03001 	mov	r3, #1
    84b4:	e3022fc0 	movw	r2, #12224	; 0x2fc0
    84b8:	e302168c 	movw	r1, #9868	; 0x268c
    84bc:	e58d0008 	str	r0, [sp, #8]
    84c0:	e58d3004 	str	r3, [sp, #4]
    84c4:	e3402001 	movt	r2, #1
    84c8:	e300326a 	movw	r3, #618	; 0x26a
    84cc:	e58d7000 	str	r7, [sp]
    84d0:	e3401001 	movt	r1, #1
    84d4:	e59f0258 	ldr	r0, [pc, #600]	; 8734 <main+0x728>
    84d8:	eb00260e 	bl	11d18 <fprintf>
    84dc:	e59a3000 	ldr	r3, [sl]
    84e0:	e1a08005 	mov	r8, r5
    84e4:	e2833001 	add	r3, r3, #1
    84e8:	e58a3000 	str	r3, [sl]
    84ec:	e1a0100b 	mov	r1, fp
    84f0:	e59d0014 	ldr	r0, [sp, #20]
    84f4:	eb002128 	bl	1099c <accept>
    84f8:	e5943000 	ldr	r3, [r4]
    84fc:	e2505000 	subs	r5, r0, #0
    8500:	e2833001 	add	r3, r3, #1
    8504:	e5843000 	str	r3, [r4]
    8508:	aa00000c 	bge	8540 <main+0x534>
    850c:	e3022fc0 	movw	r2, #12224	; 0x2fc0
    8510:	e3031010 	movw	r1, #12304	; 0x3010
    8514:	e3003271 	movw	r3, #625	; 0x271
    8518:	e58d5004 	str	r5, [sp, #4]
    851c:	e3402001 	movt	r2, #1
    8520:	e58d7000 	str	r7, [sp]
    8524:	e3401001 	movt	r1, #1
    8528:	e59f0204 	ldr	r0, [pc, #516]	; 8734 <main+0x728>
    852c:	eb0025f9 	bl	11d18 <fprintf>
    8530:	e59a3000 	ldr	r3, [sl]
    8534:	e3a08000 	mov	r8, #0
    8538:	e2833001 	add	r3, r3, #1
    853c:	e58a3000 	str	r3, [sl]
    8540:	e1a00005 	mov	r0, r5
    8544:	eb002117 	bl	109a8 <close>
    8548:	e3a02ffa 	mov	r2, #1000	; 0x3e8
    854c:	e59d1024 	ldr	r1, [sp, #36]	; 0x24
    8550:	e1a00006 	mov	r0, r6
    8554:	eb002119 	bl	109c0 <wait>
    8558:	e5943000 	ldr	r3, [r4]
    855c:	e3500000 	cmp	r0, #0
    8560:	e2833001 	add	r3, r3, #1
    8564:	e5843000 	str	r3, [r4]
    8568:	0a00000d 	beq	85a4 <main+0x598>
    856c:	e3a08000 	mov	r8, #0
    8570:	e3022fc0 	movw	r2, #12224	; 0x2fc0
    8574:	e30310ec 	movw	r1, #12524	; 0x30ec
    8578:	e58d0008 	str	r0, [sp, #8]
    857c:	e300327d 	movw	r3, #637	; 0x27d
    8580:	e58d7000 	str	r7, [sp]
    8584:	e3402001 	movt	r2, #1
    8588:	e58d8004 	str	r8, [sp, #4]
    858c:	e3401001 	movt	r1, #1
    8590:	e59f019c 	ldr	r0, [pc, #412]	; 8734 <main+0x728>
    8594:	eb0025df 	bl	11d18 <fprintf>
    8598:	e59a3000 	ldr	r3, [sl]
    859c:	e2833001 	add	r3, r3, #1
    85a0:	e58a3000 	str	r3, [sl]
    85a4:	e59d00f4 	ldr	r0, [sp, #244]	; 0xf4
    85a8:	e5943000 	ldr	r3, [r4]
    85ac:	e3500005 	cmp	r0, #5
    85b0:	e2833001 	add	r3, r3, #1
    85b4:	e5843000 	str	r3, [r4]
    85b8:	0a00000e 	beq	85f8 <main+0x5ec>
    85bc:	e3a03005 	mov	r3, #5
    85c0:	e3022fc0 	movw	r2, #12224	; 0x2fc0
    85c4:	e302168c 	movw	r1, #9868	; 0x268c
    85c8:	e58d0008 	str	r0, [sp, #8]
    85cc:	e58d3004 	str	r3, [sp, #4]
    85d0:	e3402001 	movt	r2, #1
    85d4:	e300327e 	movw	r3, #638	; 0x27e
    85d8:	e58d7000 	str	r7, [sp]
    85dc:	e3401001 	movt	r1, #1
    85e0:	e59f014c 	ldr	r0, [pc, #332]	; 8734 <main+0x728>
    85e4:	eb0025cb 	bl	11d18 <fprintf>
    85e8:	e59a3000 	ldr	r3, [sl]
    85ec:	e3a08000 	mov	r8, #0
    85f0:	e2833001 	add	r3, r3, #1
    85f4:	e58a3000 	str	r3, [sl]
    85f8:	e59d0014 	ldr	r0, [sp, #20]
    85fc:	eb0020e9 	bl	109a8 <close>
    8600:	e1a00006 	mov	r0, r6
    8604:	eb0020e7 	bl	109a8 <close>
    8608:	e3580000 	cmp	r8, #0
    860c:	0a000996 	beq	ac6c <main+0x2c60>
    8610:	e3022fc0 	movw	r2, #12224	; 0x2fc0
    8614:	e3031180 	movw	r1, #12672	; 0x3180
    8618:	e58d9000 	str	r9, [sp]
    861c:	e3402001 	movt	r2, #1
    8620:	e3401001 	movt	r1, #1
    8624:	e3003285 	movw	r3, #645	; 0x285
    8628:	e59f0104 	ldr	r0, [pc, #260]	; 8734 <main+0x728>
    862c:	eb0025b9 	bl	11d18 <fprintf>
    8630:	e3023478 	movw	r3, #9336	; 0x2478
    8634:	e302cfc0 	movw	ip, #12224	; 0x2fc0
    8638:	e3403001 	movt	r3, #1
    863c:	e3022fc0 	movw	r2, #12224	; 0x2fc0
    8640:	e3021fd4 	movw	r1, #12244	; 0x2fd4
    8644:	e58d3030 	str	r3, [sp, #48]	; 0x30
    8648:	e58d3000 	str	r3, [sp]
    864c:	e3402001 	movt	r2, #1
    8650:	e3401001 	movt	r1, #1
    8654:	e3a03f6f 	mov	r3, #444	; 0x1bc
    8658:	e1a0500c 	mov	r5, ip
    865c:	e59f00d0 	ldr	r0, [pc, #208]	; 8734 <main+0x728>
    8660:	eb0025ac 	bl	11d18 <fprintf>
    8664:	e3033270 	movw	r3, #12912	; 0x3270
    8668:	e3022fe4 	movw	r2, #12260	; 0x2fe4
    866c:	e3021be0 	movw	r1, #11232	; 0x2be0
    8670:	e1a0c005 	mov	ip, r5
    8674:	e3403001 	movt	r3, #1
    8678:	e340c001 	movt	ip, #1
    867c:	e3402001 	movt	r2, #1
    8680:	e3401001 	movt	r1, #1
    8684:	e1a0000b 	mov	r0, fp
    8688:	e3a08001 	mov	r8, #1
    868c:	e28d9f6b 	add	r9, sp, #428	; 0x1ac
    8690:	e58dc014 	str	ip, [sp, #20]
    8694:	eb002585 	bl	11cb0 <sprintf>
    8698:	e3a0307e 	mov	r3, #126	; 0x7e
    869c:	e58d301c 	str	r3, [sp, #28]
    86a0:	e3033010 	movw	r3, #12304	; 0x3010
    86a4:	e28d6f5b 	add	r6, sp, #364	; 0x16c
    86a8:	e3403001 	movt	r3, #1
    86ac:	e1a05006 	mov	r5, r6
    86b0:	e58d6020 	str	r6, [sp, #32]
    86b4:	e1a06003 	mov	r6, r3
    86b8:	ea000002 	b	86c8 <main+0x6bc>
    86bc:	e5a57004 	str	r7, [r5, #4]!
    86c0:	e1590005 	cmp	r9, r5
    86c4:	0a000016 	beq	8724 <main+0x718>
    86c8:	e3a01ffa 	mov	r1, #1000	; 0x3e8
    86cc:	e1a0000b 	mov	r0, fp
    86d0:	eb000ea1 	bl	c15c <sync_connect>
    86d4:	e5943000 	ldr	r3, [r4]
    86d8:	e2507000 	subs	r7, r0, #0
    86dc:	e2833001 	add	r3, r3, #1
    86e0:	e5843000 	str	r3, [r4]
    86e4:	aafffff4 	bge	86bc <main+0x6b0>
    86e8:	e59d2018 	ldr	r2, [sp, #24]
    86ec:	e30031c5 	movw	r3, #453	; 0x1c5
    86f0:	e58d7004 	str	r7, [sp, #4]
    86f4:	e1a01006 	mov	r1, r6
    86f8:	e59f0034 	ldr	r0, [pc, #52]	; 8734 <main+0x728>
    86fc:	e3a08000 	mov	r8, #0
    8700:	e58d2000 	str	r2, [sp]
    8704:	e59d2014 	ldr	r2, [sp, #20]
    8708:	eb002582 	bl	11d18 <fprintf>
    870c:	e59a3000 	ldr	r3, [sl]
    8710:	e5a57004 	str	r7, [r5, #4]!
    8714:	e1590005 	cmp	r9, r5
    8718:	e2833001 	add	r3, r3, #1
    871c:	e58a3000 	str	r3, [sl]
    8720:	1affffe8 	bne	86c8 <main+0x6bc>
    8724:	e30370ec 	movw	r7, #12524	; 0x30ec
    8728:	e59d6020 	ldr	r6, [sp, #32]
    872c:	e3407001 	movt	r7, #1
    8730:	ea000002 	b	8740 <main+0x734>
    8734:	00014048 	.word	0x00014048
    8738:	e1560005 	cmp	r6, r5
    873c:	0a000015 	beq	8798 <main+0x78c>
    8740:	e5b60004 	ldr	r0, [r6, #4]!
    8744:	eb002097 	bl	109a8 <close>
    8748:	e5943000 	ldr	r3, [r4]
    874c:	e3500000 	cmp	r0, #0
    8750:	e2833001 	add	r3, r3, #1
    8754:	e5843000 	str	r3, [r4]
    8758:	0afffff6 	beq	8738 <main+0x72c>
    875c:	e59d3018 	ldr	r3, [sp, #24]
    8760:	e3a08000 	mov	r8, #0
    8764:	e58d0008 	str	r0, [sp, #8]
    8768:	e1a01007 	mov	r1, r7
    876c:	e58d8004 	str	r8, [sp, #4]
    8770:	e58d3000 	str	r3, [sp]
    8774:	e30031cb 	movw	r3, #459	; 0x1cb
    8778:	e59d2014 	ldr	r2, [sp, #20]
    877c:	e51f0050 	ldr	r0, [pc, #-80]	; 8734 <main+0x728>
    8780:	eb002564 	bl	11d18 <fprintf>
    8784:	e59a3000 	ldr	r3, [sl]
    8788:	e1560005 	cmp	r6, r5
    878c:	e2833001 	add	r3, r3, #1
    8790:	e58a3000 	str	r3, [sl]
    8794:	1affffe9 	bne	8740 <main+0x734>
    8798:	e59d301c 	ldr	r3, [sp, #28]
    879c:	e2533001 	subs	r3, r3, #1
    87a0:	e58d301c 	str	r3, [sp, #28]
    87a4:	1affffbd 	bne	86a0 <main+0x694>
    87a8:	e3580000 	cmp	r8, #0
    87ac:	e3022fc0 	movw	r2, #12224	; 0x2fc0
    87b0:	159d3030 	ldrne	r3, [sp, #48]	; 0x30
    87b4:	13031180 	movwne	r1, #12672	; 0x3180
    87b8:	059d3030 	ldreq	r3, [sp, #48]	; 0x30
    87bc:	03031194 	movweq	r1, #12692	; 0x3194
    87c0:	13402001 	movtne	r2, #1
    87c4:	13401001 	movtne	r1, #1
    87c8:	158d3000 	strne	r3, [sp]
    87cc:	03402001 	movteq	r2, #1
    87d0:	058d3000 	streq	r3, [sp]
    87d4:	03401001 	movteq	r1, #1
    87d8:	e30031cf 	movw	r3, #463	; 0x1cf
    87dc:	e51f00b0 	ldr	r0, [pc, #-176]	; 8734 <main+0x728>
    87e0:	e302955c 	movw	r9, #9564	; 0x255c
    87e4:	eb00254b 	bl	11d18 <fprintf>
    87e8:	e3409001 	movt	r9, #1
    87ec:	eb000e78 	bl	c1d4 <run_accept_test>
    87f0:	e3022fc0 	movw	r2, #12224	; 0x2fc0
    87f4:	e3021fd4 	movw	r1, #12244	; 0x2fd4
    87f8:	e3402001 	movt	r2, #1
    87fc:	e300340c 	movw	r3, #1036	; 0x40c
    8800:	e58d9000 	str	r9, [sp]
    8804:	e3401001 	movt	r1, #1
    8808:	e51f00dc 	ldr	r0, [pc, #-220]	; 8734 <main+0x728>
    880c:	eb002541 	bl	11d18 <fprintf>
    8810:	e1a0200b 	mov	r2, fp
    8814:	e3a03055 	mov	r3, #85	; 0x55
    8818:	e28d1e17 	add	r1, sp, #368	; 0x170
    881c:	e4c23001 	strb	r3, [r2], #1
    8820:	e1520001 	cmp	r2, r1
    8824:	e2833001 	add	r3, r3, #1
    8828:	e6ef3073 	uxtb	r3, r3
    882c:	1afffff9 	bne	8818 <main+0x80c>
    8830:	e1a02001 	mov	r2, r1
    8834:	e3a03044 	mov	r3, #68	; 0x44
    8838:	e28d1e1b 	add	r1, sp, #432	; 0x1b0
    883c:	e4c23001 	strb	r3, [r2], #1
    8840:	e1520001 	cmp	r2, r1
    8844:	e2833001 	add	r3, r3, #1
    8848:	e6ef3073 	uxtb	r3, r3
    884c:	1afffffa 	bne	883c <main+0x830>
    8850:	e59d5024 	ldr	r5, [sp, #36]	; 0x24
    8854:	e3a0c040 	mov	ip, #64	; 0x40
    8858:	e3a00000 	mov	r0, #0
    885c:	e28dee17 	add	lr, sp, #368	; 0x170
    8860:	e3033270 	movw	r3, #12912	; 0x3270
    8864:	e3022fe4 	movw	r2, #12260	; 0x2fe4
    8868:	e3021be0 	movw	r1, #11232	; 0x2be0
    886c:	e3403001 	movt	r3, #1
    8870:	e3402001 	movt	r2, #1
    8874:	e3401001 	movt	r1, #1
    8878:	e58de098 	str	lr, [sp, #152]	; 0x98
    887c:	e3a0e002 	mov	lr, #2
    8880:	e58dc094 	str	ip, [sp, #148]	; 0x94
    8884:	e58dc09c 	str	ip, [sp, #156]	; 0x9c
    8888:	e28dc090 	add	ip, sp, #144	; 0x90
    888c:	e58d00a8 	str	r0, [sp, #168]	; 0xa8
    8890:	e58d00ac 	str	r0, [sp, #172]	; 0xac
    8894:	e1a00005 	mov	r0, r5
    8898:	e58de0a0 	str	lr, [sp, #160]	; 0xa0
    889c:	e58dc0a4 	str	ip, [sp, #164]	; 0xa4
    88a0:	e58db090 	str	fp, [sp, #144]	; 0x90
    88a4:	eb002501 	bl	11cb0 <sprintf>
    88a8:	e3a01ffa 	mov	r1, #1000	; 0x3e8
    88ac:	e1a00005 	mov	r0, r5
    88b0:	eb000e29 	bl	c15c <sync_connect>
    88b4:	e5943000 	ldr	r3, [r4]
    88b8:	e2506000 	subs	r6, r0, #0
    88bc:	e2833001 	add	r3, r3, #1
    88c0:	e5843000 	str	r3, [r4]
    88c4:	ba000b2b 	blt	b578 <main+0x356c>
    88c8:	e30236dc 	movw	r3, #9948	; 0x26dc
    88cc:	e3022fc0 	movw	r2, #12224	; 0x2fc0
    88d0:	e3403001 	movt	r3, #1
    88d4:	e30310ec 	movw	r1, #12524	; 0x30ec
    88d8:	e3028710 	movw	r8, #10000	; 0x2710
    88dc:	e58d3014 	str	r3, [sp, #20]
    88e0:	e3402001 	movt	r2, #1
    88e4:	e3401001 	movt	r1, #1
    88e8:	e28d30a0 	add	r3, sp, #160	; 0xa0
    88ec:	e58d201c 	str	r2, [sp, #28]
    88f0:	e58d1030 	str	r1, [sp, #48]	; 0x30
    88f4:	e58d3020 	str	r3, [sp, #32]
    88f8:	e59d1020 	ldr	r1, [sp, #32]
    88fc:	e1a00006 	mov	r0, r6
    8900:	eb00203d 	bl	109fc <send_msg>
    8904:	e1a07000 	mov	r7, r0
    8908:	e28d1064 	add	r1, sp, #100	; 0x64
    890c:	e3770009 	cmn	r7, #9
    8910:	e1a00006 	mov	r0, r6
    8914:	e3a02ffa 	mov	r2, #1000	; 0x3e8
    8918:	1a000914 	bne	ad70 <main+0x2d64>
    891c:	eb002027 	bl	109c0 <wait>
    8920:	e5943000 	ldr	r3, [r4]
    8924:	e3a05001 	mov	r5, #1
    8928:	e2507000 	subs	r7, r0, #0
    892c:	e0833005 	add	r3, r3, r5
    8930:	e5843000 	str	r3, [r4]
    8934:	1a0008ea 	bne	ace4 <main+0x2cd8>
    8938:	e59d0064 	ldr	r0, [sp, #100]	; 0x64
    893c:	e2832001 	add	r2, r3, #1
    8940:	e5842000 	str	r2, [r4]
    8944:	e2833002 	add	r3, r3, #2
    8948:	e1560000 	cmp	r6, r0
    894c:	0a0008cf 	beq	ac90 <main+0x2c84>
    8950:	e30256dc 	movw	r5, #9948	; 0x26dc
    8954:	e3022fc0 	movw	r2, #12224	; 0x2fc0
    8958:	e3405001 	movt	r5, #1
    895c:	e3021e9c 	movw	r1, #11932	; 0x2e9c
    8960:	e58d0008 	str	r0, [sp, #8]
    8964:	e3402001 	movt	r2, #1
    8968:	e3003429 	movw	r3, #1065	; 0x429
    896c:	e58d6004 	str	r6, [sp, #4]
    8970:	e3401001 	movt	r1, #1
    8974:	e58d5000 	str	r5, [sp]
    8978:	e51f024c 	ldr	r0, [pc, #-588]	; 8734 <main+0x728>
    897c:	eb0024e5 	bl	11d18 <fprintf>
    8980:	e59d0068 	ldr	r0, [sp, #104]	; 0x68
    8984:	e59a2000 	ldr	r2, [sl]
    8988:	e5943000 	ldr	r3, [r4]
    898c:	e3500010 	cmp	r0, #16
    8990:	e2822001 	add	r2, r2, #1
    8994:	e2833001 	add	r3, r3, #1
    8998:	e58a2000 	str	r2, [sl]
    899c:	e5843000 	str	r3, [r4]
    89a0:	1a0008c0 	bne	aca8 <main+0x2c9c>
    89a4:	e3022fc0 	movw	r2, #12224	; 0x2fc0
    89a8:	e3021740 	movw	r1, #10048	; 0x2740
    89ac:	e300342f 	movw	r3, #1071	; 0x42f
    89b0:	e3402001 	movt	r2, #1
    89b4:	e3401001 	movt	r1, #1
    89b8:	e58d7004 	str	r7, [sp, #4]
    89bc:	e58d9000 	str	r9, [sp]
    89c0:	e51f0294 	ldr	r0, [pc, #-660]	; 8734 <main+0x728>
    89c4:	eb0024d3 	bl	11d18 <fprintf>
    89c8:	e1a00006 	mov	r0, r6
    89cc:	eb001ff5 	bl	109a8 <close>
    89d0:	e5943000 	ldr	r3, [r4]
    89d4:	e3500000 	cmp	r0, #0
    89d8:	e2833001 	add	r3, r3, #1
    89dc:	e5843000 	str	r3, [r4]
    89e0:	1a000b02 	bne	b5f0 <main+0x35e4>
    89e4:	e3022fc0 	movw	r2, #12224	; 0x2fc0
    89e8:	e3031194 	movw	r1, #12692	; 0x3194
    89ec:	e58d9000 	str	r9, [sp]
    89f0:	e3402001 	movt	r2, #1
    89f4:	e3401001 	movt	r1, #1
    89f8:	e3003437 	movw	r3, #1079	; 0x437
    89fc:	e51f02d0 	ldr	r0, [pc, #-720]	; 8734 <main+0x728>
    8a00:	eb0024c4 	bl	11d18 <fprintf>
    8a04:	eb000fc6 	bl	c924 <run_end_to_end_msg_test>
    8a08:	e3020764 	movw	r0, #10084	; 0x2764
    8a0c:	e30294c8 	movw	r9, #9416	; 0x24c8
    8a10:	e3400001 	movt	r0, #1
    8a14:	e3a05000 	mov	r5, #0
    8a18:	eb0011e6 	bl	d1b8 <run_connect_close_by_peer_test>
    8a1c:	e302076c 	movw	r0, #10092	; 0x276c
    8a20:	e3409001 	movt	r9, #1
    8a24:	e3400001 	movt	r0, #1
    8a28:	e302777c 	movw	r7, #10108	; 0x277c
    8a2c:	eb0011e1 	bl	d1b8 <run_connect_close_by_peer_test>
    8a30:	e3020774 	movw	r0, #10100	; 0x2774
    8a34:	e3407001 	movt	r7, #1
    8a38:	e3400001 	movt	r0, #1
    8a3c:	eb0011dd 	bl	d1b8 <run_connect_close_by_peer_test>
    8a40:	e59dc024 	ldr	ip, [sp, #36]	; 0x24
    8a44:	e3022fc0 	movw	r2, #12224	; 0x2fc0
    8a48:	e3021fd4 	movw	r1, #12244	; 0x2fd4
    8a4c:	e58d9000 	str	r9, [sp]
    8a50:	e3402001 	movt	r2, #1
    8a54:	e3401001 	movt	r1, #1
    8a58:	e58c5000 	str	r5, [ip]
    8a5c:	e3003291 	movw	r3, #657	; 0x291
    8a60:	e58c5004 	str	r5, [ip, #4]
    8a64:	e58c5008 	str	r5, [ip, #8]
    8a68:	e58c500c 	str	r5, [ip, #12]
    8a6c:	e51f0340 	ldr	r0, [pc, #-832]	; 8734 <main+0x728>
    8a70:	e58b5000 	str	r5, [fp]
    8a74:	e58b5004 	str	r5, [fp, #4]
    8a78:	e58b5008 	str	r5, [fp, #8]
    8a7c:	e58b500c 	str	r5, [fp, #12]
    8a80:	eb0024a4 	bl	11d18 <fprintf>
    8a84:	e3022fe4 	movw	r2, #12260	; 0x2fe4
    8a88:	e303127c 	movw	r1, #12924	; 0x327c
    8a8c:	e1a03007 	mov	r3, r7
    8a90:	e3402001 	movt	r2, #1
    8a94:	e3401001 	movt	r1, #1
    8a98:	e28d0e17 	add	r0, sp, #368	; 0x170
    8a9c:	eb002483 	bl	11cb0 <sprintf>
    8aa0:	e3a03001 	mov	r3, #1
    8aa4:	e3a02a01 	mov	r2, #4096	; 0x1000
    8aa8:	e3a01002 	mov	r1, #2
    8aac:	e28d0e17 	add	r0, sp, #368	; 0x170
    8ab0:	eb001fb3 	bl	10984 <port_create>
    8ab4:	e5943000 	ldr	r3, [r4]
    8ab8:	e2506000 	subs	r6, r0, #0
    8abc:	e2833001 	add	r3, r3, #1
    8ac0:	e5843000 	str	r3, [r4]
    8ac4:	ba000abc 	blt	b5bc <main+0x35b0>
    8ac8:	e3a01ffa 	mov	r1, #1000	; 0x3e8
    8acc:	e28d0e17 	add	r0, sp, #368	; 0x170
    8ad0:	eb000da1 	bl	c15c <sync_connect>
    8ad4:	e5943000 	ldr	r3, [r4]
    8ad8:	e370000d 	cmn	r0, #13
    8adc:	03a05001 	moveq	r5, #1
    8ae0:	e2833001 	add	r3, r3, #1
    8ae4:	e5843000 	str	r3, [r4]
    8ae8:	0a00000d 	beq	8b24 <main+0xb18>
    8aec:	e3e0300c 	mvn	r3, #12
    8af0:	e3022fc0 	movw	r2, #12224	; 0x2fc0
    8af4:	e3031438 	movw	r1, #13368	; 0x3438
    8af8:	e58d0008 	str	r0, [sp, #8]
    8afc:	e58d3004 	str	r3, [sp, #4]
    8b00:	e3402001 	movt	r2, #1
    8b04:	e3a03fa9 	mov	r3, #676	; 0x2a4
    8b08:	e58d7000 	str	r7, [sp]
    8b0c:	e3401001 	movt	r1, #1
    8b10:	e51f03e4 	ldr	r0, [pc, #-996]	; 8734 <main+0x728>
    8b14:	eb00247f 	bl	11d18 <fprintf>
    8b18:	e59a3000 	ldr	r3, [sl]
    8b1c:	e2833001 	add	r3, r3, #1
    8b20:	e58a3000 	str	r3, [sl]
    8b24:	e3a01000 	mov	r1, #0
    8b28:	e28d0e17 	add	r0, sp, #368	; 0x170
    8b2c:	eb000d8a 	bl	c15c <sync_connect>
    8b30:	e5943000 	ldr	r3, [r4]
    8b34:	e370000d 	cmn	r0, #13
    8b38:	e2833001 	add	r3, r3, #1
    8b3c:	e5843000 	str	r3, [r4]
    8b40:	0a00000e 	beq	8b80 <main+0xb74>
    8b44:	e3e0300c 	mvn	r3, #12
    8b48:	e3022fc0 	movw	r2, #12224	; 0x2fc0
    8b4c:	e3031438 	movw	r1, #13368	; 0x3438
    8b50:	e58d0008 	str	r0, [sp, #8]
    8b54:	e58d3004 	str	r3, [sp, #4]
    8b58:	e3402001 	movt	r2, #1
    8b5c:	e3a03faa 	mov	r3, #680	; 0x2a8
    8b60:	e58d7000 	str	r7, [sp]
    8b64:	e3401001 	movt	r1, #1
    8b68:	e51f043c 	ldr	r0, [pc, #-1084]	; 8734 <main+0x728>
    8b6c:	eb002469 	bl	11d18 <fprintf>
    8b70:	e59a3000 	ldr	r3, [sl]
    8b74:	e3a05000 	mov	r5, #0
    8b78:	e2833001 	add	r3, r3, #1
    8b7c:	e58a3000 	str	r3, [sl]
    8b80:	e3e01000 	mvn	r1, #0
    8b84:	e59d0020 	ldr	r0, [sp, #32]
    8b88:	eb001f8f 	bl	109cc <wait_any>
    8b8c:	e5943000 	ldr	r3, [r4]
    8b90:	e2508000 	subs	r8, r0, #0
    8b94:	e2833001 	add	r3, r3, #1
    8b98:	e5843000 	str	r3, [r4]
    8b9c:	0a00000f 	beq	8be0 <main+0xbd4>
    8ba0:	e3023784 	movw	r3, #10116	; 0x2784
    8ba4:	e3a05000 	mov	r5, #0
    8ba8:	e3403001 	movt	r3, #1
    8bac:	e3022fc0 	movw	r2, #12224	; 0x2fc0
    8bb0:	e30310ec 	movw	r1, #12524	; 0x30ec
    8bb4:	e58d3000 	str	r3, [sp]
    8bb8:	e58d8008 	str	r8, [sp, #8]
    8bbc:	e30032b2 	movw	r3, #690	; 0x2b2
    8bc0:	e3402001 	movt	r2, #1
    8bc4:	e58d5004 	str	r5, [sp, #4]
    8bc8:	e3401001 	movt	r1, #1
    8bcc:	e51f04a0 	ldr	r0, [pc, #-1184]	; 8734 <main+0x728>
    8bd0:	eb002450 	bl	11d18 <fprintf>
    8bd4:	e59a3000 	ldr	r3, [sl]
    8bd8:	e2833001 	add	r3, r3, #1
    8bdc:	e58a3000 	str	r3, [sl]
    8be0:	e59d00a0 	ldr	r0, [sp, #160]	; 0xa0
    8be4:	e5943000 	ldr	r3, [r4]
    8be8:	e1560000 	cmp	r6, r0
    8bec:	e2833001 	add	r3, r3, #1
    8bf0:	e5843000 	str	r3, [r4]
    8bf4:	0a00000f 	beq	8c38 <main+0xc2c>
    8bf8:	e3023784 	movw	r3, #10116	; 0x2784
    8bfc:	e3022fc0 	movw	r2, #12224	; 0x2fc0
    8c00:	e3403001 	movt	r3, #1
    8c04:	e3021794 	movw	r1, #10132	; 0x2794
    8c08:	e58d0008 	str	r0, [sp, #8]
    8c0c:	e3402001 	movt	r2, #1
    8c10:	e58d3000 	str	r3, [sp]
    8c14:	e3401001 	movt	r1, #1
    8c18:	e30032b3 	movw	r3, #691	; 0x2b3
    8c1c:	e58d6004 	str	r6, [sp, #4]
    8c20:	e51f04f4 	ldr	r0, [pc, #-1268]	; 8734 <main+0x728>
    8c24:	e3a05000 	mov	r5, #0
    8c28:	eb00243a 	bl	11d18 <fprintf>
    8c2c:	e59a3000 	ldr	r3, [sl]
    8c30:	e2833001 	add	r3, r3, #1
    8c34:	e58a3000 	str	r3, [sl]
    8c38:	e59d00a4 	ldr	r0, [sp, #164]	; 0xa4
    8c3c:	e5943000 	ldr	r3, [r4]
    8c40:	e3500001 	cmp	r0, #1
    8c44:	e2833001 	add	r3, r3, #1
    8c48:	e5843000 	str	r3, [r4]
    8c4c:	0a000942 	beq	b15c <main+0x3150>
    8c50:	e3023784 	movw	r3, #10116	; 0x2784
    8c54:	e3a0c001 	mov	ip, #1
    8c58:	e3403001 	movt	r3, #1
    8c5c:	e3022fc0 	movw	r2, #12224	; 0x2fc0
    8c60:	e302168c 	movw	r1, #9868	; 0x268c
    8c64:	e58d0008 	str	r0, [sp, #8]
    8c68:	e58d3000 	str	r3, [sp]
    8c6c:	e3402001 	movt	r2, #1
    8c70:	e3a03fad 	mov	r3, #692	; 0x2b4
    8c74:	e58dc004 	str	ip, [sp, #4]
    8c78:	e3401001 	movt	r1, #1
    8c7c:	e51f0550 	ldr	r0, [pc, #-1360]	; 8734 <main+0x728>
    8c80:	eb002424 	bl	11d18 <fprintf>
    8c84:	e59a3000 	ldr	r3, [sl]
    8c88:	e3580000 	cmp	r8, #0
    8c8c:	13a05000 	movne	r5, #0
    8c90:	e2833001 	add	r3, r3, #1
    8c94:	e58a3000 	str	r3, [sl]
    8c98:	1a000003 	bne	8cac <main+0xca0>
    8c9c:	e59d30a4 	ldr	r3, [sp, #164]	; 0xa4
    8ca0:	e1a05008 	mov	r5, r8
    8ca4:	e3130001 	tst	r3, #1
    8ca8:	1a00092d 	bne	b164 <main+0x3158>
    8cac:	e3a01000 	mov	r1, #0
    8cb0:	e28d0e17 	add	r0, sp, #368	; 0x170
    8cb4:	eb000d28 	bl	c15c <sync_connect>
    8cb8:	e5943000 	ldr	r3, [r4]
    8cbc:	e370000d 	cmn	r0, #13
    8cc0:	e2833001 	add	r3, r3, #1
    8cc4:	e5843000 	str	r3, [r4]
    8cc8:	0a00000e 	beq	8d08 <main+0xcfc>
    8ccc:	e3e0300c 	mvn	r3, #12
    8cd0:	e3022fc0 	movw	r2, #12224	; 0x2fc0
    8cd4:	e3031438 	movw	r1, #13368	; 0x3438
    8cd8:	e58d0008 	str	r0, [sp, #8]
    8cdc:	e58d3004 	str	r3, [sp, #4]
    8ce0:	e3402001 	movt	r2, #1
    8ce4:	e30032d1 	movw	r3, #721	; 0x2d1
    8ce8:	e58d7000 	str	r7, [sp]
    8cec:	e3401001 	movt	r1, #1
    8cf0:	e51f05c4 	ldr	r0, [pc, #-1476]	; 8734 <main+0x728>
    8cf4:	eb002407 	bl	11d18 <fprintf>
    8cf8:	e59a3000 	ldr	r3, [sl]
    8cfc:	e3a05000 	mov	r5, #0
    8d00:	e2833001 	add	r3, r3, #1
    8d04:	e58a3000 	str	r3, [sl]
    8d08:	e3a01000 	mov	r1, #0
    8d0c:	e28d0e17 	add	r0, sp, #368	; 0x170
    8d10:	eb000d11 	bl	c15c <sync_connect>
    8d14:	e5943000 	ldr	r3, [r4]
    8d18:	e370000d 	cmn	r0, #13
    8d1c:	e2833001 	add	r3, r3, #1
    8d20:	e5843000 	str	r3, [r4]
    8d24:	0a0008fa 	beq	b114 <main+0x3108>
    8d28:	e3e0300c 	mvn	r3, #12
    8d2c:	e3022fc0 	movw	r2, #12224	; 0x2fc0
    8d30:	e3031438 	movw	r1, #13368	; 0x3438
    8d34:	e58d0008 	str	r0, [sp, #8]
    8d38:	e3402001 	movt	r2, #1
    8d3c:	e58d3004 	str	r3, [sp, #4]
    8d40:	e3401001 	movt	r1, #1
    8d44:	e3a03fb5 	mov	r3, #724	; 0x2d4
    8d48:	e58d7000 	str	r7, [sp]
    8d4c:	e51f0620 	ldr	r0, [pc, #-1568]	; 8734 <main+0x728>
    8d50:	eb0023f0 	bl	11d18 <fprintf>
    8d54:	e59a3000 	ldr	r3, [sl]
    8d58:	e1a00006 	mov	r0, r6
    8d5c:	e2833001 	add	r3, r3, #1
    8d60:	e58a3000 	str	r3, [sl]
    8d64:	eb001f0f 	bl	109a8 <close>
    8d68:	e5943000 	ldr	r3, [r4]
    8d6c:	e3500000 	cmp	r0, #0
    8d70:	e2833001 	add	r3, r3, #1
    8d74:	e5843000 	str	r3, [r4]
    8d78:	1a0009cd 	bne	b4b4 <main+0x34a8>
    8d7c:	e3022fc0 	movw	r2, #12224	; 0x2fc0
    8d80:	e3031194 	movw	r1, #12692	; 0x3194
    8d84:	e58d9000 	str	r9, [sp]
    8d88:	e3402001 	movt	r2, #1
    8d8c:	e3401001 	movt	r1, #1
    8d90:	e30032db 	movw	r3, #731	; 0x2db
    8d94:	e51f0668 	ldr	r0, [pc, #-1640]	; 8734 <main+0x728>
    8d98:	eb0023de 	bl	11d18 <fprintf>
    8d9c:	e30264e0 	movw	r6, #9440	; 0x24e0
    8da0:	e3022fc0 	movw	r2, #12224	; 0x2fc0
    8da4:	e3406001 	movt	r6, #1
    8da8:	e3021fd4 	movw	r1, #12244	; 0x2fd4
    8dac:	e3402001 	movt	r2, #1
    8db0:	e3401001 	movt	r1, #1
    8db4:	e30032e3 	movw	r3, #739	; 0x2e3
    8db8:	e58d6000 	str	r6, [sp]
    8dbc:	e51f0690 	ldr	r0, [pc, #-1680]	; 8734 <main+0x728>
    8dc0:	eb0023d4 	bl	11d18 <fprintf>
    8dc4:	e3023824 	movw	r3, #10276	; 0x2824
    8dc8:	e3022fe4 	movw	r2, #12260	; 0x2fe4
    8dcc:	e3021be0 	movw	r1, #11232	; 0x2be0
    8dd0:	e3403001 	movt	r3, #1
    8dd4:	e3402001 	movt	r2, #1
    8dd8:	e3401001 	movt	r1, #1
    8ddc:	e28d0e17 	add	r0, sp, #368	; 0x170
    8de0:	eb0023b2 	bl	11cb0 <sprintf>
    8de4:	e3a01ffa 	mov	r1, #1000	; 0x3e8
    8de8:	e28d0e17 	add	r0, sp, #368	; 0x170
    8dec:	eb000cda 	bl	c15c <sync_connect>
    8df0:	e5943000 	ldr	r3, [r4]
    8df4:	e370002b 	cmn	r0, #43	; 0x2b
    8df8:	e1a05000 	mov	r5, r0
    8dfc:	e2833001 	add	r3, r3, #1
    8e00:	e5843000 	str	r3, [r4]
    8e04:	0a00084d 	beq	af40 <main+0x2f34>
    8e08:	e302386c 	movw	r3, #10348	; 0x286c
    8e0c:	e3e0002a 	mvn	r0, #42	; 0x2a
    8e10:	e3403001 	movt	r3, #1
    8e14:	e3022fc0 	movw	r2, #12224	; 0x2fc0
    8e18:	e302182c 	movw	r1, #10284	; 0x282c
    8e1c:	e58d3000 	str	r3, [sp]
    8e20:	e58d0004 	str	r0, [sp, #4]
    8e24:	e30032ea 	movw	r3, #746	; 0x2ea
    8e28:	e58d5008 	str	r5, [sp, #8]
    8e2c:	e3402001 	movt	r2, #1
    8e30:	e3401001 	movt	r1, #1
    8e34:	e51f0708 	ldr	r0, [pc, #-1800]	; 8734 <main+0x728>
    8e38:	eb0023b6 	bl	11d18 <fprintf>
    8e3c:	e59a3000 	ldr	r3, [sl]
    8e40:	e3550000 	cmp	r5, #0
    8e44:	e2833001 	add	r3, r3, #1
    8e48:	e58a3000 	str	r3, [sl]
    8e4c:	ba000001 	blt	8e58 <main+0xe4c>
    8e50:	e1a00005 	mov	r0, r5
    8e54:	eb001ed3 	bl	109a8 <close>
    8e58:	e3023bac 	movw	r3, #11180	; 0x2bac
    8e5c:	e3022fe4 	movw	r2, #12260	; 0x2fe4
    8e60:	e3021be0 	movw	r1, #11232	; 0x2be0
    8e64:	e3403001 	movt	r3, #1
    8e68:	e3402001 	movt	r2, #1
    8e6c:	e3401001 	movt	r1, #1
    8e70:	e28d0e17 	add	r0, sp, #368	; 0x170
    8e74:	eb00238d 	bl	11cb0 <sprintf>
    8e78:	e3a01ffa 	mov	r1, #1000	; 0x3e8
    8e7c:	e28d0e17 	add	r0, sp, #368	; 0x170
    8e80:	eb000cb5 	bl	c15c <sync_connect>
    8e84:	e5943000 	ldr	r3, [r4]
    8e88:	e250c000 	subs	ip, r0, #0
    8e8c:	e2833001 	add	r3, r3, #1
    8e90:	e5843000 	str	r3, [r4]
    8e94:	ba000a16 	blt	b6f4 <main+0x36e8>
    8e98:	eb001ec2 	bl	109a8 <close>
    8e9c:	e3022fc0 	movw	r2, #12224	; 0x2fc0
    8ea0:	e3031194 	movw	r1, #12692	; 0x3194
    8ea4:	e58d6000 	str	r6, [sp]
    8ea8:	e3402001 	movt	r2, #1
    8eac:	e3401001 	movt	r1, #1
    8eb0:	e30032f9 	movw	r3, #761	; 0x2f9
    8eb4:	e51f0788 	ldr	r0, [pc, #-1928]	; 8734 <main+0x728>
    8eb8:	eb002396 	bl	11d18 <fprintf>
    8ebc:	e30233b4 	movw	r3, #9140	; 0x23b4
    8ec0:	e3022fc0 	movw	r2, #12224	; 0x2fc0
    8ec4:	e3403001 	movt	r3, #1
    8ec8:	e3021fd4 	movw	r1, #12244	; 0x2fd4
    8ecc:	e58d301c 	str	r3, [sp, #28]
    8ed0:	e3402001 	movt	r2, #1
    8ed4:	e58d3000 	str	r3, [sp]
    8ed8:	e3401001 	movt	r1, #1
    8edc:	e3a030a8 	mov	r3, #168	; 0xa8
    8ee0:	e51f07b4 	ldr	r0, [pc, #-1972]	; 8734 <main+0x728>
    8ee4:	eb00238b 	bl	11d18 <fprintf>
    8ee8:	e3a02ffa 	mov	r2, #1000	; 0x3e8
    8eec:	e28d1e17 	add	r1, sp, #368	; 0x170
    8ef0:	e3e00000 	mvn	r0, #0
    8ef4:	eb001eb1 	bl	109c0 <wait>
    8ef8:	e5943000 	ldr	r3, [r4]
    8efc:	e370002a 	cmn	r0, #42	; 0x2a
    8f00:	03a08001 	moveq	r8, #1
    8f04:	e2833001 	add	r3, r3, #1
    8f08:	e5843000 	str	r3, [r4]
    8f0c:	0a000010 	beq	8f54 <main+0xf48>
    8f10:	e3023894 	movw	r3, #10388	; 0x2894
    8f14:	e3e0c029 	mvn	ip, #41	; 0x29
    8f18:	e3403001 	movt	r3, #1
    8f1c:	e3022fc0 	movw	r2, #12224	; 0x2fc0
    8f20:	e30311a8 	movw	r1, #12712	; 0x31a8
    8f24:	e58d0008 	str	r0, [sp, #8]
    8f28:	e58d3000 	str	r3, [sp]
    8f2c:	e3402001 	movt	r2, #1
    8f30:	e3a030ac 	mov	r3, #172	; 0xac
    8f34:	e58dc004 	str	ip, [sp, #4]
    8f38:	e3401001 	movt	r1, #1
    8f3c:	e51f0810 	ldr	r0, [pc, #-2064]	; 8734 <main+0x728>
    8f40:	eb002374 	bl	11d18 <fprintf>
    8f44:	e59a3000 	ldr	r3, [sl]
    8f48:	e3a08000 	mov	r8, #0
    8f4c:	e2833001 	add	r3, r3, #1
    8f50:	e58a3000 	str	r3, [sl]
    8f54:	e3a02ffa 	mov	r2, #1000	; 0x3e8
    8f58:	e28d1e17 	add	r1, sp, #368	; 0x170
    8f5c:	e3a00080 	mov	r0, #128	; 0x80
    8f60:	eb001e96 	bl	109c0 <wait>
    8f64:	e5943000 	ldr	r3, [r4]
    8f68:	e370002a 	cmn	r0, #42	; 0x2a
    8f6c:	e2833001 	add	r3, r3, #1
    8f70:	e5843000 	str	r3, [r4]
    8f74:	0a000010 	beq	8fbc <main+0xfb0>
    8f78:	e3023894 	movw	r3, #10388	; 0x2894
    8f7c:	e3e0c029 	mvn	ip, #41	; 0x29
    8f80:	e3403001 	movt	r3, #1
    8f84:	e3022fc0 	movw	r2, #12224	; 0x2fc0
    8f88:	e30311a8 	movw	r1, #12712	; 0x31a8
    8f8c:	e58d0008 	str	r0, [sp, #8]
    8f90:	e58d3000 	str	r3, [sp]
    8f94:	e3402001 	movt	r2, #1
    8f98:	e3a030b0 	mov	r3, #176	; 0xb0
    8f9c:	e58dc004 	str	ip, [sp, #4]
    8fa0:	e3401001 	movt	r1, #1
    8fa4:	e51f0878 	ldr	r0, [pc, #-2168]	; 8734 <main+0x728>
    8fa8:	eb00235a 	bl	11d18 <fprintf>
    8fac:	e59a3000 	ldr	r3, [sl]
    8fb0:	e3a08000 	mov	r8, #0
    8fb4:	e2833001 	add	r3, r3, #1
    8fb8:	e58a3000 	str	r3, [sl]
    8fbc:	e3027fc0 	movw	r7, #12224	; 0x2fc0
    8fc0:	e3036130 	movw	r6, #12592	; 0x3130
    8fc4:	e3023894 	movw	r3, #10388	; 0x2894
    8fc8:	e3407001 	movt	r7, #1
    8fcc:	e3406001 	movt	r6, #1
    8fd0:	e3a05002 	mov	r5, #2
    8fd4:	e3403001 	movt	r3, #1
    8fd8:	e58d3014 	str	r3, [sp, #20]
    8fdc:	e3a02ffa 	mov	r2, #1000	; 0x3e8
    8fe0:	e28d1e17 	add	r1, sp, #368	; 0x170
    8fe4:	e1a00005 	mov	r0, r5
    8fe8:	e3e09001 	mvn	r9, #1
    8fec:	eb001e73 	bl	109c0 <wait>
    8ff0:	e594c000 	ldr	ip, [r4]
    8ff4:	e1a0e000 	mov	lr, r0
    8ff8:	e15e0009 	cmp	lr, r9
    8ffc:	e2855001 	add	r5, r5, #1
    9000:	e51f08d4 	ldr	r0, [pc, #-2260]	; 8734 <main+0x728>
    9004:	e3a030b5 	mov	r3, #181	; 0xb5
    9008:	e28cc001 	add	ip, ip, #1
    900c:	e1a02007 	mov	r2, r7
    9010:	e1a01006 	mov	r1, r6
    9014:	e584c000 	str	ip, [r4]
    9018:	0a000008 	beq	9040 <main+0x1034>
    901c:	e59dc014 	ldr	ip, [sp, #20]
    9020:	e3a08000 	mov	r8, #0
    9024:	e58de008 	str	lr, [sp, #8]
    9028:	e58d9004 	str	r9, [sp, #4]
    902c:	e58dc000 	str	ip, [sp]
    9030:	eb002338 	bl	11d18 <fprintf>
    9034:	e59a3000 	ldr	r3, [sl]
    9038:	e2833001 	add	r3, r3, #1
    903c:	e58a3000 	str	r3, [sl]
    9040:	e3550080 	cmp	r5, #128	; 0x80
    9044:	1affffe4 	bne	8fdc <main+0xfd0>
    9048:	e3580000 	cmp	r8, #0
    904c:	e3022fc0 	movw	r2, #12224	; 0x2fc0
    9050:	159d301c 	ldrne	r3, [sp, #28]
    9054:	13031180 	movwne	r1, #12672	; 0x3180
    9058:	059d301c 	ldreq	r3, [sp, #28]
    905c:	03031194 	movweq	r1, #12692	; 0x3194
    9060:	13402001 	movtne	r2, #1
    9064:	13401001 	movtne	r1, #1
    9068:	158d3000 	strne	r3, [sp]
    906c:	03402001 	movteq	r2, #1
    9070:	058d3000 	streq	r3, [sp]
    9074:	03401001 	movteq	r1, #1
    9078:	e3a030b8 	mov	r3, #184	; 0xb8
    907c:	e51f0950 	ldr	r0, [pc, #-2384]	; 8734 <main+0x728>
    9080:	eb002324 	bl	11d18 <fprintf>
    9084:	e30233cc 	movw	r3, #9164	; 0x23cc
    9088:	e3022fc0 	movw	r2, #12224	; 0x2fc0
    908c:	e3403001 	movt	r3, #1
    9090:	e3021fd4 	movw	r1, #12244	; 0x2fd4
    9094:	e58d301c 	str	r3, [sp, #28]
    9098:	e3402001 	movt	r2, #1
    909c:	e58d3000 	str	r3, [sp]
    90a0:	e3401001 	movt	r1, #1
    90a4:	e3a030c2 	mov	r3, #194	; 0xc2
    90a8:	e51f097c 	ldr	r0, [pc, #-2428]	; 8734 <main+0x728>
    90ac:	eb002319 	bl	11d18 <fprintf>
    90b0:	e3e00000 	mvn	r0, #0
    90b4:	eb001e3b 	bl	109a8 <close>
    90b8:	e5943000 	ldr	r3, [r4]
    90bc:	e370002a 	cmn	r0, #42	; 0x2a
    90c0:	03a08001 	moveq	r8, #1
    90c4:	e2833001 	add	r3, r3, #1
    90c8:	e5843000 	str	r3, [r4]
    90cc:	0a000010 	beq	9114 <main+0x1108>
    90d0:	e30238ac 	movw	r3, #10412	; 0x28ac
    90d4:	e3e0c029 	mvn	ip, #41	; 0x29
    90d8:	e3403001 	movt	r3, #1
    90dc:	e3022fc0 	movw	r2, #12224	; 0x2fc0
    90e0:	e30311a8 	movw	r1, #12712	; 0x31a8
    90e4:	e58d0008 	str	r0, [sp, #8]
    90e8:	e58d3000 	str	r3, [sp]
    90ec:	e3402001 	movt	r2, #1
    90f0:	e3a030c6 	mov	r3, #198	; 0xc6
    90f4:	e58dc004 	str	ip, [sp, #4]
    90f8:	e3401001 	movt	r1, #1
    90fc:	e51f09d0 	ldr	r0, [pc, #-2512]	; 8734 <main+0x728>
    9100:	eb002304 	bl	11d18 <fprintf>
    9104:	e59a3000 	ldr	r3, [sl]
    9108:	e3a08000 	mov	r8, #0
    910c:	e2833001 	add	r3, r3, #1
    9110:	e58a3000 	str	r3, [sl]
    9114:	e3a00080 	mov	r0, #128	; 0x80
    9118:	eb001e22 	bl	109a8 <close>
    911c:	e5943000 	ldr	r3, [r4]
    9120:	e370002a 	cmn	r0, #42	; 0x2a
    9124:	e2833001 	add	r3, r3, #1
    9128:	e5843000 	str	r3, [r4]
    912c:	0a000010 	beq	9174 <main+0x1168>
    9130:	e30238ac 	movw	r3, #10412	; 0x28ac
    9134:	e3e0c029 	mvn	ip, #41	; 0x29
    9138:	e3403001 	movt	r3, #1
    913c:	e3022fc0 	movw	r2, #12224	; 0x2fc0
    9140:	e30311a8 	movw	r1, #12712	; 0x31a8
    9144:	e58d0008 	str	r0, [sp, #8]
    9148:	e58d3000 	str	r3, [sp]
    914c:	e3402001 	movt	r2, #1
    9150:	e3a030ca 	mov	r3, #202	; 0xca
    9154:	e58dc004 	str	ip, [sp, #4]
    9158:	e3401001 	movt	r1, #1
    915c:	e51f0a30 	ldr	r0, [pc, #-2608]	; 8734 <main+0x728>
    9160:	eb0022ec 	bl	11d18 <fprintf>
    9164:	e59a3000 	ldr	r3, [sl]
    9168:	e3a08000 	mov	r8, #0
    916c:	e2833001 	add	r3, r3, #1
    9170:	e58a3000 	str	r3, [sl]
    9174:	e3027fc0 	movw	r7, #12224	; 0x2fc0
    9178:	e3036130 	movw	r6, #12592	; 0x3130
    917c:	e30238ac 	movw	r3, #10412	; 0x28ac
    9180:	e3407001 	movt	r7, #1
    9184:	e3406001 	movt	r6, #1
    9188:	e3a05002 	mov	r5, #2
    918c:	e3403001 	movt	r3, #1
    9190:	e58d3014 	str	r3, [sp, #20]
    9194:	e1a00005 	mov	r0, r5
    9198:	e3e09001 	mvn	r9, #1
    919c:	eb001e01 	bl	109a8 <close>
    91a0:	e594c000 	ldr	ip, [r4]
    91a4:	e1a0e000 	mov	lr, r0
    91a8:	e15e0009 	cmp	lr, r9
    91ac:	e2855001 	add	r5, r5, #1
    91b0:	e51f0a84 	ldr	r0, [pc, #-2692]	; 8734 <main+0x728>
    91b4:	e3a030cf 	mov	r3, #207	; 0xcf
    91b8:	e28cc001 	add	ip, ip, #1
    91bc:	e1a02007 	mov	r2, r7
    91c0:	e1a01006 	mov	r1, r6
    91c4:	e584c000 	str	ip, [r4]
    91c8:	0a000008 	beq	91f0 <main+0x11e4>
    91cc:	e59dc014 	ldr	ip, [sp, #20]
    91d0:	e3a08000 	mov	r8, #0
    91d4:	e58de008 	str	lr, [sp, #8]
    91d8:	e58d9004 	str	r9, [sp, #4]
    91dc:	e58dc000 	str	ip, [sp]
    91e0:	eb0022cc 	bl	11d18 <fprintf>
    91e4:	e59a3000 	ldr	r3, [sl]
    91e8:	e2833001 	add	r3, r3, #1
    91ec:	e58a3000 	str	r3, [sl]
    91f0:	e3550080 	cmp	r5, #128	; 0x80
    91f4:	1affffe6 	bne	9194 <main+0x1188>
    91f8:	e3580000 	cmp	r8, #0
    91fc:	e3022fc0 	movw	r2, #12224	; 0x2fc0
    9200:	159d301c 	ldrne	r3, [sp, #28]
    9204:	13031180 	movwne	r1, #12672	; 0x3180
    9208:	059d301c 	ldreq	r3, [sp, #28]
    920c:	03031194 	movweq	r1, #12692	; 0x3194
    9210:	13402001 	movtne	r2, #1
    9214:	13401001 	movtne	r1, #1
    9218:	158d3000 	strne	r3, [sp]
    921c:	03402001 	movteq	r2, #1
    9220:	058d3000 	streq	r3, [sp]
    9224:	03401001 	movteq	r1, #1
    9228:	e3a030d2 	mov	r3, #210	; 0xd2
    922c:	e51f0b00 	ldr	r0, [pc, #-2816]	; 8734 <main+0x728>
    9230:	eb0022b8 	bl	11d18 <fprintf>
    9234:	e30233ec 	movw	r3, #9196	; 0x23ec
    9238:	e3022fc0 	movw	r2, #12224	; 0x2fc0
    923c:	e3403001 	movt	r3, #1
    9240:	e3021fd4 	movw	r1, #12244	; 0x2fd4
    9244:	e58d301c 	str	r3, [sp, #28]
    9248:	e3402001 	movt	r2, #1
    924c:	e58d3000 	str	r3, [sp]
    9250:	e3401001 	movt	r1, #1
    9254:	e3a030dc 	mov	r3, #220	; 0xdc
    9258:	e51f0b2c 	ldr	r0, [pc, #-2860]	; 8734 <main+0x728>
    925c:	eb0022ad 	bl	11d18 <fprintf>
    9260:	e59d1034 	ldr	r1, [sp, #52]	; 0x34
    9264:	e3e00000 	mvn	r0, #0
    9268:	eb001dd1 	bl	109b4 <set_cookie>
    926c:	e5943000 	ldr	r3, [r4]
    9270:	e370002a 	cmn	r0, #42	; 0x2a
    9274:	03a07001 	moveq	r7, #1
    9278:	e2833001 	add	r3, r3, #1
    927c:	e5843000 	str	r3, [r4]
    9280:	0a000010 	beq	92c8 <main+0x12bc>
    9284:	e30238c4 	movw	r3, #10436	; 0x28c4
    9288:	e3e0c029 	mvn	ip, #41	; 0x29
    928c:	e3403001 	movt	r3, #1
    9290:	e3022fc0 	movw	r2, #12224	; 0x2fc0
    9294:	e30311a8 	movw	r1, #12712	; 0x31a8
    9298:	e58d0008 	str	r0, [sp, #8]
    929c:	e58d3000 	str	r3, [sp]
    92a0:	e3402001 	movt	r2, #1
    92a4:	e3a030e0 	mov	r3, #224	; 0xe0
    92a8:	e58dc004 	str	ip, [sp, #4]
    92ac:	e3401001 	movt	r1, #1
    92b0:	e51f0b84 	ldr	r0, [pc, #-2948]	; 8734 <main+0x728>
    92b4:	eb002297 	bl	11d18 <fprintf>
    92b8:	e59a3000 	ldr	r3, [sl]
    92bc:	e3a07000 	mov	r7, #0
    92c0:	e2833001 	add	r3, r3, #1
    92c4:	e58a3000 	str	r3, [sl]
    92c8:	e59d1038 	ldr	r1, [sp, #56]	; 0x38
    92cc:	e3a00080 	mov	r0, #128	; 0x80
    92d0:	eb001db7 	bl	109b4 <set_cookie>
    92d4:	e5943000 	ldr	r3, [r4]
    92d8:	e370002a 	cmn	r0, #42	; 0x2a
    92dc:	e2833001 	add	r3, r3, #1
    92e0:	e5843000 	str	r3, [r4]
    92e4:	0a000010 	beq	932c <main+0x1320>
    92e8:	e30238c4 	movw	r3, #10436	; 0x28c4
    92ec:	e3e0c029 	mvn	ip, #41	; 0x29
    92f0:	e3403001 	movt	r3, #1
    92f4:	e3022fc0 	movw	r2, #12224	; 0x2fc0
    92f8:	e30311a8 	movw	r1, #12712	; 0x31a8
    92fc:	e58d0008 	str	r0, [sp, #8]
    9300:	e58d3000 	str	r3, [sp]
    9304:	e3402001 	movt	r2, #1
    9308:	e3a030e4 	mov	r3, #228	; 0xe4
    930c:	e58dc004 	str	ip, [sp, #4]
    9310:	e3401001 	movt	r1, #1
    9314:	e51f0be8 	ldr	r0, [pc, #-3048]	; 8734 <main+0x728>
    9318:	eb00227e 	bl	11d18 <fprintf>
    931c:	e59a3000 	ldr	r3, [sl]
    9320:	e3a07000 	mov	r7, #0
    9324:	e2833001 	add	r3, r3, #1
    9328:	e58a3000 	str	r3, [sl]
    932c:	e30288c4 	movw	r8, #10436	; 0x28c4
    9330:	e3026fc0 	movw	r6, #12224	; 0x2fc0
    9334:	e3408001 	movt	r8, #1
    9338:	e3406001 	movt	r6, #1
    933c:	e58d8014 	str	r8, [sp, #20]
    9340:	e3a05002 	mov	r5, #2
    9344:	e59d803c 	ldr	r8, [sp, #60]	; 0x3c
    9348:	e1a01008 	mov	r1, r8
    934c:	e1a00005 	mov	r0, r5
    9350:	eb001d97 	bl	109b4 <set_cookie>
    9354:	e594c000 	ldr	ip, [r4]
    9358:	e1a0e000 	mov	lr, r0
    935c:	e3e09001 	mvn	r9, #1
    9360:	e3031130 	movw	r1, #12592	; 0x3130
    9364:	e15e0009 	cmp	lr, r9
    9368:	e51f0c3c 	ldr	r0, [pc, #-3132]	; 8734 <main+0x728>
    936c:	e28cc001 	add	ip, ip, #1
    9370:	e3a030e9 	mov	r3, #233	; 0xe9
    9374:	e1a02006 	mov	r2, r6
    9378:	e3401001 	movt	r1, #1
    937c:	e2855001 	add	r5, r5, #1
    9380:	e584c000 	str	ip, [r4]
    9384:	0a000008 	beq	93ac <main+0x13a0>
    9388:	e59dc014 	ldr	ip, [sp, #20]
    938c:	e3a07000 	mov	r7, #0
    9390:	e58de008 	str	lr, [sp, #8]
    9394:	e58d9004 	str	r9, [sp, #4]
    9398:	e58dc000 	str	ip, [sp]
    939c:	eb00225d 	bl	11d18 <fprintf>
    93a0:	e59a3000 	ldr	r3, [sl]
    93a4:	e2833001 	add	r3, r3, #1
    93a8:	e58a3000 	str	r3, [sl]
    93ac:	e3550080 	cmp	r5, #128	; 0x80
    93b0:	1affffe4 	bne	9348 <main+0x133c>
    93b4:	e3570000 	cmp	r7, #0
    93b8:	e3022fc0 	movw	r2, #12224	; 0x2fc0
    93bc:	159d301c 	ldrne	r3, [sp, #28]
    93c0:	13031180 	movwne	r1, #12672	; 0x3180
    93c4:	059d301c 	ldreq	r3, [sp, #28]
    93c8:	03031194 	movweq	r1, #12692	; 0x3194
    93cc:	13402001 	movtne	r2, #1
    93d0:	13401001 	movtne	r1, #1
    93d4:	158d3000 	strne	r3, [sp]
    93d8:	03402001 	movteq	r2, #1
    93dc:	058d3000 	streq	r3, [sp]
    93e0:	03401001 	movteq	r1, #1
    93e4:	e3a030ec 	mov	r3, #236	; 0xec
    93e8:	e51f0cbc 	ldr	r0, [pc, #-3260]	; 8734 <main+0x728>
    93ec:	e302740c 	movw	r7, #9228	; 0x240c
    93f0:	e3a06000 	mov	r6, #0
    93f4:	eb002247 	bl	11d18 <fprintf>
    93f8:	e3407001 	movt	r7, #1
    93fc:	e3022fc0 	movw	r2, #12224	; 0x2fc0
    9400:	e3021fd4 	movw	r1, #12244	; 0x2fd4
    9404:	e3402001 	movt	r2, #1
    9408:	e3401001 	movt	r1, #1
    940c:	e3a030fa 	mov	r3, #250	; 0xfa
    9410:	e58d7000 	str	r7, [sp]
    9414:	e51f0ce8 	ldr	r0, [pc, #-3304]	; 8734 <main+0x728>
    9418:	eb00223e 	bl	11d18 <fprintf>
    941c:	e1a03006 	mov	r3, r6
    9420:	e3a02040 	mov	r2, #64	; 0x40
    9424:	e3a01002 	mov	r1, #2
    9428:	e28d0e17 	add	r0, sp, #368	; 0x170
    942c:	e5cd6170 	strb	r6, [sp, #368]	; 0x170
    9430:	eb001d53 	bl	10984 <port_create>
    9434:	e5943000 	ldr	r3, [r4]
    9438:	e3700008 	cmn	r0, #8
    943c:	03a06001 	moveq	r6, #1
    9440:	e2833001 	add	r3, r3, #1
    9444:	e5843000 	str	r3, [r4]
    9448:	0a00000f 	beq	948c <main+0x1480>
    944c:	e30238e4 	movw	r3, #10468	; 0x28e4
    9450:	e3e0c007 	mvn	ip, #7
    9454:	e3403001 	movt	r3, #1
    9458:	e3022fc0 	movw	r2, #12224	; 0x2fc0
    945c:	e30312a0 	movw	r1, #12960	; 0x32a0
    9460:	e58d0008 	str	r0, [sp, #8]
    9464:	e58d3000 	str	r3, [sp]
    9468:	e3402001 	movt	r2, #1
    946c:	e3a030ff 	mov	r3, #255	; 0xff
    9470:	e58dc004 	str	ip, [sp, #4]
    9474:	e3401001 	movt	r1, #1
    9478:	e51f0d4c 	ldr	r0, [pc, #-3404]	; 8734 <main+0x728>
    947c:	eb002225 	bl	11d18 <fprintf>
    9480:	e59a3000 	ldr	r3, [sl]
    9484:	e2833001 	add	r3, r3, #1
    9488:	e58a3000 	str	r3, [sl]
    948c:	e3022fe4 	movw	r2, #12260	; 0x2fe4
    9490:	e30218f4 	movw	r1, #10484	; 0x28f4
    9494:	e3402001 	movt	r2, #1
    9498:	e3401001 	movt	r1, #1
    949c:	e28d0e17 	add	r0, sp, #368	; 0x170
    94a0:	eb002202 	bl	11cb0 <sprintf>
    94a4:	e3a03000 	mov	r3, #0
    94a8:	e3a02040 	mov	r2, #64	; 0x40
    94ac:	e1a01003 	mov	r1, r3
    94b0:	e28d0e17 	add	r0, sp, #368	; 0x170
    94b4:	eb001d32 	bl	10984 <port_create>
    94b8:	e5943000 	ldr	r3, [r4]
    94bc:	e3700008 	cmn	r0, #8
    94c0:	e2833001 	add	r3, r3, #1
    94c4:	e5843000 	str	r3, [r4]
    94c8:	0a000010 	beq	9510 <main+0x1504>
    94cc:	e30238fc 	movw	r3, #10492	; 0x28fc
    94d0:	e3e0c007 	mvn	ip, #7
    94d4:	e3403001 	movt	r3, #1
    94d8:	e3022fc0 	movw	r2, #12224	; 0x2fc0
    94dc:	e30312a0 	movw	r1, #12960	; 0x32a0
    94e0:	e58d0008 	str	r0, [sp, #8]
    94e4:	e58d3000 	str	r3, [sp]
    94e8:	e3402001 	movt	r2, #1
    94ec:	e3a03f41 	mov	r3, #260	; 0x104
    94f0:	e58dc004 	str	ip, [sp, #4]
    94f4:	e3401001 	movt	r1, #1
    94f8:	e51f0dcc 	ldr	r0, [pc, #-3532]	; 8734 <main+0x728>
    94fc:	eb002205 	bl	11d18 <fprintf>
    9500:	e59a3000 	ldr	r3, [sl]
    9504:	e3a06000 	mov	r6, #0
    9508:	e2833001 	add	r3, r3, #1
    950c:	e58a3000 	str	r3, [sl]
    9510:	e3022fe4 	movw	r2, #12260	; 0x2fe4
    9514:	e30218f4 	movw	r1, #10484	; 0x28f4
    9518:	e3402001 	movt	r2, #1
    951c:	e3401001 	movt	r1, #1
    9520:	e28d0e17 	add	r0, sp, #368	; 0x170
    9524:	eb0021e1 	bl	11cb0 <sprintf>
    9528:	e3a03000 	mov	r3, #0
    952c:	e3a01002 	mov	r1, #2
    9530:	e1a02003 	mov	r2, r3
    9534:	e28d0e17 	add	r0, sp, #368	; 0x170
    9538:	eb001d11 	bl	10984 <port_create>
    953c:	e5943000 	ldr	r3, [r4]
    9540:	e3700008 	cmn	r0, #8
    9544:	e2833001 	add	r3, r3, #1
    9548:	e5843000 	str	r3, [r4]
    954c:	0a000010 	beq	9594 <main+0x1588>
    9550:	e3023908 	movw	r3, #10504	; 0x2908
    9554:	e3e0c007 	mvn	ip, #7
    9558:	e3403001 	movt	r3, #1
    955c:	e3022fc0 	movw	r2, #12224	; 0x2fc0
    9560:	e30312a0 	movw	r1, #12960	; 0x32a0
    9564:	e58d0008 	str	r0, [sp, #8]
    9568:	e58d3000 	str	r3, [sp]
    956c:	e3402001 	movt	r2, #1
    9570:	e3003109 	movw	r3, #265	; 0x109
    9574:	e58dc004 	str	ip, [sp, #4]
    9578:	e3401001 	movt	r1, #1
    957c:	e51f0e50 	ldr	r0, [pc, #-3664]	; 8734 <main+0x728>
    9580:	eb0021e4 	bl	11d18 <fprintf>
    9584:	e59a3000 	ldr	r3, [sl]
    9588:	e3a06000 	mov	r6, #0
    958c:	e2833001 	add	r3, r3, #1
    9590:	e58a3000 	str	r3, [sl]
    9594:	e3022fe4 	movw	r2, #12260	; 0x2fe4
    9598:	e30218f4 	movw	r1, #10484	; 0x28f4
    959c:	e3402001 	movt	r2, #1
    95a0:	e3401001 	movt	r1, #1
    95a4:	e28d0e17 	add	r0, sp, #368	; 0x170
    95a8:	eb0021c0 	bl	11cb0 <sprintf>
    95ac:	e3a03000 	mov	r3, #0
    95b0:	e3a02040 	mov	r2, #64	; 0x40
    95b4:	e3a01d32 	mov	r1, #3200	; 0xc80
    95b8:	e28d0e17 	add	r0, sp, #368	; 0x170
    95bc:	eb001cf0 	bl	10984 <port_create>
    95c0:	e5943000 	ldr	r3, [r4]
    95c4:	e3700008 	cmn	r0, #8
    95c8:	e2833001 	add	r3, r3, #1
    95cc:	e5843000 	str	r3, [r4]
    95d0:	0a000010 	beq	9618 <main+0x160c>
    95d4:	e3023918 	movw	r3, #10520	; 0x2918
    95d8:	e3e0c007 	mvn	ip, #7
    95dc:	e3403001 	movt	r3, #1
    95e0:	e3022fc0 	movw	r2, #12224	; 0x2fc0
    95e4:	e30312a0 	movw	r1, #12960	; 0x32a0
    95e8:	e58d0008 	str	r0, [sp, #8]
    95ec:	e58d3000 	str	r3, [sp]
    95f0:	e3402001 	movt	r2, #1
    95f4:	e300310e 	movw	r3, #270	; 0x10e
    95f8:	e58dc004 	str	ip, [sp, #4]
    95fc:	e3401001 	movt	r1, #1
    9600:	e51f0ed4 	ldr	r0, [pc, #-3796]	; 8734 <main+0x728>
    9604:	eb0021c3 	bl	11d18 <fprintf>
    9608:	e59a3000 	ldr	r3, [sl]
    960c:	e3a06000 	mov	r6, #0
    9610:	e2833001 	add	r3, r3, #1
    9614:	e58a3000 	str	r3, [sl]
    9618:	e3022fe4 	movw	r2, #12260	; 0x2fe4
    961c:	e30218f4 	movw	r1, #10484	; 0x28f4
    9620:	e3402001 	movt	r2, #1
    9624:	e3401001 	movt	r1, #1
    9628:	e28d0e17 	add	r0, sp, #368	; 0x170
    962c:	eb00219f 	bl	11cb0 <sprintf>
    9630:	e3a03000 	mov	r3, #0
    9634:	e3a02919 	mov	r2, #409600	; 0x64000
    9638:	e3a01002 	mov	r1, #2
    963c:	e28d0e17 	add	r0, sp, #368	; 0x170
    9640:	eb001ccf 	bl	10984 <port_create>
    9644:	e5943000 	ldr	r3, [r4]
    9648:	e3700008 	cmn	r0, #8
    964c:	e2833001 	add	r3, r3, #1
    9650:	e5843000 	str	r3, [r4]
    9654:	0a000010 	beq	969c <main+0x1690>
    9658:	e3023928 	movw	r3, #10536	; 0x2928
    965c:	e3e0c007 	mvn	ip, #7
    9660:	e3403001 	movt	r3, #1
    9664:	e3022fc0 	movw	r2, #12224	; 0x2fc0
    9668:	e30312a0 	movw	r1, #12960	; 0x32a0
    966c:	e58d0008 	str	r0, [sp, #8]
    9670:	e58d3000 	str	r3, [sp]
    9674:	e3402001 	movt	r2, #1
    9678:	e3003113 	movw	r3, #275	; 0x113
    967c:	e58dc004 	str	ip, [sp, #4]
    9680:	e3401001 	movt	r1, #1
    9684:	e51f0f58 	ldr	r0, [pc, #-3928]	; 8734 <main+0x728>
    9688:	eb0021a2 	bl	11d18 <fprintf>
    968c:	e59a3000 	ldr	r3, [sl]
    9690:	e3a06000 	mov	r6, #0
    9694:	e2833001 	add	r3, r3, #1
    9698:	e58a3000 	str	r3, [sl]
    969c:	e3022fe4 	movw	r2, #12260	; 0x2fe4
    96a0:	e30218f4 	movw	r1, #10484	; 0x28f4
    96a4:	e3402001 	movt	r2, #1
    96a8:	e3401001 	movt	r1, #1
    96ac:	e28d0e17 	add	r0, sp, #368	; 0x170
    96b0:	eb00217e 	bl	11cb0 <sprintf>
    96b4:	e350004f 	cmp	r0, #79	; 0x4f
    96b8:	8a000008 	bhi	96e0 <main+0x16d4>
    96bc:	e28d2e17 	add	r2, sp, #368	; 0x170
    96c0:	e2403001 	sub	r3, r0, #1
    96c4:	e28d1f6f 	add	r1, sp, #444	; 0x1bc
    96c8:	e0823003 	add	r3, r2, r3
    96cc:	e2811003 	add	r1, r1, #3
    96d0:	e3a02061 	mov	r2, #97	; 0x61
    96d4:	e5e32001 	strb	r2, [r3, #1]!
    96d8:	e1530001 	cmp	r3, r1
    96dc:	1afffffc 	bne	96d4 <main+0x16c8>
    96e0:	e3a0c000 	mov	ip, #0
    96e4:	e3a02a01 	mov	r2, #4096	; 0x1000
    96e8:	e1a0300c 	mov	r3, ip
    96ec:	e3a01002 	mov	r1, #2
    96f0:	e28d0e17 	add	r0, sp, #368	; 0x170
    96f4:	e5cdc1bf 	strb	ip, [sp, #447]	; 0x1bf
    96f8:	eb001ca1 	bl	10984 <port_create>
    96fc:	e5943000 	ldr	r3, [r4]
    9700:	e3700008 	cmn	r0, #8
    9704:	e1a05000 	mov	r5, r0
    9708:	e2833001 	add	r3, r3, #1
    970c:	e5843000 	str	r3, [r4]
    9710:	0a0005f9 	beq	aefc <main+0x2ef0>
    9714:	e3023938 	movw	r3, #10552	; 0x2938
    9718:	e3e00007 	mvn	r0, #7
    971c:	e3403001 	movt	r3, #1
    9720:	e3022fc0 	movw	r2, #12224	; 0x2fc0
    9724:	e30312a0 	movw	r1, #12960	; 0x32a0
    9728:	e58d3000 	str	r3, [sp]
    972c:	e3402001 	movt	r2, #1
    9730:	e58d0004 	str	r0, [sp, #4]
    9734:	e3401001 	movt	r1, #1
    9738:	e300311a 	movw	r3, #282	; 0x11a
    973c:	e58d5008 	str	r5, [sp, #8]
    9740:	e59f0560 	ldr	r0, [pc, #1376]	; 9ca8 <main+0x1c9c>
    9744:	eb002173 	bl	11d18 <fprintf>
    9748:	e59a3000 	ldr	r3, [sl]
    974c:	e1a00005 	mov	r0, r5
    9750:	e2833001 	add	r3, r3, #1
    9754:	e58a3000 	str	r3, [sl]
    9758:	eb001c92 	bl	109a8 <close>
    975c:	e5943000 	ldr	r3, [r4]
    9760:	e370002a 	cmn	r0, #42	; 0x2a
    9764:	e2833001 	add	r3, r3, #1
    9768:	e5843000 	str	r3, [r4]
    976c:	0a00000f 	beq	97b0 <main+0x17a4>
    9770:	e3023ce4 	movw	r3, #11492	; 0x2ce4
    9774:	e3e0c029 	mvn	ip, #41	; 0x29
    9778:	e3403001 	movt	r3, #1
    977c:	e3022fc0 	movw	r2, #12224	; 0x2fc0
    9780:	e30311a8 	movw	r1, #12712	; 0x31a8
    9784:	e58d0008 	str	r0, [sp, #8]
    9788:	e58d3000 	str	r3, [sp]
    978c:	e3402001 	movt	r2, #1
    9790:	e3a03f47 	mov	r3, #284	; 0x11c
    9794:	e58dc004 	str	ip, [sp, #4]
    9798:	e3401001 	movt	r1, #1
    979c:	e59f0504 	ldr	r0, [pc, #1284]	; 9ca8 <main+0x1c9c>
    97a0:	eb00215c 	bl	11d18 <fprintf>
    97a4:	e59a3000 	ldr	r3, [sl]
    97a8:	e2833001 	add	r3, r3, #1
    97ac:	e58a3000 	str	r3, [sl]
    97b0:	e3022fc0 	movw	r2, #12224	; 0x2fc0
    97b4:	e3031194 	movw	r1, #12692	; 0x3194
    97b8:	e58d7000 	str	r7, [sp]
    97bc:	e3402001 	movt	r2, #1
    97c0:	e3401001 	movt	r1, #1
    97c4:	e300311e 	movw	r3, #286	; 0x11e
    97c8:	e59f04d8 	ldr	r0, [pc, #1240]	; 9ca8 <main+0x1c9c>
    97cc:	eb002151 	bl	11d18 <fprintf>
    97d0:	e302645c 	movw	r6, #9308	; 0x245c
    97d4:	e3022fc0 	movw	r2, #12224	; 0x2fc0
    97d8:	e3406001 	movt	r6, #1
    97dc:	e3021fd4 	movw	r1, #12244	; 0x2fd4
    97e0:	e3a03f66 	mov	r3, #408	; 0x198
    97e4:	e3402001 	movt	r2, #1
    97e8:	e3401001 	movt	r1, #1
    97ec:	e58d6000 	str	r6, [sp]
    97f0:	e59f04b0 	ldr	r0, [pc, #1200]	; 9ca8 <main+0x1c9c>
    97f4:	eb002147 	bl	11d18 <fprintf>
    97f8:	e3020ce0 	movw	r0, #11488	; 0x2ce0
    97fc:	e3a01ffa 	mov	r1, #1000	; 0x3e8
    9800:	e3400001 	movt	r0, #1
    9804:	eb000a54 	bl	c15c <sync_connect>
    9808:	e5943000 	ldr	r3, [r4]
    980c:	e3700008 	cmn	r0, #8
    9810:	03a07001 	moveq	r7, #1
    9814:	e2833001 	add	r3, r3, #1
    9818:	e5843000 	str	r3, [r4]
    981c:	0a000010 	beq	9864 <main+0x1858>
    9820:	e302394c 	movw	r3, #10572	; 0x294c
    9824:	e3e0c007 	mvn	ip, #7
    9828:	e3403001 	movt	r3, #1
    982c:	e3022fc0 	movw	r2, #12224	; 0x2fc0
    9830:	e30312a0 	movw	r1, #12960	; 0x32a0
    9834:	e58d0008 	str	r0, [sp, #8]
    9838:	e58d3000 	str	r3, [sp]
    983c:	e3402001 	movt	r2, #1
    9840:	e3a03f67 	mov	r3, #412	; 0x19c
    9844:	e58dc004 	str	ip, [sp, #4]
    9848:	e3401001 	movt	r1, #1
    984c:	e59f0454 	ldr	r0, [pc, #1108]	; 9ca8 <main+0x1c9c>
    9850:	eb002130 	bl	11d18 <fprintf>
    9854:	e59a3000 	ldr	r3, [sl]
    9858:	e3a07000 	mov	r7, #0
    985c:	e2833001 	add	r3, r3, #1
    9860:	e58a3000 	str	r3, [sl]
    9864:	e3023958 	movw	r3, #10584	; 0x2958
    9868:	e3022fe4 	movw	r2, #12260	; 0x2fe4
    986c:	e3021964 	movw	r1, #10596	; 0x2964
    9870:	e3403001 	movt	r3, #1
    9874:	e3402001 	movt	r2, #1
    9878:	e3401001 	movt	r1, #1
    987c:	e28d0e17 	add	r0, sp, #368	; 0x170
    9880:	eb00210a 	bl	11cb0 <sprintf>
    9884:	e3a01000 	mov	r1, #0
    9888:	e28d0e17 	add	r0, sp, #368	; 0x170
    988c:	eb001c3f 	bl	10990 <connect>
    9890:	e5943000 	ldr	r3, [r4]
    9894:	e3700002 	cmn	r0, #2
    9898:	e2833001 	add	r3, r3, #1
    989c:	e5843000 	str	r3, [r4]
    98a0:	0a000010 	beq	98e8 <main+0x18dc>
    98a4:	e3023970 	movw	r3, #10608	; 0x2970
    98a8:	e3e0c001 	mvn	ip, #1
    98ac:	e3403001 	movt	r3, #1
    98b0:	e3022fc0 	movw	r2, #12224	; 0x2fc0
    98b4:	e3031130 	movw	r1, #12592	; 0x3130
    98b8:	e58d0008 	str	r0, [sp, #8]
    98bc:	e58d3000 	str	r3, [sp]
    98c0:	e3402001 	movt	r2, #1
    98c4:	e30031a1 	movw	r3, #417	; 0x1a1
    98c8:	e58dc004 	str	ip, [sp, #4]
    98cc:	e3401001 	movt	r1, #1
    98d0:	e59f03d0 	ldr	r0, [pc, #976]	; 9ca8 <main+0x1c9c>
    98d4:	eb00210f 	bl	11d18 <fprintf>
    98d8:	e59a3000 	ldr	r3, [sl]
    98dc:	e3a07000 	mov	r7, #0
    98e0:	e2833001 	add	r3, r3, #1
    98e4:	e58a3000 	str	r3, [sl]
    98e8:	e3023958 	movw	r3, #10584	; 0x2958
    98ec:	e3022fe4 	movw	r2, #12260	; 0x2fe4
    98f0:	e3021964 	movw	r1, #10596	; 0x2964
    98f4:	e3403001 	movt	r3, #1
    98f8:	e3402001 	movt	r2, #1
    98fc:	e3401001 	movt	r1, #1
    9900:	e28d0e17 	add	r0, sp, #368	; 0x170
    9904:	eb0020e9 	bl	11cb0 <sprintf>
    9908:	e3a01002 	mov	r1, #2
    990c:	e28d0e17 	add	r0, sp, #368	; 0x170
    9910:	eb001c1e 	bl	10990 <connect>
    9914:	e5943000 	ldr	r3, [r4]
    9918:	e3700002 	cmn	r0, #2
    991c:	e2833001 	add	r3, r3, #1
    9920:	e5843000 	str	r3, [r4]
    9924:	0a000010 	beq	996c <main+0x1960>
    9928:	e3023970 	movw	r3, #10608	; 0x2970
    992c:	e3e0c001 	mvn	ip, #1
    9930:	e3403001 	movt	r3, #1
    9934:	e3022fc0 	movw	r2, #12224	; 0x2fc0
    9938:	e3031130 	movw	r1, #12592	; 0x3130
    993c:	e58d0008 	str	r0, [sp, #8]
    9940:	e58d3000 	str	r3, [sp]
    9944:	e3402001 	movt	r2, #1
    9948:	e30031a6 	movw	r3, #422	; 0x1a6
    994c:	e58dc004 	str	ip, [sp, #4]
    9950:	e3401001 	movt	r1, #1
    9954:	e59f034c 	ldr	r0, [pc, #844]	; 9ca8 <main+0x1c9c>
    9958:	eb0020ee 	bl	11d18 <fprintf>
    995c:	e59a3000 	ldr	r3, [sl]
    9960:	e3a07000 	mov	r7, #0
    9964:	e2833001 	add	r3, r3, #1
    9968:	e58a3000 	str	r3, [sl]
    996c:	e3022fe4 	movw	r2, #12260	; 0x2fe4
    9970:	e3021984 	movw	r1, #10628	; 0x2984
    9974:	e3402001 	movt	r2, #1
    9978:	e3401001 	movt	r1, #1
    997c:	e28d0e17 	add	r0, sp, #368	; 0x170
    9980:	eb0020ca 	bl	11cb0 <sprintf>
    9984:	e350004f 	cmp	r0, #79	; 0x4f
    9988:	8a000008 	bhi	99b0 <main+0x19a4>
    998c:	e28d2e17 	add	r2, sp, #368	; 0x170
    9990:	e2403001 	sub	r3, r0, #1
    9994:	e28d1f6f 	add	r1, sp, #444	; 0x1bc
    9998:	e0823003 	add	r3, r2, r3
    999c:	e2811003 	add	r1, r1, #3
    99a0:	e3a02061 	mov	r2, #97	; 0x61
    99a4:	e5e32001 	strb	r2, [r3, #1]!
    99a8:	e1510003 	cmp	r1, r3
    99ac:	1afffffc 	bne	99a4 <main+0x1998>
    99b0:	e3a03000 	mov	r3, #0
    99b4:	e3a01ffa 	mov	r1, #1000	; 0x3e8
    99b8:	e28d0e17 	add	r0, sp, #368	; 0x170
    99bc:	e5cd31bf 	strb	r3, [sp, #447]	; 0x1bf
    99c0:	eb0009e5 	bl	c15c <sync_connect>
    99c4:	e5943000 	ldr	r3, [r4]
    99c8:	e3700008 	cmn	r0, #8
    99cc:	e1a05000 	mov	r5, r0
    99d0:	e2833001 	add	r3, r3, #1
    99d4:	e5843000 	str	r3, [r4]
    99d8:	0a000536 	beq	aeb8 <main+0x2eac>
    99dc:	e3023990 	movw	r3, #10640	; 0x2990
    99e0:	e3e00007 	mvn	r0, #7
    99e4:	e3403001 	movt	r3, #1
    99e8:	e3022fc0 	movw	r2, #12224	; 0x2fc0
    99ec:	e30312a0 	movw	r1, #12960	; 0x32a0
    99f0:	e58d3000 	str	r3, [sp]
    99f4:	e3402001 	movt	r2, #1
    99f8:	e58d0004 	str	r0, [sp, #4]
    99fc:	e3401001 	movt	r1, #1
    9a00:	e30031ad 	movw	r3, #429	; 0x1ad
    9a04:	e58d5008 	str	r5, [sp, #8]
    9a08:	e59f0298 	ldr	r0, [pc, #664]	; 9ca8 <main+0x1c9c>
    9a0c:	eb0020c1 	bl	11d18 <fprintf>
    9a10:	e59a3000 	ldr	r3, [sl]
    9a14:	e1a00005 	mov	r0, r5
    9a18:	e2833001 	add	r3, r3, #1
    9a1c:	e58a3000 	str	r3, [sl]
    9a20:	eb001be0 	bl	109a8 <close>
    9a24:	e5943000 	ldr	r3, [r4]
    9a28:	e370002a 	cmn	r0, #42	; 0x2a
    9a2c:	e2833001 	add	r3, r3, #1
    9a30:	e5843000 	str	r3, [r4]
    9a34:	0a00000f 	beq	9a78 <main+0x1a6c>
    9a38:	e3023fb0 	movw	r3, #12208	; 0x2fb0
    9a3c:	e3e0c029 	mvn	ip, #41	; 0x29
    9a40:	e3403001 	movt	r3, #1
    9a44:	e3022fc0 	movw	r2, #12224	; 0x2fc0
    9a48:	e30311a8 	movw	r1, #12712	; 0x31a8
    9a4c:	e58d0008 	str	r0, [sp, #8]
    9a50:	e58d3000 	str	r3, [sp]
    9a54:	e3402001 	movt	r2, #1
    9a58:	e3a03e1b 	mov	r3, #432	; 0x1b0
    9a5c:	e58dc004 	str	ip, [sp, #4]
    9a60:	e3401001 	movt	r1, #1
    9a64:	e59f023c 	ldr	r0, [pc, #572]	; 9ca8 <main+0x1c9c>
    9a68:	eb0020aa 	bl	11d18 <fprintf>
    9a6c:	e59a3000 	ldr	r3, [sl]
    9a70:	e2833001 	add	r3, r3, #1
    9a74:	e58a3000 	str	r3, [sl]
    9a78:	e3022fc0 	movw	r2, #12224	; 0x2fc0
    9a7c:	e3031194 	movw	r1, #12692	; 0x3194
    9a80:	e58d6000 	str	r6, [sp]
    9a84:	e3402001 	movt	r2, #1
    9a88:	e3401001 	movt	r1, #1
    9a8c:	e30031b2 	movw	r3, #434	; 0x1b2
    9a90:	e59f0210 	ldr	r0, [pc, #528]	; 9ca8 <main+0x1c9c>
    9a94:	eb00209f 	bl	11d18 <fprintf>
    9a98:	e59d5024 	ldr	r5, [sp, #36]	; 0x24
    9a9c:	e30234f8 	movw	r3, #9464	; 0x24f8
    9aa0:	e3a07000 	mov	r7, #0
    9aa4:	e3403001 	movt	r3, #1
    9aa8:	e3022fc0 	movw	r2, #12224	; 0x2fc0
    9aac:	e3021fd4 	movw	r1, #12244	; 0x2fd4
    9ab0:	e58d3000 	str	r3, [sp]
    9ab4:	e3402001 	movt	r2, #1
    9ab8:	e58d3030 	str	r3, [sp, #48]	; 0x30
    9abc:	e3401001 	movt	r1, #1
    9ac0:	e3003309 	movw	r3, #777	; 0x309
    9ac4:	e5857000 	str	r7, [r5]
    9ac8:	e5857004 	str	r7, [r5, #4]
    9acc:	e5857008 	str	r7, [r5, #8]
    9ad0:	e585700c 	str	r7, [r5, #12]
    9ad4:	e58b7000 	str	r7, [fp]
    9ad8:	e58b7004 	str	r7, [fp, #4]
    9adc:	e58b7008 	str	r7, [fp, #8]
    9ae0:	e58b700c 	str	r7, [fp, #12]
    9ae4:	e59f01bc 	ldr	r0, [pc, #444]	; 9ca8 <main+0x1c9c>
    9ae8:	eb00208a 	bl	11d18 <fprintf>
    9aec:	e1a01005 	mov	r1, r5
    9af0:	e3e00000 	mvn	r0, #0
    9af4:	eb001ba8 	bl	1099c <accept>
    9af8:	e5943000 	ldr	r3, [r4]
    9afc:	e370002a 	cmn	r0, #42	; 0x2a
    9b00:	03a07001 	moveq	r7, #1
    9b04:	e2833001 	add	r3, r3, #1
    9b08:	e5843000 	str	r3, [r4]
    9b0c:	0a00000f 	beq	9b50 <main+0x1b44>
    9b10:	e302399c 	movw	r3, #10652	; 0x299c
    9b14:	e3e0c029 	mvn	ip, #41	; 0x29
    9b18:	e3403001 	movt	r3, #1
    9b1c:	e3022fc0 	movw	r2, #12224	; 0x2fc0
    9b20:	e30311a8 	movw	r1, #12712	; 0x31a8
    9b24:	e58d0008 	str	r0, [sp, #8]
    9b28:	e58d3000 	str	r3, [sp]
    9b2c:	e3402001 	movt	r2, #1
    9b30:	e300330d 	movw	r3, #781	; 0x30d
    9b34:	e58dc004 	str	ip, [sp, #4]
    9b38:	e3401001 	movt	r1, #1
    9b3c:	e59f0164 	ldr	r0, [pc, #356]	; 9ca8 <main+0x1c9c>
    9b40:	eb002074 	bl	11d18 <fprintf>
    9b44:	e59a3000 	ldr	r3, [sl]
    9b48:	e2833001 	add	r3, r3, #1
    9b4c:	e58a3000 	str	r3, [sl]
    9b50:	e3a02010 	mov	r2, #16
    9b54:	e1a0100b 	mov	r1, fp
    9b58:	e59d0024 	ldr	r0, [sp, #36]	; 0x24
    9b5c:	eb00207c 	bl	11d54 <memcmp>
    9b60:	e5943000 	ldr	r3, [r4]
    9b64:	e3500000 	cmp	r0, #0
    9b68:	e2833001 	add	r3, r3, #1
    9b6c:	e5843000 	str	r3, [r4]
    9b70:	0a00000f 	beq	9bb4 <main+0x1ba8>
    9b74:	e30237d4 	movw	r3, #10196	; 0x27d4
    9b78:	e3a07000 	mov	r7, #0
    9b7c:	e3403001 	movt	r3, #1
    9b80:	e3022fc0 	movw	r2, #12224	; 0x2fc0
    9b84:	e3021c84 	movw	r1, #11396	; 0x2c84
    9b88:	e58d0008 	str	r0, [sp, #8]
    9b8c:	e58d3000 	str	r3, [sp]
    9b90:	e3402001 	movt	r2, #1
    9b94:	e3a03e31 	mov	r3, #784	; 0x310
    9b98:	e58d7004 	str	r7, [sp, #4]
    9b9c:	e3401001 	movt	r1, #1
    9ba0:	e59f0100 	ldr	r0, [pc, #256]	; 9ca8 <main+0x1c9c>
    9ba4:	eb00205b 	bl	11d18 <fprintf>
    9ba8:	e59a3000 	ldr	r3, [sl]
    9bac:	e2833001 	add	r3, r3, #1
    9bb0:	e58a3000 	str	r3, [sl]
    9bb4:	e59d1024 	ldr	r1, [sp, #36]	; 0x24
    9bb8:	e3a00080 	mov	r0, #128	; 0x80
    9bbc:	eb001b76 	bl	1099c <accept>
    9bc0:	e5943000 	ldr	r3, [r4]
    9bc4:	e370002a 	cmn	r0, #42	; 0x2a
    9bc8:	e2833001 	add	r3, r3, #1
    9bcc:	e5843000 	str	r3, [r4]
    9bd0:	0a000010 	beq	9c18 <main+0x1c0c>
    9bd4:	e302399c 	movw	r3, #10652	; 0x299c
    9bd8:	e3e0c029 	mvn	ip, #41	; 0x29
    9bdc:	e3403001 	movt	r3, #1
    9be0:	e3022fc0 	movw	r2, #12224	; 0x2fc0
    9be4:	e30311a8 	movw	r1, #12712	; 0x31a8
    9be8:	e58d0008 	str	r0, [sp, #8]
    9bec:	e58d3000 	str	r3, [sp]
    9bf0:	e3402001 	movt	r2, #1
    9bf4:	e3a03fc5 	mov	r3, #788	; 0x314
    9bf8:	e58dc004 	str	ip, [sp, #4]
    9bfc:	e3401001 	movt	r1, #1
    9c00:	e59f00a0 	ldr	r0, [pc, #160]	; 9ca8 <main+0x1c9c>
    9c04:	eb002043 	bl	11d18 <fprintf>
    9c08:	e59a3000 	ldr	r3, [sl]
    9c0c:	e3a07000 	mov	r7, #0
    9c10:	e2833001 	add	r3, r3, #1
    9c14:	e58a3000 	str	r3, [sl]
    9c18:	e3a02010 	mov	r2, #16
    9c1c:	e1a0100b 	mov	r1, fp
    9c20:	e59d0024 	ldr	r0, [sp, #36]	; 0x24
    9c24:	eb00204a 	bl	11d54 <memcmp>
    9c28:	e5943000 	ldr	r3, [r4]
    9c2c:	e3500000 	cmp	r0, #0
    9c30:	e2833001 	add	r3, r3, #1
    9c34:	e5843000 	str	r3, [r4]
    9c38:	0a00000f 	beq	9c7c <main+0x1c70>
    9c3c:	e30237d4 	movw	r3, #10196	; 0x27d4
    9c40:	e3a07000 	mov	r7, #0
    9c44:	e3403001 	movt	r3, #1
    9c48:	e3022fc0 	movw	r2, #12224	; 0x2fc0
    9c4c:	e3021c84 	movw	r1, #11396	; 0x2c84
    9c50:	e58d0008 	str	r0, [sp, #8]
    9c54:	e58d3000 	str	r3, [sp]
    9c58:	e3402001 	movt	r2, #1
    9c5c:	e3003317 	movw	r3, #791	; 0x317
    9c60:	e58d7004 	str	r7, [sp, #4]
    9c64:	e3401001 	movt	r1, #1
    9c68:	e59f0038 	ldr	r0, [pc, #56]	; 9ca8 <main+0x1c9c>
    9c6c:	eb002029 	bl	11d18 <fprintf>
    9c70:	e59a3000 	ldr	r3, [sl]
    9c74:	e2833001 	add	r3, r3, #1
    9c78:	e58a3000 	str	r3, [sl]
    9c7c:	e302399c 	movw	r3, #10652	; 0x299c
    9c80:	e3039130 	movw	r9, #12592	; 0x3130
    9c84:	e3409001 	movt	r9, #1
    9c88:	e3028fc0 	movw	r8, #12224	; 0x2fc0
    9c8c:	e3403001 	movt	r3, #1
    9c90:	e58d9014 	str	r9, [sp, #20]
    9c94:	e58d301c 	str	r3, [sp, #28]
    9c98:	e3408001 	movt	r8, #1
    9c9c:	e3a06002 	mov	r6, #2
    9ca0:	e59d9024 	ldr	r9, [sp, #36]	; 0x24
    9ca4:	ea000002 	b	9cb4 <main+0x1ca8>
    9ca8:	00014048 	.word	0x00014048
    9cac:	e3560080 	cmp	r6, #128	; 0x80
    9cb0:	0a000031 	beq	9d7c <main+0x1d70>
    9cb4:	e1a01009 	mov	r1, r9
    9cb8:	e1a00006 	mov	r0, r6
    9cbc:	eb001b36 	bl	1099c <accept>
    9cc0:	e5945000 	ldr	r5, [r4]
    9cc4:	e1a0c000 	mov	ip, r0
    9cc8:	e3e0e001 	mvn	lr, #1
    9ccc:	e51f002c 	ldr	r0, [pc, #-44]	; 9ca8 <main+0x1c9c>
    9cd0:	e15c000e 	cmp	ip, lr
    9cd4:	e3a03fc7 	mov	r3, #796	; 0x31c
    9cd8:	e2855001 	add	r5, r5, #1
    9cdc:	e1a02008 	mov	r2, r8
    9ce0:	e59d1014 	ldr	r1, [sp, #20]
    9ce4:	e2866001 	add	r6, r6, #1
    9ce8:	e5845000 	str	r5, [r4]
    9cec:	0a000009 	beq	9d18 <main+0x1d0c>
    9cf0:	e58dc008 	str	ip, [sp, #8]
    9cf4:	e3a07000 	mov	r7, #0
    9cf8:	e59dc01c 	ldr	ip, [sp, #28]
    9cfc:	e58de004 	str	lr, [sp, #4]
    9d00:	e58dc000 	str	ip, [sp]
    9d04:	eb002003 	bl	11d18 <fprintf>
    9d08:	e59a3000 	ldr	r3, [sl]
    9d0c:	e5945000 	ldr	r5, [r4]
    9d10:	e2833001 	add	r3, r3, #1
    9d14:	e58a3000 	str	r3, [sl]
    9d18:	e3a02010 	mov	r2, #16
    9d1c:	e1a0100b 	mov	r1, fp
    9d20:	e1a00009 	mov	r0, r9
    9d24:	e2855001 	add	r5, r5, #1
    9d28:	eb002009 	bl	11d54 <memcmp>
    9d2c:	e3500000 	cmp	r0, #0
    9d30:	e5845000 	str	r5, [r4]
    9d34:	0affffdc 	beq	9cac <main+0x1ca0>
    9d38:	e30237d4 	movw	r3, #10196	; 0x27d4
    9d3c:	e3a07000 	mov	r7, #0
    9d40:	e3403001 	movt	r3, #1
    9d44:	e3021c84 	movw	r1, #11396	; 0x2c84
    9d48:	e58d0008 	str	r0, [sp, #8]
    9d4c:	e3401001 	movt	r1, #1
    9d50:	e58d3000 	str	r3, [sp]
    9d54:	e1a02008 	mov	r2, r8
    9d58:	e300331f 	movw	r3, #799	; 0x31f
    9d5c:	e58d7004 	str	r7, [sp, #4]
    9d60:	e51f00c0 	ldr	r0, [pc, #-192]	; 9ca8 <main+0x1c9c>
    9d64:	eb001feb 	bl	11d18 <fprintf>
    9d68:	e59a3000 	ldr	r3, [sl]
    9d6c:	e3560080 	cmp	r6, #128	; 0x80
    9d70:	e2833001 	add	r3, r3, #1
    9d74:	e58a3000 	str	r3, [sl]
    9d78:	1affffcd 	bne	9cb4 <main+0x1ca8>
    9d7c:	e3033270 	movw	r3, #12912	; 0x3270
    9d80:	e3022fe4 	movw	r2, #12260	; 0x2fe4
    9d84:	e3021be0 	movw	r1, #11232	; 0x2be0
    9d88:	e3403001 	movt	r3, #1
    9d8c:	e3402001 	movt	r2, #1
    9d90:	e3401001 	movt	r1, #1
    9d94:	e28d0e17 	add	r0, sp, #368	; 0x170
    9d98:	eb001fc4 	bl	11cb0 <sprintf>
    9d9c:	e3a01ffa 	mov	r1, #1000	; 0x3e8
    9da0:	e28d0e17 	add	r0, sp, #368	; 0x170
    9da4:	eb0008ec 	bl	c15c <sync_connect>
    9da8:	e5943000 	ldr	r3, [r4]
    9dac:	e2505000 	subs	r5, r0, #0
    9db0:	e2833001 	add	r3, r3, #1
    9db4:	e5843000 	str	r3, [r4]
    9db8:	ba00063d 	blt	b6b4 <main+0x36a8>
    9dbc:	e59d1024 	ldr	r1, [sp, #36]	; 0x24
    9dc0:	e1a00005 	mov	r0, r5
    9dc4:	eb001af4 	bl	1099c <accept>
    9dc8:	e5943000 	ldr	r3, [r4]
    9dcc:	e3700008 	cmn	r0, #8
    9dd0:	e2833001 	add	r3, r3, #1
    9dd4:	e5843000 	str	r3, [r4]
    9dd8:	0a000010 	beq	9e20 <main+0x1e14>
    9ddc:	e30239b8 	movw	r3, #10680	; 0x29b8
    9de0:	e3e0c007 	mvn	ip, #7
    9de4:	e3403001 	movt	r3, #1
    9de8:	e3022fc0 	movw	r2, #12224	; 0x2fc0
    9dec:	e30312a0 	movw	r1, #12960	; 0x32a0
    9df0:	e58d0008 	str	r0, [sp, #8]
    9df4:	e58d3000 	str	r3, [sp]
    9df8:	e3402001 	movt	r2, #1
    9dfc:	e300332a 	movw	r3, #810	; 0x32a
    9e00:	e58dc004 	str	ip, [sp, #4]
    9e04:	e3401001 	movt	r1, #1
    9e08:	e51f0168 	ldr	r0, [pc, #-360]	; 9ca8 <main+0x1c9c>
    9e0c:	eb001fc1 	bl	11d18 <fprintf>
    9e10:	e59a3000 	ldr	r3, [sl]
    9e14:	e3a07000 	mov	r7, #0
    9e18:	e2833001 	add	r3, r3, #1
    9e1c:	e58a3000 	str	r3, [sl]
    9e20:	e3a02010 	mov	r2, #16
    9e24:	e1a0100b 	mov	r1, fp
    9e28:	e59d0024 	ldr	r0, [sp, #36]	; 0x24
    9e2c:	eb001fc8 	bl	11d54 <memcmp>
    9e30:	e5943000 	ldr	r3, [r4]
    9e34:	e3500000 	cmp	r0, #0
    9e38:	e2833001 	add	r3, r3, #1
    9e3c:	e5843000 	str	r3, [r4]
    9e40:	1a000469 	bne	afec <main+0x2fe0>
    9e44:	e1a00005 	mov	r0, r5
    9e48:	eb001ad6 	bl	109a8 <close>
    9e4c:	e5943000 	ldr	r3, [r4]
    9e50:	e3500000 	cmp	r0, #0
    9e54:	e2833001 	add	r3, r3, #1
    9e58:	e5843000 	str	r3, [r4]
    9e5c:	1a000479 	bne	b048 <main+0x303c>
    9e60:	e3570000 	cmp	r7, #0
    9e64:	1a000651 	bne	b7b0 <main+0x37a4>
    9e68:	e59d3030 	ldr	r3, [sp, #48]	; 0x30
    9e6c:	e3022fc0 	movw	r2, #12224	; 0x2fc0
    9e70:	e3031194 	movw	r1, #12692	; 0x3194
    9e74:	e3402001 	movt	r2, #1
    9e78:	e3401001 	movt	r1, #1
    9e7c:	e51f01dc 	ldr	r0, [pc, #-476]	; 9ca8 <main+0x1c9c>
    9e80:	e58d3000 	str	r3, [sp]
    9e84:	e3003332 	movw	r3, #818	; 0x332
    9e88:	eb001fa2 	bl	11d18 <fprintf>
    9e8c:	e3023524 	movw	r3, #9508	; 0x2524
    9e90:	e3022fc0 	movw	r2, #12224	; 0x2fc0
    9e94:	e3403001 	movt	r3, #1
    9e98:	e3021fd4 	movw	r1, #12244	; 0x2fd4
    9e9c:	e58d301c 	str	r3, [sp, #28]
    9ea0:	e3402001 	movt	r2, #1
    9ea4:	e58d3000 	str	r3, [sp]
    9ea8:	e3401001 	movt	r1, #1
    9eac:	e3a03e3a 	mov	r3, #928	; 0x3a0
    9eb0:	e51f0210 	ldr	r0, [pc, #-528]	; 9ca8 <main+0x1c9c>
    9eb4:	eb001f97 	bl	11d18 <fprintf>
    9eb8:	e1a0100b 	mov	r1, fp
    9ebc:	e3e00000 	mvn	r0, #0
    9ec0:	eb001ac4 	bl	109d8 <get_msg>
    9ec4:	e5943000 	ldr	r3, [r4]
    9ec8:	e370002a 	cmn	r0, #42	; 0x2a
    9ecc:	03a08001 	moveq	r8, #1
    9ed0:	e2833001 	add	r3, r3, #1
    9ed4:	e5843000 	str	r3, [r4]
    9ed8:	0a000010 	beq	9f20 <main+0x1f14>
    9edc:	e30239dc 	movw	r3, #10716	; 0x29dc
    9ee0:	e3e0c029 	mvn	ip, #41	; 0x29
    9ee4:	e3403001 	movt	r3, #1
    9ee8:	e3022fc0 	movw	r2, #12224	; 0x2fc0
    9eec:	e30311a8 	movw	r1, #12712	; 0x31a8
    9ef0:	e58d0008 	str	r0, [sp, #8]
    9ef4:	e58d3000 	str	r3, [sp]
    9ef8:	e3402001 	movt	r2, #1
    9efc:	e3a03fe9 	mov	r3, #932	; 0x3a4
    9f00:	e58dc004 	str	ip, [sp, #4]
    9f04:	e3401001 	movt	r1, #1
    9f08:	e51f0268 	ldr	r0, [pc, #-616]	; 9ca8 <main+0x1c9c>
    9f0c:	eb001f81 	bl	11d18 <fprintf>
    9f10:	e59a3000 	ldr	r3, [sl]
    9f14:	e3a08000 	mov	r8, #0
    9f18:	e2833001 	add	r3, r3, #1
    9f1c:	e58a3000 	str	r3, [sl]
    9f20:	e1a0100b 	mov	r1, fp
    9f24:	e3a00080 	mov	r0, #128	; 0x80
    9f28:	eb001aaa 	bl	109d8 <get_msg>
    9f2c:	e5943000 	ldr	r3, [r4]
    9f30:	e370002a 	cmn	r0, #42	; 0x2a
    9f34:	e2833001 	add	r3, r3, #1
    9f38:	e5843000 	str	r3, [r4]
    9f3c:	0a000010 	beq	9f84 <main+0x1f78>
    9f40:	e30239dc 	movw	r3, #10716	; 0x29dc
    9f44:	e3e0c029 	mvn	ip, #41	; 0x29
    9f48:	e3403001 	movt	r3, #1
    9f4c:	e3022fc0 	movw	r2, #12224	; 0x2fc0
    9f50:	e30311a8 	movw	r1, #12712	; 0x31a8
    9f54:	e58d0008 	str	r0, [sp, #8]
    9f58:	e58d3000 	str	r3, [sp]
    9f5c:	e3402001 	movt	r2, #1
    9f60:	e3a03fea 	mov	r3, #936	; 0x3a8
    9f64:	e58dc004 	str	ip, [sp, #4]
    9f68:	e3401001 	movt	r1, #1
    9f6c:	e51f02cc 	ldr	r0, [pc, #-716]	; 9ca8 <main+0x1c9c>
    9f70:	eb001f68 	bl	11d18 <fprintf>
    9f74:	e59a3000 	ldr	r3, [sl]
    9f78:	e3a08000 	mov	r8, #0
    9f7c:	e2833001 	add	r3, r3, #1
    9f80:	e58a3000 	str	r3, [sl]
    9f84:	e3027fc0 	movw	r7, #12224	; 0x2fc0
    9f88:	e3036130 	movw	r6, #12592	; 0x3130
    9f8c:	e30239dc 	movw	r3, #10716	; 0x29dc
    9f90:	e3407001 	movt	r7, #1
    9f94:	e3406001 	movt	r6, #1
    9f98:	e3a05002 	mov	r5, #2
    9f9c:	e3403001 	movt	r3, #1
    9fa0:	e58d3014 	str	r3, [sp, #20]
    9fa4:	e1a0100b 	mov	r1, fp
    9fa8:	e1a00005 	mov	r0, r5
    9fac:	eb001a89 	bl	109d8 <get_msg>
    9fb0:	e594c000 	ldr	ip, [r4]
    9fb4:	e1a0e000 	mov	lr, r0
    9fb8:	e3e09001 	mvn	r9, #1
    9fbc:	e51f031c 	ldr	r0, [pc, #-796]	; 9ca8 <main+0x1c9c>
    9fc0:	e15e0009 	cmp	lr, r9
    9fc4:	e30033ad 	movw	r3, #941	; 0x3ad
    9fc8:	e28cc001 	add	ip, ip, #1
    9fcc:	e1a02007 	mov	r2, r7
    9fd0:	e1a01006 	mov	r1, r6
    9fd4:	e2855001 	add	r5, r5, #1
    9fd8:	e584c000 	str	ip, [r4]
    9fdc:	0a000008 	beq	a004 <main+0x1ff8>
    9fe0:	e59dc014 	ldr	ip, [sp, #20]
    9fe4:	e3a08000 	mov	r8, #0
    9fe8:	e58de008 	str	lr, [sp, #8]
    9fec:	e58d9004 	str	r9, [sp, #4]
    9ff0:	e58dc000 	str	ip, [sp]
    9ff4:	eb001f47 	bl	11d18 <fprintf>
    9ff8:	e59a3000 	ldr	r3, [sl]
    9ffc:	e2833001 	add	r3, r3, #1
    a000:	e58a3000 	str	r3, [sl]
    a004:	e3550080 	cmp	r5, #128	; 0x80
    a008:	1affffe5 	bne	9fa4 <main+0x1f98>
    a00c:	e3033270 	movw	r3, #12912	; 0x3270
    a010:	e3022fe4 	movw	r2, #12260	; 0x2fe4
    a014:	e303127c 	movw	r1, #12924	; 0x327c
    a018:	e3403001 	movt	r3, #1
    a01c:	e3402001 	movt	r2, #1
    a020:	e3401001 	movt	r1, #1
    a024:	e28d0e17 	add	r0, sp, #368	; 0x170
    a028:	eb001f20 	bl	11cb0 <sprintf>
    a02c:	e3a03001 	mov	r3, #1
    a030:	e3a02a01 	mov	r2, #4096	; 0x1000
    a034:	e3a01002 	mov	r1, #2
    a038:	e28d0e17 	add	r0, sp, #368	; 0x170
    a03c:	eb001a50 	bl	10984 <port_create>
    a040:	e5943000 	ldr	r3, [r4]
    a044:	e2505000 	subs	r5, r0, #0
    a048:	e2833001 	add	r3, r3, #1
    a04c:	e5843000 	str	r3, [r4]
    a050:	ba0005c6 	blt	b770 <main+0x3764>
    a054:	e1a0100b 	mov	r1, fp
    a058:	e1a00005 	mov	r0, r5
    a05c:	eb001a5d 	bl	109d8 <get_msg>
    a060:	e5943000 	ldr	r3, [r4]
    a064:	e3700008 	cmn	r0, #8
    a068:	e2833001 	add	r3, r3, #1
    a06c:	e5843000 	str	r3, [r4]
    a070:	0a000010 	beq	a0b8 <main+0x20ac>
    a074:	e30239f8 	movw	r3, #10744	; 0x29f8
    a078:	e3e0c007 	mvn	ip, #7
    a07c:	e3403001 	movt	r3, #1
    a080:	e3022fc0 	movw	r2, #12224	; 0x2fc0
    a084:	e30312a0 	movw	r1, #12960	; 0x32a0
    a088:	e58d0008 	str	r0, [sp, #8]
    a08c:	e58d3000 	str	r3, [sp]
    a090:	e3402001 	movt	r2, #1
    a094:	e30033b9 	movw	r3, #953	; 0x3b9
    a098:	e58dc004 	str	ip, [sp, #4]
    a09c:	e3401001 	movt	r1, #1
    a0a0:	e51f0400 	ldr	r0, [pc, #-1024]	; 9ca8 <main+0x1c9c>
    a0a4:	eb001f1b 	bl	11d18 <fprintf>
    a0a8:	e59a3000 	ldr	r3, [sl]
    a0ac:	e3a08000 	mov	r8, #0
    a0b0:	e2833001 	add	r3, r3, #1
    a0b4:	e58a3000 	str	r3, [sl]
    a0b8:	e1a00005 	mov	r0, r5
    a0bc:	eb001a39 	bl	109a8 <close>
    a0c0:	e3033270 	movw	r3, #12912	; 0x3270
    a0c4:	e3022fe4 	movw	r2, #12260	; 0x2fe4
    a0c8:	e3021be0 	movw	r1, #11232	; 0x2be0
    a0cc:	e3403001 	movt	r3, #1
    a0d0:	e3402001 	movt	r2, #1
    a0d4:	e3401001 	movt	r1, #1
    a0d8:	e28d0e17 	add	r0, sp, #368	; 0x170
    a0dc:	eb001ef3 	bl	11cb0 <sprintf>
    a0e0:	e3a01ffa 	mov	r1, #1000	; 0x3e8
    a0e4:	e28d0e17 	add	r0, sp, #368	; 0x170
    a0e8:	eb00081b 	bl	c15c <sync_connect>
    a0ec:	e5943000 	ldr	r3, [r4]
    a0f0:	e2505000 	subs	r5, r0, #0
    a0f4:	e2833001 	add	r3, r3, #1
    a0f8:	e5843000 	str	r3, [r4]
    a0fc:	ba00058b 	blt	b730 <main+0x3724>
    a100:	e1a0100b 	mov	r1, fp
    a104:	e1a00005 	mov	r0, r5
    a108:	eb001a32 	bl	109d8 <get_msg>
    a10c:	e5943000 	ldr	r3, [r4]
    a110:	e3700004 	cmn	r0, #4
    a114:	e2833001 	add	r3, r3, #1
    a118:	e5843000 	str	r3, [r4]
    a11c:	0a000352 	beq	ae6c <main+0x2e60>
    a120:	e3023a08 	movw	r3, #10760	; 0x2a08
    a124:	e3e0c003 	mvn	ip, #3
    a128:	e3403001 	movt	r3, #1
    a12c:	e3022fc0 	movw	r2, #12224	; 0x2fc0
    a130:	e30217dc 	movw	r1, #10204	; 0x27dc
    a134:	e58d0008 	str	r0, [sp, #8]
    a138:	e58d3000 	str	r3, [sp]
    a13c:	e3402001 	movt	r2, #1
    a140:	e58dc004 	str	ip, [sp, #4]
    a144:	e3401001 	movt	r1, #1
    a148:	e30033c3 	movw	r3, #963	; 0x3c3
    a14c:	e51f04ac 	ldr	r0, [pc, #-1196]	; 9ca8 <main+0x1c9c>
    a150:	eb001ef0 	bl	11d18 <fprintf>
    a154:	e59a3000 	ldr	r3, [sl]
    a158:	e1a00005 	mov	r0, r5
    a15c:	e2833001 	add	r3, r3, #1
    a160:	e58a3000 	str	r3, [sl]
    a164:	eb001a0f 	bl	109a8 <close>
    a168:	e5943000 	ldr	r3, [r4]
    a16c:	e3500000 	cmp	r0, #0
    a170:	e2833001 	add	r3, r3, #1
    a174:	e5843000 	str	r3, [r4]
    a178:	1a0003d4 	bne	b0d0 <main+0x30c4>
    a17c:	e59d301c 	ldr	r3, [sp, #28]
    a180:	e3022fc0 	movw	r2, #12224	; 0x2fc0
    a184:	e3031194 	movw	r1, #12692	; 0x3194
    a188:	e3402001 	movt	r2, #1
    a18c:	e3401001 	movt	r1, #1
    a190:	e51f04f0 	ldr	r0, [pc, #-1264]	; 9ca8 <main+0x1c9c>
    a194:	e58d3000 	str	r3, [sp]
    a198:	e3a03ff2 	mov	r3, #968	; 0x3c8
    a19c:	eb001edd 	bl	11d18 <fprintf>
    a1a0:	e3023540 	movw	r3, #9536	; 0x2540
    a1a4:	e3022fc0 	movw	r2, #12224	; 0x2fc0
    a1a8:	e3403001 	movt	r3, #1
    a1ac:	e3021fd4 	movw	r1, #12244	; 0x2fd4
    a1b0:	e58d301c 	str	r3, [sp, #28]
    a1b4:	e3402001 	movt	r2, #1
    a1b8:	e58d3000 	str	r3, [sp]
    a1bc:	e3401001 	movt	r1, #1
    a1c0:	e30033d3 	movw	r3, #979	; 0x3d3
    a1c4:	e51f0524 	ldr	r0, [pc, #-1316]	; 9ca8 <main+0x1c9c>
    a1c8:	eb001ed2 	bl	11d18 <fprintf>
    a1cc:	e3a01000 	mov	r1, #0
    a1d0:	e3e00000 	mvn	r0, #0
    a1d4:	eb001a05 	bl	109f0 <put_msg>
    a1d8:	e5943000 	ldr	r3, [r4]
    a1dc:	e370002a 	cmn	r0, #42	; 0x2a
    a1e0:	03a08001 	moveq	r8, #1
    a1e4:	e2833001 	add	r3, r3, #1
    a1e8:	e5843000 	str	r3, [r4]
    a1ec:	0a000010 	beq	a234 <main+0x2228>
    a1f0:	e3023a24 	movw	r3, #10788	; 0x2a24
    a1f4:	e3e0c029 	mvn	ip, #41	; 0x29
    a1f8:	e3403001 	movt	r3, #1
    a1fc:	e3022fc0 	movw	r2, #12224	; 0x2fc0
    a200:	e30311a8 	movw	r1, #12712	; 0x31a8
    a204:	e58d0008 	str	r0, [sp, #8]
    a208:	e58d3000 	str	r3, [sp]
    a20c:	e3402001 	movt	r2, #1
    a210:	e30033d7 	movw	r3, #983	; 0x3d7
    a214:	e58dc004 	str	ip, [sp, #4]
    a218:	e3401001 	movt	r1, #1
    a21c:	e51f057c 	ldr	r0, [pc, #-1404]	; 9ca8 <main+0x1c9c>
    a220:	eb001ebc 	bl	11d18 <fprintf>
    a224:	e59a3000 	ldr	r3, [sl]
    a228:	e3a08000 	mov	r8, #0
    a22c:	e2833001 	add	r3, r3, #1
    a230:	e58a3000 	str	r3, [sl]
    a234:	e3a01000 	mov	r1, #0
    a238:	e3a00080 	mov	r0, #128	; 0x80
    a23c:	eb0019eb 	bl	109f0 <put_msg>
    a240:	e5943000 	ldr	r3, [r4]
    a244:	e370002a 	cmn	r0, #42	; 0x2a
    a248:	e2833001 	add	r3, r3, #1
    a24c:	e5843000 	str	r3, [r4]
    a250:	0a000010 	beq	a298 <main+0x228c>
    a254:	e3023a24 	movw	r3, #10788	; 0x2a24
    a258:	e3e0c029 	mvn	ip, #41	; 0x29
    a25c:	e3403001 	movt	r3, #1
    a260:	e3022fc0 	movw	r2, #12224	; 0x2fc0
    a264:	e30311a8 	movw	r1, #12712	; 0x31a8
    a268:	e58d0008 	str	r0, [sp, #8]
    a26c:	e58d3000 	str	r3, [sp]
    a270:	e3402001 	movt	r2, #1
    a274:	e30033db 	movw	r3, #987	; 0x3db
    a278:	e58dc004 	str	ip, [sp, #4]
    a27c:	e3401001 	movt	r1, #1
    a280:	e51f05e0 	ldr	r0, [pc, #-1504]	; 9ca8 <main+0x1c9c>
    a284:	eb001ea3 	bl	11d18 <fprintf>
    a288:	e59a3000 	ldr	r3, [sl]
    a28c:	e3a08000 	mov	r8, #0
    a290:	e2833001 	add	r3, r3, #1
    a294:	e58a3000 	str	r3, [sl]
    a298:	e3027fc0 	movw	r7, #12224	; 0x2fc0
    a29c:	e3036130 	movw	r6, #12592	; 0x3130
    a2a0:	e3023a24 	movw	r3, #10788	; 0x2a24
    a2a4:	e3407001 	movt	r7, #1
    a2a8:	e3406001 	movt	r6, #1
    a2ac:	e3a05002 	mov	r5, #2
    a2b0:	e3403001 	movt	r3, #1
    a2b4:	e58d3014 	str	r3, [sp, #20]
    a2b8:	e3a01000 	mov	r1, #0
    a2bc:	e1a00005 	mov	r0, r5
    a2c0:	eb0019ca 	bl	109f0 <put_msg>
    a2c4:	e594c000 	ldr	ip, [r4]
    a2c8:	e1a0e000 	mov	lr, r0
    a2cc:	e3e09001 	mvn	r9, #1
    a2d0:	e51f0630 	ldr	r0, [pc, #-1584]	; 9ca8 <main+0x1c9c>
    a2d4:	e15e0009 	cmp	lr, r9
    a2d8:	e3a03e3e 	mov	r3, #992	; 0x3e0
    a2dc:	e28cc001 	add	ip, ip, #1
    a2e0:	e1a02007 	mov	r2, r7
    a2e4:	e1a01006 	mov	r1, r6
    a2e8:	e2855001 	add	r5, r5, #1
    a2ec:	e584c000 	str	ip, [r4]
    a2f0:	0a000008 	beq	a318 <main+0x230c>
    a2f4:	e59dc014 	ldr	ip, [sp, #20]
    a2f8:	e3a08000 	mov	r8, #0
    a2fc:	e58de008 	str	lr, [sp, #8]
    a300:	e58d9004 	str	r9, [sp, #4]
    a304:	e58dc000 	str	ip, [sp]
    a308:	eb001e82 	bl	11d18 <fprintf>
    a30c:	e59a3000 	ldr	r3, [sl]
    a310:	e2833001 	add	r3, r3, #1
    a314:	e58a3000 	str	r3, [sl]
    a318:	e3550080 	cmp	r5, #128	; 0x80
    a31c:	1affffe5 	bne	a2b8 <main+0x22ac>
    a320:	e3033270 	movw	r3, #12912	; 0x3270
    a324:	e3022fe4 	movw	r2, #12260	; 0x2fe4
    a328:	e303127c 	movw	r1, #12924	; 0x327c
    a32c:	e3403001 	movt	r3, #1
    a330:	e3402001 	movt	r2, #1
    a334:	e3401001 	movt	r1, #1
    a338:	e28d0e17 	add	r0, sp, #368	; 0x170
    a33c:	eb001e5b 	bl	11cb0 <sprintf>
    a340:	e3a03001 	mov	r3, #1
    a344:	e3a02a01 	mov	r2, #4096	; 0x1000
    a348:	e3a01002 	mov	r1, #2
    a34c:	e28d0e17 	add	r0, sp, #368	; 0x170
    a350:	eb00198b 	bl	10984 <port_create>
    a354:	e5943000 	ldr	r3, [r4]
    a358:	e2505000 	subs	r5, r0, #0
    a35c:	e2833001 	add	r3, r3, #1
    a360:	e5843000 	str	r3, [r4]
    a364:	ba000473 	blt	b538 <main+0x352c>
    a368:	e3a01000 	mov	r1, #0
    a36c:	e1a00005 	mov	r0, r5
    a370:	eb00199e 	bl	109f0 <put_msg>
    a374:	e5943000 	ldr	r3, [r4]
    a378:	e3700008 	cmn	r0, #8
    a37c:	e2833001 	add	r3, r3, #1
    a380:	e5843000 	str	r3, [r4]
    a384:	0a000010 	beq	a3cc <main+0x23c0>
    a388:	e3023a40 	movw	r3, #10816	; 0x2a40
    a38c:	e3e0c007 	mvn	ip, #7
    a390:	e3403001 	movt	r3, #1
    a394:	e3022fc0 	movw	r2, #12224	; 0x2fc0
    a398:	e30312a0 	movw	r1, #12960	; 0x32a0
    a39c:	e58d0008 	str	r0, [sp, #8]
    a3a0:	e58d3000 	str	r3, [sp]
    a3a4:	e3402001 	movt	r2, #1
    a3a8:	e3a03ffb 	mov	r3, #1004	; 0x3ec
    a3ac:	e58dc004 	str	ip, [sp, #4]
    a3b0:	e3401001 	movt	r1, #1
    a3b4:	e51f0714 	ldr	r0, [pc, #-1812]	; 9ca8 <main+0x1c9c>
    a3b8:	eb001e56 	bl	11d18 <fprintf>
    a3bc:	e59a3000 	ldr	r3, [sl]
    a3c0:	e3a08000 	mov	r8, #0
    a3c4:	e2833001 	add	r3, r3, #1
    a3c8:	e58a3000 	str	r3, [sl]
    a3cc:	e1a00005 	mov	r0, r5
    a3d0:	eb001974 	bl	109a8 <close>
    a3d4:	e5943000 	ldr	r3, [r4]
    a3d8:	e3500000 	cmp	r0, #0
    a3dc:	e2833001 	add	r3, r3, #1
    a3e0:	e5843000 	str	r3, [r4]
    a3e4:	0a000010 	beq	a42c <main+0x2420>
    a3e8:	e3023ce4 	movw	r3, #11492	; 0x2ce4
    a3ec:	e3a05000 	mov	r5, #0
    a3f0:	e3403001 	movt	r3, #1
    a3f4:	e3022fc0 	movw	r2, #12224	; 0x2fc0
    a3f8:	e30310ec 	movw	r1, #12524	; 0x30ec
    a3fc:	e58d0008 	str	r0, [sp, #8]
    a400:	e58d3000 	str	r3, [sp]
    a404:	e3402001 	movt	r2, #1
    a408:	e30033ee 	movw	r3, #1006	; 0x3ee
    a40c:	e58d5004 	str	r5, [sp, #4]
    a410:	e3401001 	movt	r1, #1
    a414:	e51f0774 	ldr	r0, [pc, #-1908]	; 9ca8 <main+0x1c9c>
    a418:	eb001e3e 	bl	11d18 <fprintf>
    a41c:	e59a3000 	ldr	r3, [sl]
    a420:	e1a08005 	mov	r8, r5
    a424:	e2833001 	add	r3, r3, #1
    a428:	e58a3000 	str	r3, [sl]
    a42c:	e3033270 	movw	r3, #12912	; 0x3270
    a430:	e3022fe4 	movw	r2, #12260	; 0x2fe4
    a434:	e3021be0 	movw	r1, #11232	; 0x2be0
    a438:	e3403001 	movt	r3, #1
    a43c:	e3402001 	movt	r2, #1
    a440:	e3401001 	movt	r1, #1
    a444:	e28d0e17 	add	r0, sp, #368	; 0x170
    a448:	eb001e18 	bl	11cb0 <sprintf>
    a44c:	e3a01ffa 	mov	r1, #1000	; 0x3e8
    a450:	e28d0e17 	add	r0, sp, #368	; 0x170
    a454:	eb000740 	bl	c15c <sync_connect>
    a458:	e5943000 	ldr	r3, [r4]
    a45c:	e2505000 	subs	r5, r0, #0
    a460:	e2833001 	add	r3, r3, #1
    a464:	e5843000 	str	r3, [r4]
    a468:	ba000481 	blt	b674 <main+0x3668>
    a46c:	e3a01000 	mov	r1, #0
    a470:	e1a00005 	mov	r0, r5
    a474:	eb00195d 	bl	109f0 <put_msg>
    a478:	e5943000 	ldr	r3, [r4]
    a47c:	e3700008 	cmn	r0, #8
    a480:	e2833001 	add	r3, r3, #1
    a484:	e5843000 	str	r3, [r4]
    a488:	0a000249 	beq	adb4 <main+0x2da8>
    a48c:	e3023a50 	movw	r3, #10832	; 0x2a50
    a490:	e3e0c007 	mvn	ip, #7
    a494:	e3403001 	movt	r3, #1
    a498:	e3022fc0 	movw	r2, #12224	; 0x2fc0
    a49c:	e30312a0 	movw	r1, #12960	; 0x32a0
    a4a0:	e58d0008 	str	r0, [sp, #8]
    a4a4:	e58d3000 	str	r3, [sp]
    a4a8:	e3402001 	movt	r2, #1
    a4ac:	e58dc004 	str	ip, [sp, #4]
    a4b0:	e3401001 	movt	r1, #1
    a4b4:	e30033f7 	movw	r3, #1015	; 0x3f7
    a4b8:	e51f0818 	ldr	r0, [pc, #-2072]	; 9ca8 <main+0x1c9c>
    a4bc:	eb001e15 	bl	11d18 <fprintf>
    a4c0:	e59a3000 	ldr	r3, [sl]
    a4c4:	e1a00005 	mov	r0, r5
    a4c8:	e2833001 	add	r3, r3, #1
    a4cc:	e58a3000 	str	r3, [sl]
    a4d0:	eb001934 	bl	109a8 <close>
    a4d4:	e5943000 	ldr	r3, [r4]
    a4d8:	e3500000 	cmp	r0, #0
    a4dc:	e2833001 	add	r3, r3, #1
    a4e0:	e5843000 	str	r3, [r4]
    a4e4:	1a0002e8 	bne	b08c <main+0x3080>
    a4e8:	e59d301c 	ldr	r3, [sp, #28]
    a4ec:	e3022fc0 	movw	r2, #12224	; 0x2fc0
    a4f0:	e3031194 	movw	r1, #12692	; 0x3194
    a4f4:	e3402001 	movt	r2, #1
    a4f8:	e3401001 	movt	r1, #1
    a4fc:	e51f085c 	ldr	r0, [pc, #-2140]	; 9ca8 <main+0x1c9c>
    a500:	e58d3000 	str	r3, [sp]
    a504:	e30033fb 	movw	r3, #1019	; 0x3fb
    a508:	eb001e02 	bl	11d18 <fprintf>
    a50c:	e3023570 	movw	r3, #9584	; 0x2570
    a510:	e3022fc0 	movw	r2, #12224	; 0x2fc0
    a514:	e3403001 	movt	r3, #1
    a518:	e3021fd4 	movw	r1, #12244	; 0x2fd4
    a51c:	e58d3030 	str	r3, [sp, #48]	; 0x30
    a520:	e3402001 	movt	r2, #1
    a524:	e58d3000 	str	r3, [sp]
    a528:	e3401001 	movt	r1, #1
    a52c:	e3003445 	movw	r3, #1093	; 0x445
    a530:	e51f0890 	ldr	r0, [pc, #-2192]	; 9ca8 <main+0x1c9c>
    a534:	eb001df7 	bl	11d18 <fprintf>
    a538:	e59d5024 	ldr	r5, [sp, #36]	; 0x24
    a53c:	e3a02010 	mov	r2, #16
    a540:	e3a01000 	mov	r1, #0
    a544:	e1a00005 	mov	r0, r5
    a548:	eb001e1a 	bl	11db8 <memset>
    a54c:	e1a01005 	mov	r1, r5
    a550:	e3e00000 	mvn	r0, #0
    a554:	eb001928 	bl	109fc <send_msg>
    a558:	e5943000 	ldr	r3, [r4]
    a55c:	e370002a 	cmn	r0, #42	; 0x2a
    a560:	03a07001 	moveq	r7, #1
    a564:	e2833001 	add	r3, r3, #1
    a568:	e5843000 	str	r3, [r4]
    a56c:	0a000010 	beq	a5b4 <main+0x25a8>
    a570:	e3023a6c 	movw	r3, #10860	; 0x2a6c
    a574:	e3e0c029 	mvn	ip, #41	; 0x29
    a578:	e3403001 	movt	r3, #1
    a57c:	e3022fc0 	movw	r2, #12224	; 0x2fc0
    a580:	e30311a8 	movw	r1, #12712	; 0x31a8
    a584:	e58d0008 	str	r0, [sp, #8]
    a588:	e58d3000 	str	r3, [sp]
    a58c:	e3402001 	movt	r2, #1
    a590:	e300344c 	movw	r3, #1100	; 0x44c
    a594:	e58dc004 	str	ip, [sp, #4]
    a598:	e3401001 	movt	r1, #1
    a59c:	e51f08fc 	ldr	r0, [pc, #-2300]	; 9ca8 <main+0x1c9c>
    a5a0:	eb001ddc 	bl	11d18 <fprintf>
    a5a4:	e59a3000 	ldr	r3, [sl]
    a5a8:	e3a07000 	mov	r7, #0
    a5ac:	e2833001 	add	r3, r3, #1
    a5b0:	e58a3000 	str	r3, [sl]
    a5b4:	e3a01000 	mov	r1, #0
    a5b8:	e3e00000 	mvn	r0, #0
    a5bc:	eb00190e 	bl	109fc <send_msg>
    a5c0:	e5943000 	ldr	r3, [r4]
    a5c4:	e3700028 	cmn	r0, #40	; 0x28
    a5c8:	e2833001 	add	r3, r3, #1
    a5cc:	e5843000 	str	r3, [r4]
    a5d0:	0a000010 	beq	a618 <main+0x260c>
    a5d4:	e3023a88 	movw	r3, #10888	; 0x2a88
    a5d8:	e3e0c027 	mvn	ip, #39	; 0x27
    a5dc:	e3403001 	movt	r3, #1
    a5e0:	e3022fc0 	movw	r2, #12224	; 0x2fc0
    a5e4:	e3031200 	movw	r1, #12800	; 0x3200
    a5e8:	e58d0008 	str	r0, [sp, #8]
    a5ec:	e58d3000 	str	r3, [sp]
    a5f0:	e3402001 	movt	r2, #1
    a5f4:	e3a03e45 	mov	r3, #1104	; 0x450
    a5f8:	e58dc004 	str	ip, [sp, #4]
    a5fc:	e3401001 	movt	r1, #1
    a600:	e51f0960 	ldr	r0, [pc, #-2400]	; 9ca8 <main+0x1c9c>
    a604:	eb001dc3 	bl	11d18 <fprintf>
    a608:	e59a3000 	ldr	r3, [sl]
    a60c:	e3a07000 	mov	r7, #0
    a610:	e2833001 	add	r3, r3, #1
    a614:	e58a3000 	str	r3, [sl]
    a618:	e59d1024 	ldr	r1, [sp, #36]	; 0x24
    a61c:	e3a00080 	mov	r0, #128	; 0x80
    a620:	eb0018f5 	bl	109fc <send_msg>
    a624:	e5943000 	ldr	r3, [r4]
    a628:	e370002a 	cmn	r0, #42	; 0x2a
    a62c:	e2833001 	add	r3, r3, #1
    a630:	e5843000 	str	r3, [r4]
    a634:	0a000010 	beq	a67c <main+0x2670>
    a638:	e3023a6c 	movw	r3, #10860	; 0x2a6c
    a63c:	e3e0c029 	mvn	ip, #41	; 0x29
    a640:	e3403001 	movt	r3, #1
    a644:	e3022fc0 	movw	r2, #12224	; 0x2fc0
    a648:	e30311a8 	movw	r1, #12712	; 0x31a8
    a64c:	e58d0008 	str	r0, [sp, #8]
    a650:	e58d3000 	str	r3, [sp]
    a654:	e3402001 	movt	r2, #1
    a658:	e3003454 	movw	r3, #1108	; 0x454
    a65c:	e58dc004 	str	ip, [sp, #4]
    a660:	e3401001 	movt	r1, #1
    a664:	e51f09c4 	ldr	r0, [pc, #-2500]	; 9ca8 <main+0x1c9c>
    a668:	eb001daa 	bl	11d18 <fprintf>
    a66c:	e59a3000 	ldr	r3, [sl]
    a670:	e3a07000 	mov	r7, #0
    a674:	e2833001 	add	r3, r3, #1
    a678:	e58a3000 	str	r3, [sl]
    a67c:	e3a01000 	mov	r1, #0
    a680:	e3a00080 	mov	r0, #128	; 0x80
    a684:	eb0018dc 	bl	109fc <send_msg>
    a688:	e5943000 	ldr	r3, [r4]
    a68c:	e3700028 	cmn	r0, #40	; 0x28
    a690:	e2833001 	add	r3, r3, #1
    a694:	e5843000 	str	r3, [r4]
    a698:	0a000010 	beq	a6e0 <main+0x26d4>
    a69c:	e3023a88 	movw	r3, #10888	; 0x2a88
    a6a0:	e3e0c027 	mvn	ip, #39	; 0x27
    a6a4:	e3403001 	movt	r3, #1
    a6a8:	e3022fc0 	movw	r2, #12224	; 0x2fc0
    a6ac:	e3031200 	movw	r1, #12800	; 0x3200
    a6b0:	e58d0008 	str	r0, [sp, #8]
    a6b4:	e58d3000 	str	r3, [sp]
    a6b8:	e3402001 	movt	r2, #1
    a6bc:	e3003458 	movw	r3, #1112	; 0x458
    a6c0:	e58dc004 	str	ip, [sp, #4]
    a6c4:	e3401001 	movt	r1, #1
    a6c8:	e51f0a28 	ldr	r0, [pc, #-2600]	; 9ca8 <main+0x1c9c>
    a6cc:	eb001d91 	bl	11d18 <fprintf>
    a6d0:	e59a3000 	ldr	r3, [sl]
    a6d4:	e3a07000 	mov	r7, #0
    a6d8:	e2833001 	add	r3, r3, #1
    a6dc:	e58a3000 	str	r3, [sl]
    a6e0:	e3026fc0 	movw	r6, #12224	; 0x2fc0
    a6e4:	e3023aa0 	movw	r3, #10912	; 0x2aa0
    a6e8:	e3032130 	movw	r2, #12592	; 0x3130
    a6ec:	e3406001 	movt	r6, #1
    a6f0:	e3a05002 	mov	r5, #2
    a6f4:	e3403001 	movt	r3, #1
    a6f8:	e3402001 	movt	r2, #1
    a6fc:	e58d301c 	str	r3, [sp, #28]
    a700:	e58d2014 	str	r2, [sp, #20]
    a704:	e59d1024 	ldr	r1, [sp, #36]	; 0x24
    a708:	e1a00005 	mov	r0, r5
    a70c:	eb0018ba 	bl	109fc <send_msg>
    a710:	e594c000 	ldr	ip, [r4]
    a714:	e1a0e000 	mov	lr, r0
    a718:	e3e08001 	mvn	r8, #1
    a71c:	e51f0a7c 	ldr	r0, [pc, #-2684]	; 9ca8 <main+0x1c9c>
    a720:	e15e0008 	cmp	lr, r8
    a724:	e300345d 	movw	r3, #1117	; 0x45d
    a728:	e28cc001 	add	ip, ip, #1
    a72c:	e1a02006 	mov	r2, r6
    a730:	e59d1014 	ldr	r1, [sp, #20]
    a734:	e584c000 	str	ip, [r4]
    a738:	0a000008 	beq	a760 <main+0x2754>
    a73c:	e59dc01c 	ldr	ip, [sp, #28]
    a740:	e3a07000 	mov	r7, #0
    a744:	e58de008 	str	lr, [sp, #8]
    a748:	e58d8004 	str	r8, [sp, #4]
    a74c:	e58dc000 	str	ip, [sp]
    a750:	eb001d70 	bl	11d18 <fprintf>
    a754:	e59a3000 	ldr	r3, [sl]
    a758:	e2833001 	add	r3, r3, #1
    a75c:	e58a3000 	str	r3, [sl]
    a760:	e3a01000 	mov	r1, #0
    a764:	e1a00005 	mov	r0, r5
    a768:	eb0018a3 	bl	109fc <send_msg>
    a76c:	e594c000 	ldr	ip, [r4]
    a770:	e1a08000 	mov	r8, r0
    a774:	e3e09027 	mvn	r9, #39	; 0x27
    a778:	e302ea88 	movw	lr, #10888	; 0x2a88
    a77c:	e1580009 	cmp	r8, r9
    a780:	e3031200 	movw	r1, #12800	; 0x3200
    a784:	e28cc001 	add	ip, ip, #1
    a788:	e51f0ae8 	ldr	r0, [pc, #-2792]	; 9ca8 <main+0x1c9c>
    a78c:	e340e001 	movt	lr, #1
    a790:	e3003461 	movw	r3, #1121	; 0x461
    a794:	e1a02006 	mov	r2, r6
    a798:	e3401001 	movt	r1, #1
    a79c:	e2855001 	add	r5, r5, #1
    a7a0:	e584c000 	str	ip, [r4]
    a7a4:	0a000007 	beq	a7c8 <main+0x27bc>
    a7a8:	e58d8008 	str	r8, [sp, #8]
    a7ac:	e3a07000 	mov	r7, #0
    a7b0:	e58d9004 	str	r9, [sp, #4]
    a7b4:	e58de000 	str	lr, [sp]
    a7b8:	eb001d56 	bl	11d18 <fprintf>
    a7bc:	e59a3000 	ldr	r3, [sl]
    a7c0:	e2833001 	add	r3, r3, #1
    a7c4:	e58a3000 	str	r3, [sl]
    a7c8:	e3550080 	cmp	r5, #128	; 0x80
    a7cc:	1affffcc 	bne	a704 <main+0x26f8>
    a7d0:	e3033270 	movw	r3, #12912	; 0x3270
    a7d4:	e3022fe4 	movw	r2, #12260	; 0x2fe4
    a7d8:	e303127c 	movw	r1, #12924	; 0x327c
    a7dc:	e3403001 	movt	r3, #1
    a7e0:	e3402001 	movt	r2, #1
    a7e4:	e3401001 	movt	r1, #1
    a7e8:	e1a0000b 	mov	r0, fp
    a7ec:	eb001d2f 	bl	11cb0 <sprintf>
    a7f0:	e3a03001 	mov	r3, #1
    a7f4:	e3a02a01 	mov	r2, #4096	; 0x1000
    a7f8:	e3a01002 	mov	r1, #2
    a7fc:	e1a0000b 	mov	r0, fp
    a800:	eb00185f 	bl	10984 <port_create>
    a804:	e5943000 	ldr	r3, [r4]
    a808:	e2505000 	subs	r5, r0, #0
    a80c:	e2833001 	add	r3, r3, #1
    a810:	e5843000 	str	r3, [r4]
    a814:	ba000337 	blt	b4f8 <main+0x34ec>
    a818:	e59d1024 	ldr	r1, [sp, #36]	; 0x24
    a81c:	e1a00005 	mov	r0, r5
    a820:	eb001875 	bl	109fc <send_msg>
    a824:	e5943000 	ldr	r3, [r4]
    a828:	e3700008 	cmn	r0, #8
    a82c:	e2833001 	add	r3, r3, #1
    a830:	e5843000 	str	r3, [r4]
    a834:	0a000010 	beq	a87c <main+0x2870>
    a838:	e3023ab8 	movw	r3, #10936	; 0x2ab8
    a83c:	e3e0c007 	mvn	ip, #7
    a840:	e3403001 	movt	r3, #1
    a844:	e3022fc0 	movw	r2, #12224	; 0x2fc0
    a848:	e30312a0 	movw	r1, #12960	; 0x32a0
    a84c:	e58d0008 	str	r0, [sp, #8]
    a850:	e58d3000 	str	r3, [sp]
    a854:	e3402001 	movt	r2, #1
    a858:	e300346d 	movw	r3, #1133	; 0x46d
    a85c:	e58dc004 	str	ip, [sp, #4]
    a860:	e3401001 	movt	r1, #1
    a864:	e51f0bc4 	ldr	r0, [pc, #-3012]	; 9ca8 <main+0x1c9c>
    a868:	eb001d2a 	bl	11d18 <fprintf>
    a86c:	e59a3000 	ldr	r3, [sl]
    a870:	e3a07000 	mov	r7, #0
    a874:	e2833001 	add	r3, r3, #1
    a878:	e58a3000 	str	r3, [sl]
    a87c:	e1a00005 	mov	r0, r5
    a880:	eb001848 	bl	109a8 <close>
    a884:	e3033270 	movw	r3, #12912	; 0x3270
    a888:	e3022fe4 	movw	r2, #12260	; 0x2fe4
    a88c:	e3021be0 	movw	r1, #11232	; 0x2be0
    a890:	e3403001 	movt	r3, #1
    a894:	e3402001 	movt	r2, #1
    a898:	e3401001 	movt	r1, #1
    a89c:	e1a0000b 	mov	r0, fp
    a8a0:	eb001d02 	bl	11cb0 <sprintf>
    a8a4:	e1a0000b 	mov	r0, fp
    a8a8:	e3a01ffa 	mov	r1, #1000	; 0x3e8
    a8ac:	eb00062a 	bl	c15c <sync_connect>
    a8b0:	e5943000 	ldr	r3, [r4]
    a8b4:	e2505000 	subs	r5, r0, #0
    a8b8:	e2833001 	add	r3, r3, #1
    a8bc:	e5843000 	str	r3, [r4]
    a8c0:	ba00035b 	blt	b634 <main+0x3628>
    a8c4:	e3a03001 	mov	r3, #1
    a8c8:	e59d1024 	ldr	r1, [sp, #36]	; 0x24
    a8cc:	e1a00005 	mov	r0, r5
    a8d0:	e58d30f8 	str	r3, [sp, #248]	; 0xf8
    a8d4:	eb001848 	bl	109fc <send_msg>
    a8d8:	e5943000 	ldr	r3, [r4]
    a8dc:	e3700018 	cmn	r0, #24
    a8e0:	e2833001 	add	r3, r3, #1
    a8e4:	e5843000 	str	r3, [r4]
    a8e8:	0a000010 	beq	a930 <main+0x2924>
    a8ec:	e3023acc 	movw	r3, #10956	; 0x2acc
    a8f0:	e3e0c017 	mvn	ip, #23
    a8f4:	e3403001 	movt	r3, #1
    a8f8:	e3022fc0 	movw	r2, #12224	; 0x2fc0
    a8fc:	e30313d0 	movw	r1, #13264	; 0x33d0
    a900:	e58d0008 	str	r0, [sp, #8]
    a904:	e58d3000 	str	r3, [sp]
    a908:	e3402001 	movt	r2, #1
    a90c:	e3003479 	movw	r3, #1145	; 0x479
    a910:	e58dc004 	str	ip, [sp, #4]
    a914:	e3401001 	movt	r1, #1
    a918:	e51f0c78 	ldr	r0, [pc, #-3192]	; 9ca8 <main+0x1c9c>
    a91c:	eb001cfd 	bl	11d18 <fprintf>
    a920:	e59a3000 	ldr	r3, [sl]
    a924:	e3a07000 	mov	r7, #0
    a928:	e2833001 	add	r3, r3, #1
    a92c:	e58a3000 	str	r3, [sl]
    a930:	e3a06000 	mov	r6, #0
    a934:	e3a03001 	mov	r3, #1
    a938:	e59d1024 	ldr	r1, [sp, #36]	; 0x24
    a93c:	e1a00005 	mov	r0, r5
    a940:	e58d30f0 	str	r3, [sp, #240]	; 0xf0
    a944:	e58d60f8 	str	r6, [sp, #248]	; 0xf8
    a948:	e58d60fc 	str	r6, [sp, #252]	; 0xfc
    a94c:	e58d60f4 	str	r6, [sp, #244]	; 0xf4
    a950:	eb001829 	bl	109fc <send_msg>
    a954:	e5943000 	ldr	r3, [r4]
    a958:	e3700028 	cmn	r0, #40	; 0x28
    a95c:	e2833001 	add	r3, r3, #1
    a960:	e5843000 	str	r3, [r4]
    a964:	0a000010 	beq	a9ac <main+0x29a0>
    a968:	e3023adc 	movw	r3, #10972	; 0x2adc
    a96c:	e3e0c027 	mvn	ip, #39	; 0x27
    a970:	e3403001 	movt	r3, #1
    a974:	e3022fc0 	movw	r2, #12224	; 0x2fc0
    a978:	e3031200 	movw	r1, #12800	; 0x3200
    a97c:	e58d0008 	str	r0, [sp, #8]
    a980:	e58d3000 	str	r3, [sp]
    a984:	e3402001 	movt	r2, #1
    a988:	e3003481 	movw	r3, #1153	; 0x481
    a98c:	e58dc004 	str	ip, [sp, #4]
    a990:	e3401001 	movt	r1, #1
    a994:	e51f0cf4 	ldr	r0, [pc, #-3316]	; 9ca8 <main+0x1c9c>
    a998:	eb001cde 	bl	11d18 <fprintf>
    a99c:	e59a3000 	ldr	r3, [sl]
    a9a0:	e1a07006 	mov	r7, r6
    a9a4:	e2833001 	add	r3, r3, #1
    a9a8:	e58a3000 	str	r3, [sl]
    a9ac:	e1cd02d0 	ldrd	r0, [sp, #32]
    a9b0:	e3a03020 	mov	r3, #32
    a9b4:	e3a06000 	mov	r6, #0
    a9b8:	e3a02002 	mov	r2, #2
    a9bc:	e58d30a4 	str	r3, [sp, #164]	; 0xa4
    a9c0:	e58d00f4 	str	r0, [sp, #244]	; 0xf4
    a9c4:	e1a00005 	mov	r0, r5
    a9c8:	e58d30ac 	str	r3, [sp, #172]	; 0xac
    a9cc:	e58d60a0 	str	r6, [sp, #160]	; 0xa0
    a9d0:	e58d60a8 	str	r6, [sp, #168]	; 0xa8
    a9d4:	e58d20f0 	str	r2, [sp, #240]	; 0xf0
    a9d8:	eb001807 	bl	109fc <send_msg>
    a9dc:	e5943000 	ldr	r3, [r4]
    a9e0:	e3700028 	cmn	r0, #40	; 0x28
    a9e4:	e2833001 	add	r3, r3, #1
    a9e8:	e5843000 	str	r3, [r4]
    a9ec:	0a000010 	beq	aa34 <main+0x2a28>
    a9f0:	e3023af4 	movw	r3, #10996	; 0x2af4
    a9f4:	e3e0c027 	mvn	ip, #39	; 0x27
    a9f8:	e3403001 	movt	r3, #1
    a9fc:	e3022fc0 	movw	r2, #12224	; 0x2fc0
    aa00:	e3031200 	movw	r1, #12800	; 0x3200
    aa04:	e58d0008 	str	r0, [sp, #8]
    aa08:	e58d3000 	str	r3, [sp]
    aa0c:	e3402001 	movt	r2, #1
    aa10:	e300348b 	movw	r3, #1163	; 0x48b
    aa14:	e58dc004 	str	ip, [sp, #4]
    aa18:	e3401001 	movt	r1, #1
    aa1c:	e51f0d7c 	ldr	r0, [pc, #-3452]	; 9ca8 <main+0x1c9c>
    aa20:	eb001cbc 	bl	11d18 <fprintf>
    aa24:	e59a3000 	ldr	r3, [sl]
    aa28:	e1a07006 	mov	r7, r6
    aa2c:	e2833001 	add	r3, r3, #1
    aa30:	e58a3000 	str	r3, [sl]
    aa34:	e28d2e17 	add	r2, sp, #368	; 0x170
    aa38:	e3a03020 	mov	r3, #32
    aa3c:	e58d20a0 	str	r2, [sp, #160]	; 0xa0
    aa40:	e3a0c000 	mov	ip, #0
    aa44:	e59d2020 	ldr	r2, [sp, #32]
    aa48:	e1a00005 	mov	r0, r5
    aa4c:	e59d1024 	ldr	r1, [sp, #36]	; 0x24
    aa50:	e58d30a4 	str	r3, [sp, #164]	; 0xa4
    aa54:	e58d20f4 	str	r2, [sp, #244]	; 0xf4
    aa58:	e3a02002 	mov	r2, #2
    aa5c:	e58d30ac 	str	r3, [sp, #172]	; 0xac
    aa60:	e58dc0a8 	str	ip, [sp, #168]	; 0xa8
    aa64:	e58d20f0 	str	r2, [sp, #240]	; 0xf0
    aa68:	eb0017e3 	bl	109fc <send_msg>
    aa6c:	e5943000 	ldr	r3, [r4]
    aa70:	e3700028 	cmn	r0, #40	; 0x28
    aa74:	e2833001 	add	r3, r3, #1
    aa78:	e5843000 	str	r3, [r4]
    aa7c:	0a0000e7 	beq	ae20 <main+0x2e14>
    aa80:	e3023af4 	movw	r3, #10996	; 0x2af4
    aa84:	e3e0c027 	mvn	ip, #39	; 0x27
    aa88:	e3403001 	movt	r3, #1
    aa8c:	e3022fc0 	movw	r2, #12224	; 0x2fc0
    aa90:	e3031200 	movw	r1, #12800	; 0x3200
    aa94:	e58d0008 	str	r0, [sp, #8]
    aa98:	e58d3000 	str	r3, [sp]
    aa9c:	e3402001 	movt	r2, #1
    aaa0:	e58dc004 	str	ip, [sp, #4]
    aaa4:	e3401001 	movt	r1, #1
    aaa8:	e3003495 	movw	r3, #1173	; 0x495
    aaac:	e51f0e0c 	ldr	r0, [pc, #-3596]	; 9ca8 <main+0x1c9c>
    aab0:	eb001c98 	bl	11d18 <fprintf>
    aab4:	e59a3000 	ldr	r3, [sl]
    aab8:	e1a00005 	mov	r0, r5
    aabc:	e2833001 	add	r3, r3, #1
    aac0:	e58a3000 	str	r3, [sl]
    aac4:	eb0017b7 	bl	109a8 <close>
    aac8:	e5943000 	ldr	r3, [r4]
    aacc:	e3500000 	cmp	r0, #0
    aad0:	e2833001 	add	r3, r3, #1
    aad4:	e5843000 	str	r3, [r4]
    aad8:	1a000132 	bne	afa8 <main+0x2f9c>
    aadc:	e59d3030 	ldr	r3, [sp, #48]	; 0x30
    aae0:	e3022fc0 	movw	r2, #12224	; 0x2fc0
    aae4:	e3031194 	movw	r1, #12692	; 0x3194
    aae8:	e3402001 	movt	r2, #1
    aaec:	e3401001 	movt	r1, #1
    aaf0:	e51f0e50 	ldr	r0, [pc, #-3664]	; 9ca8 <main+0x1c9c>
    aaf4:	e58d3000 	str	r3, [sp]
    aaf8:	e300349a 	movw	r3, #1178	; 0x49a
    aafc:	eb001c85 	bl	11d18 <fprintf>
    ab00:	eb000b3d 	bl	d7fc <run_read_msg_negative_test>
    ab04:	e5940000 	ldr	r0, [r4]
    ab08:	e3022fc0 	movw	r2, #12224	; 0x2fc0
    ab0c:	e3021b08 	movw	r1, #11016	; 0x2b08
    ab10:	e3402001 	movt	r2, #1
    ab14:	e3401001 	movt	r1, #1
    ab18:	e30035d3 	movw	r3, #1491	; 0x5d3
    ab1c:	e58d0000 	str	r0, [sp]
    ab20:	e51f0e80 	ldr	r0, [pc, #-3712]	; 9ca8 <main+0x1c9c>
    ab24:	eb001c7b 	bl	11d18 <fprintf>
    ab28:	e59a0000 	ldr	r0, [sl]
    ab2c:	e3022fc0 	movw	r2, #12224	; 0x2fc0
    ab30:	e3021b28 	movw	r1, #11048	; 0x2b28
    ab34:	e3402001 	movt	r2, #1
    ab38:	e30035d4 	movw	r3, #1492	; 0x5d4
    ab3c:	e3401001 	movt	r1, #1
    ab40:	e58d0000 	str	r0, [sp]
    ab44:	e51f0ea4 	ldr	r0, [pc, #-3748]	; 9ca8 <main+0x1c9c>
    ab48:	eb001c72 	bl	11d18 <fprintf>
    ab4c:	e59a3000 	ldr	r3, [sl]
    ab50:	e3022fc0 	movw	r2, #12224	; 0x2fc0
    ab54:	e3530000 	cmp	r3, #0
    ab58:	0a0000a8 	beq	ae00 <main+0x2df4>
    ab5c:	e3021b64 	movw	r1, #11108	; 0x2b64
    ab60:	e30035d9 	movw	r3, #1497	; 0x5d9
    ab64:	e3402001 	movt	r2, #1
    ab68:	e3401001 	movt	r1, #1
    ab6c:	e51f0ecc 	ldr	r0, [pc, #-3788]	; 9ca8 <main+0x1c9c>
    ab70:	eb001c68 	bl	11d18 <fprintf>
    ab74:	e28d3048 	add	r3, sp, #72	; 0x48
    ab78:	e3a00007 	mov	r0, #7
    ab7c:	e3a01001 	mov	r1, #1
    ab80:	e58d3050 	str	r3, [sp, #80]	; 0x50
    ab84:	e28d2050 	add	r2, sp, #80	; 0x50
    ab88:	e3a03000 	mov	r3, #0
    ab8c:	e58d0054 	str	r0, [sp, #84]	; 0x54
    ab90:	e58d1080 	str	r1, [sp, #128]	; 0x80
    ab94:	e28d1080 	add	r1, sp, #128	; 0x80
    ab98:	e59d0028 	ldr	r0, [sp, #40]	; 0x28
    ab9c:	e58d2084 	str	r2, [sp, #132]	; 0x84
    aba0:	e58d3088 	str	r3, [sp, #136]	; 0x88
    aba4:	e58d308c 	str	r3, [sp, #140]	; 0x8c
    aba8:	eb001793 	bl	109fc <send_msg>
    abac:	e3500007 	cmp	r0, #7
    abb0:	0afff553 	beq	8104 <main+0xf8>
    abb4:	e3022fc0 	movw	r2, #12224	; 0x2fc0
    abb8:	e3021b80 	movw	r1, #11136	; 0x2b80
    abbc:	e3402001 	movt	r2, #1
    abc0:	e3401001 	movt	r1, #1
    abc4:	e3003619 	movw	r3, #1561	; 0x619
    abc8:	e51f0f28 	ldr	r0, [pc, #-3880]	; 9ca8 <main+0x1c9c>
    abcc:	eb001c51 	bl	11d18 <fprintf>
    abd0:	eafff54b 	b	8104 <main+0xf8>
    abd4:	e3022fc0 	movw	r2, #12224	; 0x2fc0
    abd8:	e30215f4 	movw	r1, #9716	; 0x25f4
    abdc:	e58d3000 	str	r3, [sp]
    abe0:	e3402001 	movt	r2, #1
    abe4:	e3401001 	movt	r1, #1
    abe8:	e30035f6 	movw	r3, #1526	; 0x5f6
    abec:	e51f0f4c 	ldr	r0, [pc, #-3916]	; 9ca8 <main+0x1c9c>
    abf0:	eb001c48 	bl	11d18 <fprintf>
    abf4:	eafff560 	b	817c <main+0x170>
    abf8:	e3a08000 	mov	r8, #0
    abfc:	e3022fc0 	movw	r2, #12224	; 0x2fc0
    ac00:	e30310ec 	movw	r1, #12524	; 0x30ec
    ac04:	e58d0008 	str	r0, [sp, #8]
    ac08:	e3a03e25 	mov	r3, #592	; 0x250
    ac0c:	e58d7000 	str	r7, [sp]
    ac10:	e3402001 	movt	r2, #1
    ac14:	e58d8004 	str	r8, [sp, #4]
    ac18:	e3401001 	movt	r1, #1
    ac1c:	e51f0f7c 	ldr	r0, [pc, #-3964]	; 9ca8 <main+0x1c9c>
    ac20:	eb001c3c 	bl	11d18 <fprintf>
    ac24:	e59a3000 	ldr	r3, [sl]
    ac28:	e2833001 	add	r3, r3, #1
    ac2c:	e58a3000 	str	r3, [sl]
    ac30:	eafff5f6 	b	8410 <main+0x404>
    ac34:	e3022fc0 	movw	r2, #12224	; 0x2fc0
    ac38:	e3031010 	movw	r1, #12304	; 0x3010
    ac3c:	e58d0004 	str	r0, [sp, #4]
    ac40:	e3003262 	movw	r3, #610	; 0x262
    ac44:	e3402001 	movt	r2, #1
    ac48:	e58d7000 	str	r7, [sp]
    ac4c:	e3401001 	movt	r1, #1
    ac50:	e51f0fb0 	ldr	r0, [pc, #-4016]	; 9ca8 <main+0x1c9c>
    ac54:	eb001c2f 	bl	11d18 <fprintf>
    ac58:	e59a3000 	ldr	r3, [sl]
    ac5c:	e1a00006 	mov	r0, r6
    ac60:	e2833001 	add	r3, r3, #1
    ac64:	e58a3000 	str	r3, [sl]
    ac68:	eb00174e 	bl	109a8 <close>
    ac6c:	e3022fc0 	movw	r2, #12224	; 0x2fc0
    ac70:	e3031194 	movw	r1, #12692	; 0x3194
    ac74:	e58d9000 	str	r9, [sp]
    ac78:	e3402001 	movt	r2, #1
    ac7c:	e3401001 	movt	r1, #1
    ac80:	e3003285 	movw	r3, #645	; 0x285
    ac84:	e51f0fe4 	ldr	r0, [pc, #-4068]	; 9ca8 <main+0x1c9c>
    ac88:	eb001c22 	bl	11d18 <fprintf>
    ac8c:	eafff667 	b	8630 <main+0x624>
    ac90:	e59d0068 	ldr	r0, [sp, #104]	; 0x68
    ac94:	e5843000 	str	r3, [r4]
    ac98:	e3500010 	cmp	r0, #16
    ac9c:	0a00001f 	beq	ad20 <main+0x2d14>
    aca0:	e30256dc 	movw	r5, #9948	; 0x26dc
    aca4:	e3405001 	movt	r5, #1
    aca8:	e3a03010 	mov	r3, #16
    acac:	e3022fc0 	movw	r2, #12224	; 0x2fc0
    acb0:	e30216f0 	movw	r1, #9968	; 0x26f0
    acb4:	e58d3004 	str	r3, [sp, #4]
    acb8:	e3402001 	movt	r2, #1
    acbc:	e3401001 	movt	r1, #1
    acc0:	e300342a 	movw	r3, #1066	; 0x42a
    acc4:	e58d0008 	str	r0, [sp, #8]
    acc8:	e58d5000 	str	r5, [sp]
    accc:	e59f0b90 	ldr	r0, [pc, #2960]	; b864 <main+0x3858>
    acd0:	eb001c10 	bl	11d18 <fprintf>
    acd4:	e59a3000 	ldr	r3, [sl]
    acd8:	e2833001 	add	r3, r3, #1
    acdc:	e58a3000 	str	r3, [sl]
    ace0:	eafff72f 	b	89a4 <main+0x998>
    ace4:	e59d3014 	ldr	r3, [sp, #20]
    ace8:	e3a05000 	mov	r5, #0
    acec:	e59d201c 	ldr	r2, [sp, #28]
    acf0:	e58d7008 	str	r7, [sp, #8]
    acf4:	e58d3000 	str	r3, [sp]
    acf8:	e3003428 	movw	r3, #1064	; 0x428
    acfc:	e58d5004 	str	r5, [sp, #4]
    ad00:	e59d1030 	ldr	r1, [sp, #48]	; 0x30
    ad04:	e59f0b58 	ldr	r0, [pc, #2904]	; b864 <main+0x3858>
    ad08:	eb001c02 	bl	11d18 <fprintf>
    ad0c:	e59a2000 	ldr	r2, [sl]
    ad10:	e5943000 	ldr	r3, [r4]
    ad14:	e2822001 	add	r2, r2, #1
    ad18:	e58a2000 	str	r2, [sl]
    ad1c:	eafff705 	b	8938 <main+0x92c>
    ad20:	e3550000 	cmp	r5, #0
    ad24:	0afff71e 	beq	89a4 <main+0x998>
    ad28:	e2588001 	subs	r8, r8, #1
    ad2c:	1afff6f1 	bne	88f8 <main+0x8ec>
    ad30:	e1a00006 	mov	r0, r6
    ad34:	eb00171b 	bl	109a8 <close>
    ad38:	e5943000 	ldr	r3, [r4]
    ad3c:	e3500000 	cmp	r0, #0
    ad40:	e2833001 	add	r3, r3, #1
    ad44:	e5843000 	str	r3, [r4]
    ad48:	1a000228 	bne	b5f0 <main+0x35e4>
    ad4c:	e3022fc0 	movw	r2, #12224	; 0x2fc0
    ad50:	e3031180 	movw	r1, #12672	; 0x3180
    ad54:	e58d9000 	str	r9, [sp]
    ad58:	e3402001 	movt	r2, #1
    ad5c:	e3401001 	movt	r1, #1
    ad60:	e3003437 	movw	r3, #1079	; 0x437
    ad64:	e59f0af8 	ldr	r0, [pc, #2808]	; b864 <main+0x3858>
    ad68:	eb001bea 	bl	11d18 <fprintf>
    ad6c:	eafff724 	b	8a04 <main+0x9f8>
    ad70:	e5943000 	ldr	r3, [r4]
    ad74:	e3570040 	cmp	r7, #64	; 0x40
    ad78:	e2833001 	add	r3, r3, #1
    ad7c:	e5843000 	str	r3, [r4]
    ad80:	0affffe8 	beq	ad28 <main+0x2d1c>
    ad84:	e3023730 	movw	r3, #10032	; 0x2730
    ad88:	e3a00040 	mov	r0, #64	; 0x40
    ad8c:	e3403001 	movt	r3, #1
    ad90:	e3022fc0 	movw	r2, #12224	; 0x2fc0
    ad94:	e3021e3c 	movw	r1, #11836	; 0x2e3c
    ad98:	e58d3000 	str	r3, [sp]
    ad9c:	e58d7008 	str	r7, [sp, #8]
    ada0:	e3402001 	movt	r2, #1
    ada4:	e58d0004 	str	r0, [sp, #4]
    ada8:	e3401001 	movt	r1, #1
    adac:	e300342c 	movw	r3, #1068	; 0x42c
    adb0:	eaffffc5 	b	accc <main+0x2cc0>
    adb4:	e1a00005 	mov	r0, r5
    adb8:	eb0016fa 	bl	109a8 <close>
    adbc:	e5943000 	ldr	r3, [r4]
    adc0:	e3500000 	cmp	r0, #0
    adc4:	e2833001 	add	r3, r3, #1
    adc8:	e5843000 	str	r3, [r4]
    adcc:	1a0000ae 	bne	b08c <main+0x3080>
    add0:	e3580000 	cmp	r8, #0
    add4:	0afffdc3 	beq	a4e8 <main+0x24dc>
    add8:	e59d301c 	ldr	r3, [sp, #28]
    addc:	e3022fc0 	movw	r2, #12224	; 0x2fc0
    ade0:	e3031180 	movw	r1, #12672	; 0x3180
    ade4:	e3402001 	movt	r2, #1
    ade8:	e3401001 	movt	r1, #1
    adec:	e59f0a70 	ldr	r0, [pc, #2672]	; b864 <main+0x3858>
    adf0:	e58d3000 	str	r3, [sp]
    adf4:	e30033fb 	movw	r3, #1019	; 0x3fb
    adf8:	eb001bc6 	bl	11d18 <fprintf>
    adfc:	eafffdc2 	b	a50c <main+0x2500>
    ae00:	e3021b48 	movw	r1, #11080	; 0x2b48
    ae04:	e30035d6 	movw	r3, #1494	; 0x5d6
    ae08:	e3402001 	movt	r2, #1
    ae0c:	e3401001 	movt	r1, #1
    ae10:	e59f0a4c 	ldr	r0, [pc, #2636]	; b864 <main+0x3858>
    ae14:	eb001bbf 	bl	11d18 <fprintf>
    ae18:	e28d3040 	add	r3, sp, #64	; 0x40
    ae1c:	eaffff55 	b	ab78 <main+0x2b6c>
    ae20:	e1a00005 	mov	r0, r5
    ae24:	eb0016df 	bl	109a8 <close>
    ae28:	e5943000 	ldr	r3, [r4]
    ae2c:	e3500000 	cmp	r0, #0
    ae30:	e2833001 	add	r3, r3, #1
    ae34:	e5843000 	str	r3, [r4]
    ae38:	1a00005a 	bne	afa8 <main+0x2f9c>
    ae3c:	e3570000 	cmp	r7, #0
    ae40:	0affff25 	beq	aadc <main+0x2ad0>
    ae44:	e59d3030 	ldr	r3, [sp, #48]	; 0x30
    ae48:	e3022fc0 	movw	r2, #12224	; 0x2fc0
    ae4c:	e3031180 	movw	r1, #12672	; 0x3180
    ae50:	e3402001 	movt	r2, #1
    ae54:	e3401001 	movt	r1, #1
    ae58:	e59f0a04 	ldr	r0, [pc, #2564]	; b864 <main+0x3858>
    ae5c:	e58d3000 	str	r3, [sp]
    ae60:	e300349a 	movw	r3, #1178	; 0x49a
    ae64:	eb001bab 	bl	11d18 <fprintf>
    ae68:	eaffff24 	b	ab00 <main+0x2af4>
    ae6c:	e1a00005 	mov	r0, r5
    ae70:	eb0016cc 	bl	109a8 <close>
    ae74:	e5943000 	ldr	r3, [r4]
    ae78:	e3500000 	cmp	r0, #0
    ae7c:	e2833001 	add	r3, r3, #1
    ae80:	e5843000 	str	r3, [r4]
    ae84:	1a000091 	bne	b0d0 <main+0x30c4>
    ae88:	e3580000 	cmp	r8, #0
    ae8c:	0afffcba 	beq	a17c <main+0x2170>
    ae90:	e59d301c 	ldr	r3, [sp, #28]
    ae94:	e3022fc0 	movw	r2, #12224	; 0x2fc0
    ae98:	e3031180 	movw	r1, #12672	; 0x3180
    ae9c:	e3402001 	movt	r2, #1
    aea0:	e3401001 	movt	r1, #1
    aea4:	e59f09b8 	ldr	r0, [pc, #2488]	; b864 <main+0x3858>
    aea8:	e58d3000 	str	r3, [sp]
    aeac:	e3a03ff2 	mov	r3, #968	; 0x3c8
    aeb0:	eb001b98 	bl	11d18 <fprintf>
    aeb4:	eafffcb9 	b	a1a0 <main+0x2194>
    aeb8:	eb0016ba 	bl	109a8 <close>
    aebc:	e5943000 	ldr	r3, [r4]
    aec0:	e370002a 	cmn	r0, #42	; 0x2a
    aec4:	e2833001 	add	r3, r3, #1
    aec8:	e5843000 	str	r3, [r4]
    aecc:	1afffad9 	bne	9a38 <main+0x1a2c>
    aed0:	e3570000 	cmp	r7, #0
    aed4:	0afffae7 	beq	9a78 <main+0x1a6c>
    aed8:	e3022fc0 	movw	r2, #12224	; 0x2fc0
    aedc:	e3031180 	movw	r1, #12672	; 0x3180
    aee0:	e58d6000 	str	r6, [sp]
    aee4:	e3402001 	movt	r2, #1
    aee8:	e3401001 	movt	r1, #1
    aeec:	e30031b2 	movw	r3, #434	; 0x1b2
    aef0:	e59f096c 	ldr	r0, [pc, #2412]	; b864 <main+0x3858>
    aef4:	eb001b87 	bl	11d18 <fprintf>
    aef8:	eafffae6 	b	9a98 <main+0x1a8c>
    aefc:	eb0016a9 	bl	109a8 <close>
    af00:	e5943000 	ldr	r3, [r4]
    af04:	e370002a 	cmn	r0, #42	; 0x2a
    af08:	e2833001 	add	r3, r3, #1
    af0c:	e5843000 	str	r3, [r4]
    af10:	1afffa16 	bne	9770 <main+0x1764>
    af14:	e3560000 	cmp	r6, #0
    af18:	0afffa24 	beq	97b0 <main+0x17a4>
    af1c:	e3022fc0 	movw	r2, #12224	; 0x2fc0
    af20:	e3031180 	movw	r1, #12672	; 0x3180
    af24:	e58d7000 	str	r7, [sp]
    af28:	e3402001 	movt	r2, #1
    af2c:	e3401001 	movt	r1, #1
    af30:	e300311e 	movw	r3, #286	; 0x11e
    af34:	e59f0928 	ldr	r0, [pc, #2344]	; b864 <main+0x3858>
    af38:	eb001b76 	bl	11d18 <fprintf>
    af3c:	eafffa23 	b	97d0 <main+0x17c4>
    af40:	e3023bac 	movw	r3, #11180	; 0x2bac
    af44:	e3022fe4 	movw	r2, #12260	; 0x2fe4
    af48:	e3021be0 	movw	r1, #11232	; 0x2be0
    af4c:	e3403001 	movt	r3, #1
    af50:	e3402001 	movt	r2, #1
    af54:	e3401001 	movt	r1, #1
    af58:	e28d0e17 	add	r0, sp, #368	; 0x170
    af5c:	eb001b53 	bl	11cb0 <sprintf>
    af60:	e3a01ffa 	mov	r1, #1000	; 0x3e8
    af64:	e28d0e17 	add	r0, sp, #368	; 0x170
    af68:	eb00047b 	bl	c15c <sync_connect>
    af6c:	e5943000 	ldr	r3, [r4]
    af70:	e250c000 	subs	ip, r0, #0
    af74:	e2833001 	add	r3, r3, #1
    af78:	e5843000 	str	r3, [r4]
    af7c:	ba0001dc 	blt	b6f4 <main+0x36e8>
    af80:	eb001688 	bl	109a8 <close>
    af84:	e3022fc0 	movw	r2, #12224	; 0x2fc0
    af88:	e3031180 	movw	r1, #12672	; 0x3180
    af8c:	e58d6000 	str	r6, [sp]
    af90:	e3402001 	movt	r2, #1
    af94:	e3401001 	movt	r1, #1
    af98:	e30032f9 	movw	r3, #761	; 0x2f9
    af9c:	e59f08c0 	ldr	r0, [pc, #2240]	; b864 <main+0x3858>
    afa0:	eb001b5c 	bl	11d18 <fprintf>
    afa4:	eafff7c4 	b	8ebc <main+0xeb0>
    afa8:	e3023fb0 	movw	r3, #12208	; 0x2fb0
    afac:	e3a0c000 	mov	ip, #0
    afb0:	e3403001 	movt	r3, #1
    afb4:	e3022fc0 	movw	r2, #12224	; 0x2fc0
    afb8:	e30310ec 	movw	r1, #12524	; 0x30ec
    afbc:	e58d0008 	str	r0, [sp, #8]
    afc0:	e58d3000 	str	r3, [sp]
    afc4:	e3402001 	movt	r2, #1
    afc8:	e3003498 	movw	r3, #1176	; 0x498
    afcc:	e58dc004 	str	ip, [sp, #4]
    afd0:	e3401001 	movt	r1, #1
    afd4:	e59f0888 	ldr	r0, [pc, #2184]	; b864 <main+0x3858>
    afd8:	eb001b4e 	bl	11d18 <fprintf>
    afdc:	e59a3000 	ldr	r3, [sl]
    afe0:	e2833001 	add	r3, r3, #1
    afe4:	e58a3000 	str	r3, [sl]
    afe8:	eafffebb 	b	aadc <main+0x2ad0>
    afec:	e30237d4 	movw	r3, #10196	; 0x27d4
    aff0:	e3a0c000 	mov	ip, #0
    aff4:	e3403001 	movt	r3, #1
    aff8:	e3022fc0 	movw	r2, #12224	; 0x2fc0
    affc:	e3021c84 	movw	r1, #11396	; 0x2c84
    b000:	e58d0008 	str	r0, [sp, #8]
    b004:	e58d3000 	str	r3, [sp]
    b008:	e3402001 	movt	r2, #1
    b00c:	e58dc004 	str	ip, [sp, #4]
    b010:	e3401001 	movt	r1, #1
    b014:	e300332d 	movw	r3, #813	; 0x32d
    b018:	e59f0844 	ldr	r0, [pc, #2116]	; b864 <main+0x3858>
    b01c:	eb001b3d 	bl	11d18 <fprintf>
    b020:	e59a3000 	ldr	r3, [sl]
    b024:	e1a00005 	mov	r0, r5
    b028:	e2833001 	add	r3, r3, #1
    b02c:	e58a3000 	str	r3, [sl]
    b030:	eb00165c 	bl	109a8 <close>
    b034:	e5943000 	ldr	r3, [r4]
    b038:	e3500000 	cmp	r0, #0
    b03c:	e2833001 	add	r3, r3, #1
    b040:	e5843000 	str	r3, [r4]
    b044:	0afffb87 	beq	9e68 <main+0x1e5c>
    b048:	e30239cc 	movw	r3, #10700	; 0x29cc
    b04c:	e3a0c000 	mov	ip, #0
    b050:	e3403001 	movt	r3, #1
    b054:	e3022fc0 	movw	r2, #12224	; 0x2fc0
    b058:	e30310ec 	movw	r1, #12524	; 0x30ec
    b05c:	e58d0008 	str	r0, [sp, #8]
    b060:	e58d3000 	str	r3, [sp]
    b064:	e3402001 	movt	r2, #1
    b068:	e3a03e33 	mov	r3, #816	; 0x330
    b06c:	e58dc004 	str	ip, [sp, #4]
    b070:	e3401001 	movt	r1, #1
    b074:	e59f07e8 	ldr	r0, [pc, #2024]	; b864 <main+0x3858>
    b078:	eb001b26 	bl	11d18 <fprintf>
    b07c:	e59a3000 	ldr	r3, [sl]
    b080:	e2833001 	add	r3, r3, #1
    b084:	e58a3000 	str	r3, [sl]
    b088:	eafffb76 	b	9e68 <main+0x1e5c>
    b08c:	e3023fb0 	movw	r3, #12208	; 0x2fb0
    b090:	e3a0c000 	mov	ip, #0
    b094:	e3403001 	movt	r3, #1
    b098:	e3022fc0 	movw	r2, #12224	; 0x2fc0
    b09c:	e30310ec 	movw	r1, #12524	; 0x30ec
    b0a0:	e58d0008 	str	r0, [sp, #8]
    b0a4:	e58d3000 	str	r3, [sp]
    b0a8:	e3402001 	movt	r2, #1
    b0ac:	e30033f9 	movw	r3, #1017	; 0x3f9
    b0b0:	e58dc004 	str	ip, [sp, #4]
    b0b4:	e3401001 	movt	r1, #1
    b0b8:	e59f07a4 	ldr	r0, [pc, #1956]	; b864 <main+0x3858>
    b0bc:	eb001b15 	bl	11d18 <fprintf>
    b0c0:	e59a3000 	ldr	r3, [sl]
    b0c4:	e2833001 	add	r3, r3, #1
    b0c8:	e58a3000 	str	r3, [sl]
    b0cc:	eafffd05 	b	a4e8 <main+0x24dc>
    b0d0:	e30239cc 	movw	r3, #10700	; 0x29cc
    b0d4:	e3a0c000 	mov	ip, #0
    b0d8:	e3403001 	movt	r3, #1
    b0dc:	e3022fc0 	movw	r2, #12224	; 0x2fc0
    b0e0:	e30310ec 	movw	r1, #12524	; 0x30ec
    b0e4:	e58d0008 	str	r0, [sp, #8]
    b0e8:	e58d3000 	str	r3, [sp]
    b0ec:	e3402001 	movt	r2, #1
    b0f0:	e30033c6 	movw	r3, #966	; 0x3c6
    b0f4:	e58dc004 	str	ip, [sp, #4]
    b0f8:	e3401001 	movt	r1, #1
    b0fc:	e59f0760 	ldr	r0, [pc, #1888]	; b864 <main+0x3858>
    b100:	eb001b04 	bl	11d18 <fprintf>
    b104:	e59a3000 	ldr	r3, [sl]
    b108:	e2833001 	add	r3, r3, #1
    b10c:	e58a3000 	str	r3, [sl]
    b110:	eafffc19 	b	a17c <main+0x2170>
    b114:	e1a00006 	mov	r0, r6
    b118:	eb001622 	bl	109a8 <close>
    b11c:	e5943000 	ldr	r3, [r4]
    b120:	e3500000 	cmp	r0, #0
    b124:	e2833001 	add	r3, r3, #1
    b128:	e5843000 	str	r3, [r4]
    b12c:	1a0000e0 	bne	b4b4 <main+0x34a8>
    b130:	e3550000 	cmp	r5, #0
    b134:	0afff710 	beq	8d7c <main+0xd70>
    b138:	e3022fc0 	movw	r2, #12224	; 0x2fc0
    b13c:	e3031180 	movw	r1, #12672	; 0x3180
    b140:	e58d9000 	str	r9, [sp]
    b144:	e3402001 	movt	r2, #1
    b148:	e3401001 	movt	r1, #1
    b14c:	e30032db 	movw	r3, #731	; 0x2db
    b150:	e59f070c 	ldr	r0, [pc, #1804]	; b864 <main+0x3858>
    b154:	eb001aef 	bl	11d18 <fprintf>
    b158:	eafff70f 	b	8d9c <main+0xd90>
    b15c:	e3580000 	cmp	r8, #0
    b160:	1afff6d1 	bne	8cac <main+0xca0>
    b164:	e59d1024 	ldr	r1, [sp, #36]	; 0x24
    b168:	e1a00006 	mov	r0, r6
    b16c:	eb00160a 	bl	1099c <accept>
    b170:	e5943000 	ldr	r3, [r4]
    b174:	e370000f 	cmn	r0, #15
    b178:	e2833001 	add	r3, r3, #1
    b17c:	e5843000 	str	r3, [r4]
    b180:	0a000010 	beq	b1c8 <main+0x31bc>
    b184:	e30237d4 	movw	r3, #10196	; 0x27d4
    b188:	e3e0c00e 	mvn	ip, #14
    b18c:	e3403001 	movt	r3, #1
    b190:	e3022fc0 	movw	r2, #12224	; 0x2fc0
    b194:	e3021cf0 	movw	r1, #11504	; 0x2cf0
    b198:	e58d0008 	str	r0, [sp, #8]
    b19c:	e58d3000 	str	r3, [sp]
    b1a0:	e3402001 	movt	r2, #1
    b1a4:	e30032ba 	movw	r3, #698	; 0x2ba
    b1a8:	e58dc004 	str	ip, [sp, #4]
    b1ac:	e3401001 	movt	r1, #1
    b1b0:	e59f06ac 	ldr	r0, [pc, #1708]	; b864 <main+0x3858>
    b1b4:	eb001ad7 	bl	11d18 <fprintf>
    b1b8:	e59a3000 	ldr	r3, [sl]
    b1bc:	e3a05000 	mov	r5, #0
    b1c0:	e2833001 	add	r3, r3, #1
    b1c4:	e58a3000 	str	r3, [sl]
    b1c8:	e3a02010 	mov	r2, #16
    b1cc:	e1a0100b 	mov	r1, fp
    b1d0:	e59d0024 	ldr	r0, [sp, #36]	; 0x24
    b1d4:	eb001ade 	bl	11d54 <memcmp>
    b1d8:	e5943000 	ldr	r3, [r4]
    b1dc:	e3500000 	cmp	r0, #0
    b1e0:	e2833001 	add	r3, r3, #1
    b1e4:	e5843000 	str	r3, [r4]
    b1e8:	0a00000f 	beq	b22c <main+0x3220>
    b1ec:	e30237d4 	movw	r3, #10196	; 0x27d4
    b1f0:	e3a05000 	mov	r5, #0
    b1f4:	e3403001 	movt	r3, #1
    b1f8:	e3022fc0 	movw	r2, #12224	; 0x2fc0
    b1fc:	e3021c84 	movw	r1, #11396	; 0x2c84
    b200:	e58d0008 	str	r0, [sp, #8]
    b204:	e58d3000 	str	r3, [sp]
    b208:	e3402001 	movt	r2, #1
    b20c:	e30032bd 	movw	r3, #701	; 0x2bd
    b210:	e58d5004 	str	r5, [sp, #4]
    b214:	e3401001 	movt	r1, #1
    b218:	e59f0644 	ldr	r0, [pc, #1604]	; b864 <main+0x3858>
    b21c:	eb001abd 	bl	11d18 <fprintf>
    b220:	e59a3000 	ldr	r3, [sl]
    b224:	e2833001 	add	r3, r3, #1
    b228:	e58a3000 	str	r3, [sl]
    b22c:	e59d1024 	ldr	r1, [sp, #36]	; 0x24
    b230:	e1a00006 	mov	r0, r6
    b234:	eb0015d8 	bl	1099c <accept>
    b238:	e5943000 	ldr	r3, [r4]
    b23c:	e370000f 	cmn	r0, #15
    b240:	e2833001 	add	r3, r3, #1
    b244:	e5843000 	str	r3, [r4]
    b248:	0a000010 	beq	b290 <main+0x3284>
    b24c:	e30237d4 	movw	r3, #10196	; 0x27d4
    b250:	e3e0c00e 	mvn	ip, #14
    b254:	e3403001 	movt	r3, #1
    b258:	e3022fc0 	movw	r2, #12224	; 0x2fc0
    b25c:	e3021cf0 	movw	r1, #11504	; 0x2cf0
    b260:	e58d0008 	str	r0, [sp, #8]
    b264:	e58d3000 	str	r3, [sp]
    b268:	e3402001 	movt	r2, #1
    b26c:	e30032c1 	movw	r3, #705	; 0x2c1
    b270:	e58dc004 	str	ip, [sp, #4]
    b274:	e3401001 	movt	r1, #1
    b278:	e59f05e4 	ldr	r0, [pc, #1508]	; b864 <main+0x3858>
    b27c:	eb001aa5 	bl	11d18 <fprintf>
    b280:	e59a3000 	ldr	r3, [sl]
    b284:	e3a05000 	mov	r5, #0
    b288:	e2833001 	add	r3, r3, #1
    b28c:	e58a3000 	str	r3, [sl]
    b290:	e3a02010 	mov	r2, #16
    b294:	e1a0100b 	mov	r1, fp
    b298:	e59d0024 	ldr	r0, [sp, #36]	; 0x24
    b29c:	eb001aac 	bl	11d54 <memcmp>
    b2a0:	e5943000 	ldr	r3, [r4]
    b2a4:	e3500000 	cmp	r0, #0
    b2a8:	e2833001 	add	r3, r3, #1
    b2ac:	e5843000 	str	r3, [r4]
    b2b0:	0a00000f 	beq	b2f4 <main+0x32e8>
    b2b4:	e30237d4 	movw	r3, #10196	; 0x27d4
    b2b8:	e3a05000 	mov	r5, #0
    b2bc:	e3403001 	movt	r3, #1
    b2c0:	e3022fc0 	movw	r2, #12224	; 0x2fc0
    b2c4:	e3021c84 	movw	r1, #11396	; 0x2c84
    b2c8:	e58d0008 	str	r0, [sp, #8]
    b2cc:	e58d3000 	str	r3, [sp]
    b2d0:	e3402001 	movt	r2, #1
    b2d4:	e3a03fb1 	mov	r3, #708	; 0x2c4
    b2d8:	e58d5004 	str	r5, [sp, #4]
    b2dc:	e3401001 	movt	r1, #1
    b2e0:	e59f057c 	ldr	r0, [pc, #1404]	; b864 <main+0x3858>
    b2e4:	eb001a8b 	bl	11d18 <fprintf>
    b2e8:	e59a3000 	ldr	r3, [sl]
    b2ec:	e2833001 	add	r3, r3, #1
    b2f0:	e58a3000 	str	r3, [sl]
    b2f4:	e59d1024 	ldr	r1, [sp, #36]	; 0x24
    b2f8:	e1a00006 	mov	r0, r6
    b2fc:	eb0015a6 	bl	1099c <accept>
    b300:	e5943000 	ldr	r3, [r4]
    b304:	e3700004 	cmn	r0, #4
    b308:	e2833001 	add	r3, r3, #1
    b30c:	e5843000 	str	r3, [r4]
    b310:	0a000010 	beq	b358 <main+0x334c>
    b314:	e30237d4 	movw	r3, #10196	; 0x27d4
    b318:	e3e0c003 	mvn	ip, #3
    b31c:	e3403001 	movt	r3, #1
    b320:	e3022fc0 	movw	r2, #12224	; 0x2fc0
    b324:	e30217dc 	movw	r1, #10204	; 0x27dc
    b328:	e58d0008 	str	r0, [sp, #8]
    b32c:	e58d3000 	str	r3, [sp]
    b330:	e3402001 	movt	r2, #1
    b334:	e30032c9 	movw	r3, #713	; 0x2c9
    b338:	e58dc004 	str	ip, [sp, #4]
    b33c:	e3401001 	movt	r1, #1
    b340:	e59f051c 	ldr	r0, [pc, #1308]	; b864 <main+0x3858>
    b344:	eb001a73 	bl	11d18 <fprintf>
    b348:	e59a3000 	ldr	r3, [sl]
    b34c:	e3a05000 	mov	r5, #0
    b350:	e2833001 	add	r3, r3, #1
    b354:	e58a3000 	str	r3, [sl]
    b358:	e3a02010 	mov	r2, #16
    b35c:	e1a0100b 	mov	r1, fp
    b360:	e59d0024 	ldr	r0, [sp, #36]	; 0x24
    b364:	eb001a7a 	bl	11d54 <memcmp>
    b368:	e5943000 	ldr	r3, [r4]
    b36c:	e3500000 	cmp	r0, #0
    b370:	e2833001 	add	r3, r3, #1
    b374:	e5843000 	str	r3, [r4]
    b378:	0afff64b 	beq	8cac <main+0xca0>
    b37c:	e30237d4 	movw	r3, #10196	; 0x27d4
    b380:	e3a05000 	mov	r5, #0
    b384:	e3403001 	movt	r3, #1
    b388:	e3022fc0 	movw	r2, #12224	; 0x2fc0
    b38c:	e3021c84 	movw	r1, #11396	; 0x2c84
    b390:	e58d0008 	str	r0, [sp, #8]
    b394:	e58d3000 	str	r3, [sp]
    b398:	e3402001 	movt	r2, #1
    b39c:	e3a03fb3 	mov	r3, #716	; 0x2cc
    b3a0:	e58d5004 	str	r5, [sp, #4]
    b3a4:	e3401001 	movt	r1, #1
    b3a8:	e59f04b4 	ldr	r0, [pc, #1204]	; b864 <main+0x3858>
    b3ac:	eb001a59 	bl	11d18 <fprintf>
    b3b0:	e59a3000 	ldr	r3, [sl]
    b3b4:	e2833001 	add	r3, r3, #1
    b3b8:	e58a3000 	str	r3, [sl]
    b3bc:	eafff63a 	b	8cac <main+0xca0>
    b3c0:	e3e0300c 	mvn	r3, #12
    b3c4:	e3022fc0 	movw	r2, #12224	; 0x2fc0
    b3c8:	e3031438 	movw	r1, #13368	; 0x3438
    b3cc:	e58d0008 	str	r0, [sp, #8]
    b3d0:	e58d3004 	str	r3, [sp, #4]
    b3d4:	e3402001 	movt	r2, #1
    b3d8:	e300325e 	movw	r3, #606	; 0x25e
    b3dc:	e58d7000 	str	r7, [sp]
    b3e0:	e3401001 	movt	r1, #1
    b3e4:	e59f0478 	ldr	r0, [pc, #1144]	; b864 <main+0x3858>
    b3e8:	eb001a4a 	bl	11d18 <fprintf>
    b3ec:	e59a3000 	ldr	r3, [sl]
    b3f0:	e3a08000 	mov	r8, #0
    b3f4:	e2833001 	add	r3, r3, #1
    b3f8:	e58a3000 	str	r3, [sl]
    b3fc:	eafff413 	b	8450 <main+0x444>
    b400:	e3022fc0 	movw	r2, #12224	; 0x2fc0
    b404:	e3031010 	movw	r1, #12304	; 0x3010
    b408:	e3003255 	movw	r3, #597	; 0x255
    b40c:	e58d6004 	str	r6, [sp, #4]
    b410:	e3402001 	movt	r2, #1
    b414:	e58d7000 	str	r7, [sp]
    b418:	e3401001 	movt	r1, #1
    b41c:	e59f0440 	ldr	r0, [pc, #1088]	; b864 <main+0x3858>
    b420:	eb001a3c 	bl	11d18 <fprintf>
    b424:	e59a3000 	ldr	r3, [sl]
    b428:	e2833001 	add	r3, r3, #1
    b42c:	e58a3000 	str	r3, [sl]
    b430:	eafffe0d 	b	ac6c <main+0x2c60>
    b434:	e3e0300c 	mvn	r3, #12
    b438:	e3022fc0 	movw	r2, #12224	; 0x2fc0
    b43c:	e3031438 	movw	r1, #13368	; 0x3438
    b440:	e58d0008 	str	r0, [sp, #8]
    b444:	e58d3004 	str	r3, [sp, #4]
    b448:	e3402001 	movt	r2, #1
    b44c:	e3a03f93 	mov	r3, #588	; 0x24c
    b450:	e58d7000 	str	r7, [sp]
    b454:	e3401001 	movt	r1, #1
    b458:	e59f0404 	ldr	r0, [pc, #1028]	; b864 <main+0x3858>
    b45c:	eb001a2d 	bl	11d18 <fprintf>
    b460:	e59a3000 	ldr	r3, [sl]
    b464:	e3a08000 	mov	r8, #0
    b468:	e2833001 	add	r3, r3, #1
    b46c:	e58a3000 	str	r3, [sl]
    b470:	eafff3df 	b	83f4 <main+0x3e8>
    b474:	e3022fc0 	movw	r2, #12224	; 0x2fc0
    b478:	e3031010 	movw	r1, #12304	; 0x3010
    b47c:	e3402001 	movt	r2, #1
    b480:	e3003246 	movw	r3, #582	; 0x246
    b484:	e58d5004 	str	r5, [sp, #4]
    b488:	e3401001 	movt	r1, #1
    b48c:	e58d7000 	str	r7, [sp]
    b490:	e3a08000 	mov	r8, #0
    b494:	e59f03c8 	ldr	r0, [pc, #968]	; b864 <main+0x3858>
    b498:	eb001a1e 	bl	11d18 <fprintf>
    b49c:	e59a3000 	ldr	r3, [sl]
    b4a0:	e28d20f0 	add	r2, sp, #240	; 0xf0
    b4a4:	e58d2024 	str	r2, [sp, #36]	; 0x24
    b4a8:	e2833001 	add	r3, r3, #1
    b4ac:	e58a3000 	str	r3, [sl]
    b4b0:	eafff3d6 	b	8410 <main+0x404>
    b4b4:	e3023814 	movw	r3, #10260	; 0x2814
    b4b8:	e3a0c000 	mov	ip, #0
    b4bc:	e3403001 	movt	r3, #1
    b4c0:	e3022fc0 	movw	r2, #12224	; 0x2fc0
    b4c4:	e30310ec 	movw	r1, #12524	; 0x30ec
    b4c8:	e58d0008 	str	r0, [sp, #8]
    b4cc:	e58d3000 	str	r3, [sp]
    b4d0:	e3402001 	movt	r2, #1
    b4d4:	e3a03fb6 	mov	r3, #728	; 0x2d8
    b4d8:	e58dc004 	str	ip, [sp, #4]
    b4dc:	e3401001 	movt	r1, #1
    b4e0:	e59f037c 	ldr	r0, [pc, #892]	; b864 <main+0x3858>
    b4e4:	eb001a0b 	bl	11d18 <fprintf>
    b4e8:	e59a3000 	ldr	r3, [sl]
    b4ec:	e2833001 	add	r3, r3, #1
    b4f0:	e58a3000 	str	r3, [sl]
    b4f4:	eafff620 	b	8d7c <main+0xd70>
    b4f8:	e3033288 	movw	r3, #12936	; 0x3288
    b4fc:	e3022fc0 	movw	r2, #12224	; 0x2fc0
    b500:	e3403001 	movt	r3, #1
    b504:	e3031010 	movw	r1, #12304	; 0x3010
    b508:	e58d3000 	str	r3, [sp]
    b50c:	e3402001 	movt	r2, #1
    b510:	e3003469 	movw	r3, #1129	; 0x469
    b514:	e58d5004 	str	r5, [sp, #4]
    b518:	e3401001 	movt	r1, #1
    b51c:	e59f0340 	ldr	r0, [pc, #832]	; b864 <main+0x3858>
    b520:	eb0019fc 	bl	11d18 <fprintf>
    b524:	e59a3000 	ldr	r3, [sl]
    b528:	e3a07000 	mov	r7, #0
    b52c:	e2833001 	add	r3, r3, #1
    b530:	e58a3000 	str	r3, [sl]
    b534:	eafffcb7 	b	a818 <main+0x280c>
    b538:	e3033288 	movw	r3, #12936	; 0x3288
    b53c:	e3022fc0 	movw	r2, #12224	; 0x2fc0
    b540:	e3403001 	movt	r3, #1
    b544:	e3031010 	movw	r1, #12304	; 0x3010
    b548:	e58d3000 	str	r3, [sp]
    b54c:	e3402001 	movt	r2, #1
    b550:	e3a03ffa 	mov	r3, #1000	; 0x3e8
    b554:	e58d5004 	str	r5, [sp, #4]
    b558:	e3401001 	movt	r1, #1
    b55c:	e59f0300 	ldr	r0, [pc, #768]	; b864 <main+0x3858>
    b560:	eb0019ec 	bl	11d18 <fprintf>
    b564:	e59a3000 	ldr	r3, [sl]
    b568:	e3a08000 	mov	r8, #0
    b56c:	e2833001 	add	r3, r3, #1
    b570:	e58a3000 	str	r3, [sl]
    b574:	eafffb7b 	b	a368 <main+0x235c>
    b578:	e30332f0 	movw	r3, #13040	; 0x32f0
    b57c:	e3022fc0 	movw	r2, #12224	; 0x2fc0
    b580:	e3403001 	movt	r3, #1
    b584:	e3031010 	movw	r1, #12304	; 0x3010
    b588:	e3402001 	movt	r2, #1
    b58c:	e58d3000 	str	r3, [sp]
    b590:	e58d6004 	str	r6, [sp, #4]
    b594:	e300341e 	movw	r3, #1054	; 0x41e
    b598:	e3401001 	movt	r1, #1
    b59c:	e59f02c0 	ldr	r0, [pc, #704]	; b864 <main+0x3858>
    b5a0:	eb0019dc 	bl	11d18 <fprintf>
    b5a4:	e59a3000 	ldr	r3, [sl]
    b5a8:	e28d20a0 	add	r2, sp, #160	; 0xa0
    b5ac:	e58d2020 	str	r2, [sp, #32]
    b5b0:	e2833001 	add	r3, r3, #1
    b5b4:	e58a3000 	str	r3, [sl]
    b5b8:	eafff509 	b	89e4 <main+0x9d8>
    b5bc:	e3022fc0 	movw	r2, #12224	; 0x2fc0
    b5c0:	e3031010 	movw	r1, #12304	; 0x3010
    b5c4:	e3003299 	movw	r3, #665	; 0x299
    b5c8:	e58d6004 	str	r6, [sp, #4]
    b5cc:	e3402001 	movt	r2, #1
    b5d0:	e58d7000 	str	r7, [sp]
    b5d4:	e3401001 	movt	r1, #1
    b5d8:	e59f0284 	ldr	r0, [pc, #644]	; b864 <main+0x3858>
    b5dc:	eb0019cd 	bl	11d18 <fprintf>
    b5e0:	e59a3000 	ldr	r3, [sl]
    b5e4:	e2833001 	add	r3, r3, #1
    b5e8:	e58a3000 	str	r3, [sl]
    b5ec:	eafff5e2 	b	8d7c <main+0xd70>
    b5f0:	e3023fb0 	movw	r3, #12208	; 0x2fb0
    b5f4:	e3a0c000 	mov	ip, #0
    b5f8:	e3403001 	movt	r3, #1
    b5fc:	e3022fc0 	movw	r2, #12224	; 0x2fc0
    b600:	e30310ec 	movw	r1, #12524	; 0x30ec
    b604:	e58d0008 	str	r0, [sp, #8]
    b608:	e58d3000 	str	r3, [sp]
    b60c:	e3402001 	movt	r2, #1
    b610:	e3003434 	movw	r3, #1076	; 0x434
    b614:	e58dc004 	str	ip, [sp, #4]
    b618:	e3401001 	movt	r1, #1
    b61c:	e59f0240 	ldr	r0, [pc, #576]	; b864 <main+0x3858>
    b620:	eb0019bc 	bl	11d18 <fprintf>
    b624:	e59a3000 	ldr	r3, [sl]
    b628:	e2833001 	add	r3, r3, #1
    b62c:	e58a3000 	str	r3, [sl]
    b630:	eafff4eb 	b	89e4 <main+0x9d8>
    b634:	e30332f0 	movw	r3, #13040	; 0x32f0
    b638:	e3022fc0 	movw	r2, #12224	; 0x2fc0
    b63c:	e3403001 	movt	r3, #1
    b640:	e3031010 	movw	r1, #12304	; 0x3010
    b644:	e58d3000 	str	r3, [sp]
    b648:	e3402001 	movt	r2, #1
    b64c:	e3003473 	movw	r3, #1139	; 0x473
    b650:	e58d5004 	str	r5, [sp, #4]
    b654:	e3401001 	movt	r1, #1
    b658:	e59f0204 	ldr	r0, [pc, #516]	; b864 <main+0x3858>
    b65c:	eb0019ad 	bl	11d18 <fprintf>
    b660:	e59a3000 	ldr	r3, [sl]
    b664:	e3a07000 	mov	r7, #0
    b668:	e2833001 	add	r3, r3, #1
    b66c:	e58a3000 	str	r3, [sl]
    b670:	eafffc93 	b	a8c4 <main+0x28b8>
    b674:	e30332f0 	movw	r3, #13040	; 0x32f0
    b678:	e3022fc0 	movw	r2, #12224	; 0x2fc0
    b67c:	e3403001 	movt	r3, #1
    b680:	e3031010 	movw	r1, #12304	; 0x3010
    b684:	e58d3000 	str	r3, [sp]
    b688:	e3402001 	movt	r2, #1
    b68c:	e30033f3 	movw	r3, #1011	; 0x3f3
    b690:	e58d5004 	str	r5, [sp, #4]
    b694:	e3401001 	movt	r1, #1
    b698:	e59f01c4 	ldr	r0, [pc, #452]	; b864 <main+0x3858>
    b69c:	eb00199d 	bl	11d18 <fprintf>
    b6a0:	e59a3000 	ldr	r3, [sl]
    b6a4:	e3a08000 	mov	r8, #0
    b6a8:	e2833001 	add	r3, r3, #1
    b6ac:	e58a3000 	str	r3, [sl]
    b6b0:	eafffb6d 	b	a46c <main+0x2460>
    b6b4:	e30332f0 	movw	r3, #13040	; 0x32f0
    b6b8:	e3022fc0 	movw	r2, #12224	; 0x2fc0
    b6bc:	e3403001 	movt	r3, #1
    b6c0:	e3031010 	movw	r1, #12304	; 0x3010
    b6c4:	e58d3000 	str	r3, [sp]
    b6c8:	e3402001 	movt	r2, #1
    b6cc:	e3003325 	movw	r3, #805	; 0x325
    b6d0:	e58d5004 	str	r5, [sp, #4]
    b6d4:	e3401001 	movt	r1, #1
    b6d8:	e59f0184 	ldr	r0, [pc, #388]	; b864 <main+0x3858>
    b6dc:	eb00198d 	bl	11d18 <fprintf>
    b6e0:	e59a3000 	ldr	r3, [sl]
    b6e4:	e3a07000 	mov	r7, #0
    b6e8:	e2833001 	add	r3, r3, #1
    b6ec:	e58a3000 	str	r3, [sl]
    b6f0:	eafff9b1 	b	9dbc <main+0x1db0>
    b6f4:	e3023880 	movw	r3, #10368	; 0x2880
    b6f8:	e3022fc0 	movw	r2, #12224	; 0x2fc0
    b6fc:	e3403001 	movt	r3, #1
    b700:	e3031010 	movw	r1, #12304	; 0x3010
    b704:	e58d3000 	str	r3, [sp]
    b708:	e3402001 	movt	r2, #1
    b70c:	e3a03fbd 	mov	r3, #756	; 0x2f4
    b710:	e58dc004 	str	ip, [sp, #4]
    b714:	e3401001 	movt	r1, #1
    b718:	e59f0144 	ldr	r0, [pc, #324]	; b864 <main+0x3858>
    b71c:	eb00197d 	bl	11d18 <fprintf>
    b720:	e59a3000 	ldr	r3, [sl]
    b724:	e2833001 	add	r3, r3, #1
    b728:	e58a3000 	str	r3, [sl]
    b72c:	eafff5da 	b	8e9c <main+0xe90>
    b730:	e30332f0 	movw	r3, #13040	; 0x32f0
    b734:	e3022fc0 	movw	r2, #12224	; 0x2fc0
    b738:	e3403001 	movt	r3, #1
    b73c:	e3031010 	movw	r1, #12304	; 0x3010
    b740:	e58d3000 	str	r3, [sp]
    b744:	e3402001 	movt	r2, #1
    b748:	e30033bf 	movw	r3, #959	; 0x3bf
    b74c:	e58d5004 	str	r5, [sp, #4]
    b750:	e3401001 	movt	r1, #1
    b754:	e59f0108 	ldr	r0, [pc, #264]	; b864 <main+0x3858>
    b758:	eb00196e 	bl	11d18 <fprintf>
    b75c:	e59a3000 	ldr	r3, [sl]
    b760:	e3a08000 	mov	r8, #0
    b764:	e2833001 	add	r3, r3, #1
    b768:	e58a3000 	str	r3, [sl]
    b76c:	eafffa63 	b	a100 <main+0x20f4>
    b770:	e3033288 	movw	r3, #12936	; 0x3288
    b774:	e3022fc0 	movw	r2, #12224	; 0x2fc0
    b778:	e3403001 	movt	r3, #1
    b77c:	e3031010 	movw	r1, #12304	; 0x3010
    b780:	e58d3000 	str	r3, [sp]
    b784:	e3402001 	movt	r2, #1
    b788:	e30033b5 	movw	r3, #949	; 0x3b5
    b78c:	e58d5004 	str	r5, [sp, #4]
    b790:	e3401001 	movt	r1, #1
    b794:	e59f00c8 	ldr	r0, [pc, #200]	; b864 <main+0x3858>
    b798:	eb00195e 	bl	11d18 <fprintf>
    b79c:	e59a3000 	ldr	r3, [sl]
    b7a0:	e3a08000 	mov	r8, #0
    b7a4:	e2833001 	add	r3, r3, #1
    b7a8:	e58a3000 	str	r3, [sl]
    b7ac:	eafffa28 	b	a054 <main+0x2048>
    b7b0:	e59d3030 	ldr	r3, [sp, #48]	; 0x30
    b7b4:	e3022fc0 	movw	r2, #12224	; 0x2fc0
    b7b8:	e3031180 	movw	r1, #12672	; 0x3180
    b7bc:	e3402001 	movt	r2, #1
    b7c0:	e3401001 	movt	r1, #1
    b7c4:	e59f0098 	ldr	r0, [pc, #152]	; b864 <main+0x3858>
    b7c8:	e58d3000 	str	r3, [sp]
    b7cc:	e3003332 	movw	r3, #818	; 0x332
    b7d0:	eb001950 	bl	11d18 <fprintf>
    b7d4:	eafff9ac 	b	9e8c <main+0x1e80>
    b7d8:	e3a08000 	mov	r8, #0
    b7dc:	e3022fc0 	movw	r2, #12224	; 0x2fc0
    b7e0:	e30310ec 	movw	r1, #12524	; 0x30ec
    b7e4:	e3402001 	movt	r2, #1
    b7e8:	e3003269 	movw	r3, #617	; 0x269
    b7ec:	e58d5008 	str	r5, [sp, #8]
    b7f0:	e58d7000 	str	r7, [sp]
    b7f4:	e3401001 	movt	r1, #1
    b7f8:	e58d8004 	str	r8, [sp, #4]
    b7fc:	e59f0060 	ldr	r0, [pc, #96]	; b864 <main+0x3858>
    b800:	eb001944 	bl	11d18 <fprintf>
    b804:	e59d00f4 	ldr	r0, [sp, #244]	; 0xf4
    b808:	e59a2000 	ldr	r2, [sl]
    b80c:	e5943000 	ldr	r3, [r4]
    b810:	e3500001 	cmp	r0, #1
    b814:	e2822001 	add	r2, r2, #1
    b818:	e2833001 	add	r3, r3, #1
    b81c:	e58a2000 	str	r2, [sl]
    b820:	e5843000 	str	r3, [r4]
    b824:	0afff373 	beq	85f8 <main+0x5ec>
    b828:	e3a03001 	mov	r3, #1
    b82c:	e3022fc0 	movw	r2, #12224	; 0x2fc0
    b830:	e302168c 	movw	r1, #9868	; 0x268c
    b834:	e58d0008 	str	r0, [sp, #8]
    b838:	e58d3004 	str	r3, [sp, #4]
    b83c:	e3402001 	movt	r2, #1
    b840:	e300326a 	movw	r3, #618	; 0x26a
    b844:	e58d7000 	str	r7, [sp]
    b848:	e3401001 	movt	r1, #1
    b84c:	e59f0010 	ldr	r0, [pc, #16]	; b864 <main+0x3858>
    b850:	eb001930 	bl	11d18 <fprintf>
    b854:	e59a3000 	ldr	r3, [sl]
    b858:	e2833001 	add	r3, r3, #1
    b85c:	e58a3000 	str	r3, [sl]
    b860:	eafff364 	b	85f8 <main+0x5ec>
    b864:	00014048 	.word	0x00014048

0000b868 <__guard_setup>:
    b868:	e92d4010 	push	{r4, lr}
    b86c:	e3044078 	movw	r4, #16504	; 0x4078
    b870:	e3404001 	movt	r4, #1
    b874:	e5943000 	ldr	r3, [r4]
    b878:	e3530000 	cmp	r3, #0
    b87c:	18bd8010 	popne	{r4, pc}
    b880:	eb001917 	bl	11ce4 <rand>
    b884:	e5840000 	str	r0, [r4]
    b888:	e8bd8010 	pop	{r4, pc}

0000b88c <run_port_create_test>:
    b88c:	e302342c 	movw	r3, #9260	; 0x242c
    b890:	e92d4ff0 	push	{r4, r5, r6, r7, r8, r9, sl, fp, lr}
    b894:	e3403001 	movt	r3, #1
    b898:	e24ddf99 	sub	sp, sp, #612	; 0x264
    b89c:	e302afe4 	movw	sl, #12260	; 0x2fe4
    b8a0:	e303b000 	movw	fp, #12288	; 0x3000
    b8a4:	e3022fc0 	movw	r2, #12224	; 0x2fc0
    b8a8:	e3021fd4 	movw	r1, #12244	; 0x2fd4
    b8ac:	e28d5064 	add	r5, sp, #100	; 0x64
    b8b0:	e58d301c 	str	r3, [sp, #28]
    b8b4:	e58d3000 	str	r3, [sp]
    b8b8:	e3a07001 	mov	r7, #1
    b8bc:	e30440a0 	movw	r4, #16544	; 0x40a0
    b8c0:	e3029ff8 	movw	r9, #12280	; 0x2ff8
    b8c4:	e340a001 	movt	sl, #1
    b8c8:	e340b001 	movt	fp, #1
    b8cc:	e3402001 	movt	r2, #1
    b8d0:	e3401001 	movt	r1, #1
    b8d4:	e3a03f4a 	mov	r3, #296	; 0x128
    b8d8:	e59f0428 	ldr	r0, [pc, #1064]	; bd08 <run_port_create_test+0x47c>
    b8dc:	eb00190d 	bl	11d18 <fprintf>
    b8e0:	e1a08005 	mov	r8, r5
    b8e4:	e58d5018 	str	r5, [sp, #24]
    b8e8:	e58d7014 	str	r7, [sp, #20]
    b8ec:	e3404001 	movt	r4, #1
    b8f0:	e3409001 	movt	r9, #1
    b8f4:	e3a06002 	mov	r6, #2
    b8f8:	e1a0500a 	mov	r5, sl
    b8fc:	e1a0700b 	mov	r7, fp
    b900:	ea000021 	b	b98c <run_port_create_test+0x100>
    b904:	e3a03000 	mov	r3, #0
    b908:	e3a02a01 	mov	r2, #4096	; 0x1000
    b90c:	e3a01002 	mov	r1, #2
    b910:	e5a8a004 	str	sl, [r8, #4]!
    b914:	e28d0020 	add	r0, sp, #32
    b918:	e3e0b00d 	mvn	fp, #13
    b91c:	eb001418 	bl	10984 <port_create>
    b920:	e594c000 	ldr	ip, [r4]
    b924:	e1a0a000 	mov	sl, r0
    b928:	e15a000b 	cmp	sl, fp
    b92c:	e303e08c 	movw	lr, #12428	; 0x308c
    b930:	e3022fc0 	movw	r2, #12224	; 0x2fc0
    b934:	e303104c 	movw	r1, #12364	; 0x304c
    b938:	e28cc001 	add	ip, ip, #1
    b93c:	e59f03c4 	ldr	r0, [pc, #964]	; bd08 <run_port_create_test+0x47c>
    b940:	e340e001 	movt	lr, #1
    b944:	e3003133 	movw	r3, #307	; 0x133
    b948:	e3402001 	movt	r2, #1
    b94c:	e3401001 	movt	r1, #1
    b950:	e584c000 	str	ip, [r4]
    b954:	0a00000a 	beq	b984 <run_port_create_test+0xf8>
    b958:	e3a0c000 	mov	ip, #0
    b95c:	e58da008 	str	sl, [sp, #8]
    b960:	e58db004 	str	fp, [sp, #4]
    b964:	e58de000 	str	lr, [sp]
    b968:	e58dc014 	str	ip, [sp, #20]
    b96c:	eb0018e9 	bl	11d18 <fprintf>
    b970:	e304309c 	movw	r3, #16540	; 0x409c
    b974:	e3403001 	movt	r3, #1
    b978:	e5932000 	ldr	r2, [r3]
    b97c:	e2822001 	add	r2, r2, #1
    b980:	e5832000 	str	r2, [r3]
    b984:	e356007f 	cmp	r6, #127	; 0x7f
    b988:	0a000023 	beq	ba1c <run_port_create_test+0x190>
    b98c:	e58d6000 	str	r6, [sp]
    b990:	e1a03009 	mov	r3, r9
    b994:	e1a02005 	mov	r2, r5
    b998:	e1a01007 	mov	r1, r7
    b99c:	e28d0020 	add	r0, sp, #32
    b9a0:	e2866001 	add	r6, r6, #1
    b9a4:	eb0018c1 	bl	11cb0 <sprintf>
    b9a8:	e3a03000 	mov	r3, #0
    b9ac:	e3a02a01 	mov	r2, #4096	; 0x1000
    b9b0:	e3a01002 	mov	r1, #2
    b9b4:	e28d0020 	add	r0, sp, #32
    b9b8:	eb0013f1 	bl	10984 <port_create>
    b9bc:	e5943000 	ldr	r3, [r4]
    b9c0:	e250a000 	subs	sl, r0, #0
    b9c4:	e2833001 	add	r3, r3, #1
    b9c8:	e5843000 	str	r3, [r4]
    b9cc:	aaffffcc 	bge	b904 <run_port_create_test+0x78>
    b9d0:	e303303c 	movw	r3, #12348	; 0x303c
    b9d4:	e3022fc0 	movw	r2, #12224	; 0x2fc0
    b9d8:	e3403001 	movt	r3, #1
    b9dc:	e3031010 	movw	r1, #12304	; 0x3010
    b9e0:	e3402001 	movt	r2, #1
    b9e4:	e58d3000 	str	r3, [sp]
    b9e8:	e58da004 	str	sl, [sp, #4]
    b9ec:	e300312e 	movw	r3, #302	; 0x12e
    b9f0:	e3401001 	movt	r1, #1
    b9f4:	e59f030c 	ldr	r0, [pc, #780]	; bd08 <run_port_create_test+0x47c>
    b9f8:	eb0018c6 	bl	11d18 <fprintf>
    b9fc:	e304309c 	movw	r3, #16540	; 0x409c
    ba00:	e3a02000 	mov	r2, #0
    ba04:	e3403001 	movt	r3, #1
    ba08:	e58d2014 	str	r2, [sp, #20]
    ba0c:	e5932000 	ldr	r2, [r3]
    ba10:	e2822001 	add	r2, r2, #1
    ba14:	e5832000 	str	r2, [r3]
    ba18:	eaffffb9 	b	b904 <run_port_create_test+0x78>
    ba1c:	e3023ff8 	movw	r3, #12280	; 0x2ff8
    ba20:	e3022fe4 	movw	r2, #12260	; 0x2fe4
    ba24:	e3031000 	movw	r1, #12288	; 0x3000
    ba28:	e58d6000 	str	r6, [sp]
    ba2c:	e3403001 	movt	r3, #1
    ba30:	e3402001 	movt	r2, #1
    ba34:	e3401001 	movt	r1, #1
    ba38:	e28d0020 	add	r0, sp, #32
    ba3c:	e59d5018 	ldr	r5, [sp, #24]
    ba40:	e59d7014 	ldr	r7, [sp, #20]
    ba44:	eb001899 	bl	11cb0 <sprintf>
    ba48:	e3a03000 	mov	r3, #0
    ba4c:	e3a02a01 	mov	r2, #4096	; 0x1000
    ba50:	e3a01002 	mov	r1, #2
    ba54:	e28d0020 	add	r0, sp, #32
    ba58:	eb0013c9 	bl	10984 <port_create>
    ba5c:	e5943000 	ldr	r3, [r4]
    ba60:	e2506000 	subs	r6, r0, #0
    ba64:	e2833001 	add	r3, r3, #1
    ba68:	e5843000 	str	r3, [r4]
    ba6c:	ba000093 	blt	bcc0 <run_port_create_test+0x434>
    ba70:	e3a03000 	mov	r3, #0
    ba74:	e3a02a01 	mov	r2, #4096	; 0x1000
    ba78:	e3a01002 	mov	r1, #2
    ba7c:	e28d0020 	add	r0, sp, #32
    ba80:	e58d625c 	str	r6, [sp, #604]	; 0x25c
    ba84:	eb0013be 	bl	10984 <port_create>
    ba88:	e5943000 	ldr	r3, [r4]
    ba8c:	e3700029 	cmn	r0, #41	; 0x29
    ba90:	e2833001 	add	r3, r3, #1
    ba94:	e5843000 	str	r3, [r4]
    ba98:	0a000012 	beq	bae8 <run_port_create_test+0x25c>
    ba9c:	e303308c 	movw	r3, #12428	; 0x308c
    baa0:	e3e0c028 	mvn	ip, #40	; 0x28
    baa4:	e3403001 	movt	r3, #1
    baa8:	e3022fc0 	movw	r2, #12224	; 0x2fc0
    baac:	e30310a4 	movw	r1, #12452	; 0x30a4
    bab0:	e58d0008 	str	r0, [sp, #8]
    bab4:	e58d3000 	str	r3, [sp]
    bab8:	e3402001 	movt	r2, #1
    babc:	e3a03d05 	mov	r3, #320	; 0x140
    bac0:	e58dc004 	str	ip, [sp, #4]
    bac4:	e3401001 	movt	r1, #1
    bac8:	e59f0238 	ldr	r0, [pc, #568]	; bd08 <run_port_create_test+0x47c>
    bacc:	eb001891 	bl	11d18 <fprintf>
    bad0:	e304309c 	movw	r3, #16540	; 0x409c
    bad4:	e3a07000 	mov	r7, #0
    bad8:	e3403001 	movt	r3, #1
    badc:	e5932000 	ldr	r2, [r3]
    bae0:	e2822001 	add	r2, r2, #1
    bae4:	e5832000 	str	r2, [r3]
    bae8:	e3a00080 	mov	r0, #128	; 0x80
    baec:	e3023ff8 	movw	r3, #12280	; 0x2ff8
    baf0:	e3022fe4 	movw	r2, #12260	; 0x2fe4
    baf4:	e3031000 	movw	r1, #12288	; 0x3000
    baf8:	e58d0000 	str	r0, [sp]
    bafc:	e3403001 	movt	r3, #1
    bb00:	e3402001 	movt	r2, #1
    bb04:	e3401001 	movt	r1, #1
    bb08:	e28d0020 	add	r0, sp, #32
    bb0c:	eb001867 	bl	11cb0 <sprintf>
    bb10:	e3a03000 	mov	r3, #0
    bb14:	e28d0020 	add	r0, sp, #32
    bb18:	e3a02a01 	mov	r2, #4096	; 0x1000
    bb1c:	e3a01002 	mov	r1, #2
    bb20:	eb001397 	bl	10984 <port_create>
    bb24:	e5943000 	ldr	r3, [r4]
    bb28:	e3700029 	cmn	r0, #41	; 0x29
    bb2c:	e2833001 	add	r3, r3, #1
    bb30:	e5843000 	str	r3, [r4]
    bb34:	0a000012 	beq	bb84 <run_port_create_test+0x2f8>
    bb38:	e30330e0 	movw	r3, #12512	; 0x30e0
    bb3c:	e3e0c028 	mvn	ip, #40	; 0x28
    bb40:	e3403001 	movt	r3, #1
    bb44:	e3022fc0 	movw	r2, #12224	; 0x2fc0
    bb48:	e30310a4 	movw	r1, #12452	; 0x30a4
    bb4c:	e58d0008 	str	r0, [sp, #8]
    bb50:	e58d3000 	str	r3, [sp]
    bb54:	e3402001 	movt	r2, #1
    bb58:	e3a03f51 	mov	r3, #324	; 0x144
    bb5c:	e58dc004 	str	ip, [sp, #4]
    bb60:	e3401001 	movt	r1, #1
    bb64:	e59f019c 	ldr	r0, [pc, #412]	; bd08 <run_port_create_test+0x47c>
    bb68:	eb00186a 	bl	11d18 <fprintf>
    bb6c:	e304309c 	movw	r3, #16540	; 0x409c
    bb70:	e3a07000 	mov	r7, #0
    bb74:	e3403001 	movt	r3, #1
    bb78:	e5932000 	ldr	r2, [r3]
    bb7c:	e2822001 	add	r2, r2, #1
    bb80:	e5832000 	str	r2, [r3]
    bb84:	e30330ec 	movw	r3, #12524	; 0x30ec
    bb88:	e3039120 	movw	r9, #12576	; 0x3120
    bb8c:	e3026fc0 	movw	r6, #12224	; 0x2fc0
    bb90:	e3403001 	movt	r3, #1
    bb94:	e3409001 	movt	r9, #1
    bb98:	e3406001 	movt	r6, #1
    bb9c:	e58d3014 	str	r3, [sp, #20]
    bba0:	e28d8f97 	add	r8, sp, #604	; 0x25c
    bba4:	ea00001d 	b	bc20 <run_port_create_test+0x394>
    bba8:	e1a0000a 	mov	r0, sl
    bbac:	e3e0b001 	mvn	fp, #1
    bbb0:	eb00137c 	bl	109a8 <close>
    bbb4:	e594c000 	ldr	ip, [r4]
    bbb8:	e1a0a000 	mov	sl, r0
    bbbc:	e15a000b 	cmp	sl, fp
    bbc0:	e303e16c 	movw	lr, #12652	; 0x316c
    bbc4:	e3031130 	movw	r1, #12592	; 0x3130
    bbc8:	e59f0138 	ldr	r0, [pc, #312]	; bd08 <run_port_create_test+0x47c>
    bbcc:	e28cc001 	add	ip, ip, #1
    bbd0:	e340e001 	movt	lr, #1
    bbd4:	e300314e 	movw	r3, #334	; 0x14e
    bbd8:	e1a02006 	mov	r2, r6
    bbdc:	e3401001 	movt	r1, #1
    bbe0:	e584c000 	str	ip, [r4]
    bbe4:	0a000009 	beq	bc10 <run_port_create_test+0x384>
    bbe8:	e58da008 	str	sl, [sp, #8]
    bbec:	e3a07000 	mov	r7, #0
    bbf0:	e58db004 	str	fp, [sp, #4]
    bbf4:	e58de000 	str	lr, [sp]
    bbf8:	eb001846 	bl	11d18 <fprintf>
    bbfc:	e304309c 	movw	r3, #16540	; 0x409c
    bc00:	e3403001 	movt	r3, #1
    bc04:	e5932000 	ldr	r2, [r3]
    bc08:	e2822001 	add	r2, r2, #1
    bc0c:	e5832000 	str	r2, [r3]
    bc10:	e1550008 	cmp	r5, r8
    bc14:	e3e03000 	mvn	r3, #0
    bc18:	e5853000 	str	r3, [r5]
    bc1c:	0a000016 	beq	bc7c <run_port_create_test+0x3f0>
    bc20:	e5b5a004 	ldr	sl, [r5, #4]!
    bc24:	e1a0000a 	mov	r0, sl
    bc28:	eb00135e 	bl	109a8 <close>
    bc2c:	e5943000 	ldr	r3, [r4]
    bc30:	e3500000 	cmp	r0, #0
    bc34:	e2833001 	add	r3, r3, #1
    bc38:	e5843000 	str	r3, [r4]
    bc3c:	0affffd9 	beq	bba8 <run_port_create_test+0x31c>
    bc40:	e3a07000 	mov	r7, #0
    bc44:	e58d0008 	str	r0, [sp, #8]
    bc48:	e300314a 	movw	r3, #330	; 0x14a
    bc4c:	e1a02006 	mov	r2, r6
    bc50:	e58d9000 	str	r9, [sp]
    bc54:	e58d7004 	str	r7, [sp, #4]
    bc58:	e59d1014 	ldr	r1, [sp, #20]
    bc5c:	e59f00a4 	ldr	r0, [pc, #164]	; bd08 <run_port_create_test+0x47c>
    bc60:	eb00182c 	bl	11d18 <fprintf>
    bc64:	e304309c 	movw	r3, #16540	; 0x409c
    bc68:	e3403001 	movt	r3, #1
    bc6c:	e5932000 	ldr	r2, [r3]
    bc70:	e2822001 	add	r2, r2, #1
    bc74:	e5832000 	str	r2, [r3]
    bc78:	eaffffca 	b	bba8 <run_port_create_test+0x31c>
    bc7c:	e3570000 	cmp	r7, #0
    bc80:	e3022fc0 	movw	r2, #12224	; 0x2fc0
    bc84:	159d301c 	ldrne	r3, [sp, #28]
    bc88:	13031180 	movwne	r1, #12672	; 0x3180
    bc8c:	059d301c 	ldreq	r3, [sp, #28]
    bc90:	03031194 	movweq	r1, #12692	; 0x3194
    bc94:	13402001 	movtne	r2, #1
    bc98:	13401001 	movtne	r1, #1
    bc9c:	158d3000 	strne	r3, [sp]
    bca0:	03402001 	movteq	r2, #1
    bca4:	058d3000 	streq	r3, [sp]
    bca8:	03401001 	movteq	r1, #1
    bcac:	e3003153 	movw	r3, #339	; 0x153
    bcb0:	e59f0050 	ldr	r0, [pc, #80]	; bd08 <run_port_create_test+0x47c>
    bcb4:	eb001817 	bl	11d18 <fprintf>
    bcb8:	e28ddf99 	add	sp, sp, #612	; 0x264
    bcbc:	e8bd8ff0 	pop	{r4, r5, r6, r7, r8, r9, sl, fp, pc}
    bcc0:	e303303c 	movw	r3, #12348	; 0x303c
    bcc4:	e3022fc0 	movw	r2, #12224	; 0x2fc0
    bcc8:	e3403001 	movt	r3, #1
    bccc:	e3031010 	movw	r1, #12304	; 0x3010
    bcd0:	e3402001 	movt	r2, #1
    bcd4:	e58d3000 	str	r3, [sp]
    bcd8:	e58d6004 	str	r6, [sp, #4]
    bcdc:	e3003139 	movw	r3, #313	; 0x139
    bce0:	e3401001 	movt	r1, #1
    bce4:	e59f001c 	ldr	r0, [pc, #28]	; bd08 <run_port_create_test+0x47c>
    bce8:	eb00180a 	bl	11d18 <fprintf>
    bcec:	e304309c 	movw	r3, #16540	; 0x409c
    bcf0:	e3a07000 	mov	r7, #0
    bcf4:	e3403001 	movt	r3, #1
    bcf8:	e5932000 	ldr	r2, [r3]
    bcfc:	e2822001 	add	r2, r2, #1
    bd00:	e5832000 	str	r2, [r3]
    bd04:	eaffff59 	b	ba70 <run_port_create_test+0x1e4>
    bd08:	00014048 	.word	0x00014048

0000bd0c <run_wait_on_port_test>:
    bd0c:	e3023444 	movw	r3, #9284	; 0x2444
    bd10:	e92d4ff0 	push	{r4, r5, r6, r7, r8, r9, sl, fp, lr}
    bd14:	e3403001 	movt	r3, #1
    bd18:	e24ddf9d 	sub	sp, sp, #628	; 0x274
    bd1c:	e3022fc0 	movw	r2, #12224	; 0x2fc0
    bd20:	e3021fd4 	movw	r1, #12244	; 0x2fd4
    bd24:	e58d301c 	str	r3, [sp, #28]
    bd28:	e3402001 	movt	r2, #1
    bd2c:	e58d3000 	str	r3, [sp]
    bd30:	e3401001 	movt	r1, #1
    bd34:	e3a03e16 	mov	r3, #352	; 0x160
    bd38:	e59f0418 	ldr	r0, [pc, #1048]	; c158 <run_wait_on_port_test+0x44c>
    bd3c:	e28d6074 	add	r6, sp, #116	; 0x74
    bd40:	e30440a0 	movw	r4, #16544	; 0x40a0
    bd44:	eb0017f3 	bl	11d18 <fprintf>
    bd48:	e302bff8 	movw	fp, #12280	; 0x2ff8
    bd4c:	e302afe4 	movw	sl, #12260	; 0x2fe4
    bd50:	e3039000 	movw	r9, #12288	; 0x3000
    bd54:	e3a03001 	mov	r3, #1
    bd58:	e3404001 	movt	r4, #1
    bd5c:	e340b001 	movt	fp, #1
    bd60:	e340a001 	movt	sl, #1
    bd64:	e3409001 	movt	r9, #1
    bd68:	e1a08006 	mov	r8, r6
    bd6c:	e3a05002 	mov	r5, #2
    bd70:	e1a07003 	mov	r7, r3
    bd74:	e58d6014 	str	r6, [sp, #20]
    bd78:	ea000001 	b	bd84 <run_wait_on_port_test+0x78>
    bd7c:	e3550080 	cmp	r5, #128	; 0x80
    bd80:	0a00002d 	beq	be3c <run_wait_on_port_test+0x130>
    bd84:	e1a0300b 	mov	r3, fp
    bd88:	e1a0200a 	mov	r2, sl
    bd8c:	e1a01009 	mov	r1, r9
    bd90:	e58d5000 	str	r5, [sp]
    bd94:	e28d0030 	add	r0, sp, #48	; 0x30
    bd98:	eb0017c4 	bl	11cb0 <sprintf>
    bd9c:	e3a03000 	mov	r3, #0
    bda0:	e3a02a01 	mov	r2, #4096	; 0x1000
    bda4:	e3a01002 	mov	r1, #2
    bda8:	e28d0030 	add	r0, sp, #48	; 0x30
    bdac:	eb0012f4 	bl	10984 <port_create>
    bdb0:	e5943000 	ldr	r3, [r4]
    bdb4:	e2506000 	subs	r6, r0, #0
    bdb8:	e2833001 	add	r3, r3, #1
    bdbc:	e5843000 	str	r3, [r4]
    bdc0:	ba0000d2 	blt	c110 <run_wait_on_port_test+0x404>
    bdc4:	e2851064 	add	r1, r5, #100	; 0x64
    bdc8:	e1a00006 	mov	r0, r6
    bdcc:	e5a86004 	str	r6, [r8, #4]!
    bdd0:	e2855001 	add	r5, r5, #1
    bdd4:	eb0012f6 	bl	109b4 <set_cookie>
    bdd8:	e5943000 	ldr	r3, [r4]
    bddc:	e3500000 	cmp	r0, #0
    bde0:	e2833001 	add	r3, r3, #1
    bde4:	e5843000 	str	r3, [r4]
    bde8:	0affffe3 	beq	bd7c <run_wait_on_port_test+0x70>
    bdec:	e3033424 	movw	r3, #13348	; 0x3424
    bdf0:	e3a07000 	mov	r7, #0
    bdf4:	e3403001 	movt	r3, #1
    bdf8:	e3022fc0 	movw	r2, #12224	; 0x2fc0
    bdfc:	e30310ec 	movw	r1, #12524	; 0x30ec
    be00:	e58d0008 	str	r0, [sp, #8]
    be04:	e58d3000 	str	r3, [sp]
    be08:	e3402001 	movt	r2, #1
    be0c:	e3a03f5b 	mov	r3, #364	; 0x16c
    be10:	e58d7004 	str	r7, [sp, #4]
    be14:	e3401001 	movt	r1, #1
    be18:	e59f0338 	ldr	r0, [pc, #824]	; c158 <run_wait_on_port_test+0x44c>
    be1c:	eb0017bd 	bl	11d18 <fprintf>
    be20:	e304309c 	movw	r3, #16540	; 0x409c
    be24:	e3550080 	cmp	r5, #128	; 0x80
    be28:	e3403001 	movt	r3, #1
    be2c:	e5932000 	ldr	r2, [r3]
    be30:	e2822001 	add	r2, r2, #1
    be34:	e5832000 	str	r2, [r3]
    be38:	1affffd1 	bne	bd84 <run_wait_on_port_test+0x78>
    be3c:	e59d6014 	ldr	r6, [sp, #20]
    be40:	e1a02007 	mov	r2, r7
    be44:	e3028fc0 	movw	r8, #12224	; 0x2fc0
    be48:	e3037438 	movw	r7, #13368	; 0x3438
    be4c:	e3033478 	movw	r3, #13432	; 0x3478
    be50:	e3408001 	movt	r8, #1
    be54:	e1a05006 	mov	r5, r6
    be58:	e58d6018 	str	r6, [sp, #24]
    be5c:	e3407001 	movt	r7, #1
    be60:	e28dbf9b 	add	fp, sp, #620	; 0x26c
    be64:	e1a06002 	mov	r6, r2
    be68:	e3403001 	movt	r3, #1
    be6c:	e58d3014 	str	r3, [sp, #20]
    be70:	e5b59004 	ldr	r9, [r5, #4]!
    be74:	e3a02000 	mov	r2, #0
    be78:	e28d1024 	add	r1, sp, #36	; 0x24
    be7c:	e3e0a00c 	mvn	sl, #12
    be80:	e1a00009 	mov	r0, r9
    be84:	eb0012cd 	bl	109c0 <wait>
    be88:	e594c000 	ldr	ip, [r4]
    be8c:	e1a0e000 	mov	lr, r0
    be90:	e15e000a 	cmp	lr, sl
    be94:	e59f02bc 	ldr	r0, [pc, #700]	; c158 <run_wait_on_port_test+0x44c>
    be98:	e3003173 	movw	r3, #371	; 0x173
    be9c:	e1a02008 	mov	r2, r8
    bea0:	e28cc001 	add	ip, ip, #1
    bea4:	e1a01007 	mov	r1, r7
    bea8:	e584c000 	str	ip, [r4]
    beac:	0a00000a 	beq	bedc <run_wait_on_port_test+0x1d0>
    beb0:	e59dc014 	ldr	ip, [sp, #20]
    beb4:	e3a06000 	mov	r6, #0
    beb8:	e58de008 	str	lr, [sp, #8]
    bebc:	e58da004 	str	sl, [sp, #4]
    bec0:	e58dc000 	str	ip, [sp]
    bec4:	eb001793 	bl	11d18 <fprintf>
    bec8:	e304309c 	movw	r3, #16540	; 0x409c
    becc:	e3403001 	movt	r3, #1
    bed0:	e5932000 	ldr	r2, [r3]
    bed4:	e2822001 	add	r2, r2, #1
    bed8:	e5832000 	str	r2, [r3]
    bedc:	e1a00009 	mov	r0, r9
    bee0:	e3a02064 	mov	r2, #100	; 0x64
    bee4:	e28d1024 	add	r1, sp, #36	; 0x24
    bee8:	e3e0a00c 	mvn	sl, #12
    beec:	eb0012b3 	bl	109c0 <wait>
    bef0:	e594c000 	ldr	ip, [r4]
    bef4:	e1a09000 	mov	r9, r0
    bef8:	e159000a 	cmp	r9, sl
    befc:	e303e474 	movw	lr, #13428	; 0x3474
    bf00:	e59f0250 	ldr	r0, [pc, #592]	; c158 <run_wait_on_port_test+0x44c>
    bf04:	e340e001 	movt	lr, #1
    bf08:	e28cc001 	add	ip, ip, #1
    bf0c:	e3003177 	movw	r3, #375	; 0x177
    bf10:	e1a02008 	mov	r2, r8
    bf14:	e1a01007 	mov	r1, r7
    bf18:	e584c000 	str	ip, [r4]
    bf1c:	0a000009 	beq	bf48 <run_wait_on_port_test+0x23c>
    bf20:	e58d9008 	str	r9, [sp, #8]
    bf24:	e3a06000 	mov	r6, #0
    bf28:	e58da004 	str	sl, [sp, #4]
    bf2c:	e58de000 	str	lr, [sp]
    bf30:	eb001778 	bl	11d18 <fprintf>
    bf34:	e304309c 	movw	r3, #16540	; 0x409c
    bf38:	e3403001 	movt	r3, #1
    bf3c:	e5932000 	ldr	r2, [r3]
    bf40:	e2822001 	add	r2, r2, #1
    bf44:	e5832000 	str	r2, [r3]
    bf48:	e155000b 	cmp	r5, fp
    bf4c:	1affffc7 	bne	be70 <run_wait_on_port_test+0x164>
    bf50:	e3a01000 	mov	r1, #0
    bf54:	e28d0024 	add	r0, sp, #36	; 0x24
    bf58:	e1a0a006 	mov	sl, r6
    bf5c:	e59d6018 	ldr	r6, [sp, #24]
    bf60:	eb001299 	bl	109cc <wait_any>
    bf64:	e5943000 	ldr	r3, [r4]
    bf68:	e370000d 	cmn	r0, #13
    bf6c:	e2833001 	add	r3, r3, #1
    bf70:	e5843000 	str	r3, [r4]
    bf74:	0a000013 	beq	bfc8 <run_wait_on_port_test+0x2bc>
    bf78:	e3033478 	movw	r3, #13432	; 0x3478
    bf7c:	e3e0c00c 	mvn	ip, #12
    bf80:	e3403001 	movt	r3, #1
    bf84:	e3022fc0 	movw	r2, #12224	; 0x2fc0
    bf88:	e3031438 	movw	r1, #13368	; 0x3438
    bf8c:	e58d0008 	str	r0, [sp, #8]
    bf90:	e58d3000 	str	r3, [sp]
    bf94:	e3402001 	movt	r2, #1
    bf98:	e3a03f5f 	mov	r3, #380	; 0x17c
    bf9c:	e58dc004 	str	ip, [sp, #4]
    bfa0:	e3401001 	movt	r1, #1
    bfa4:	e59f01ac 	ldr	r0, [pc, #428]	; c158 <run_wait_on_port_test+0x44c>
    bfa8:	eb00175a 	bl	11d18 <fprintf>
    bfac:	e304309c 	movw	r3, #16540	; 0x409c
    bfb0:	e3a02000 	mov	r2, #0
    bfb4:	e3403001 	movt	r3, #1
    bfb8:	e1a0a002 	mov	sl, r2
    bfbc:	e5932000 	ldr	r2, [r3]
    bfc0:	e2822001 	add	r2, r2, #1
    bfc4:	e5832000 	str	r2, [r3]
    bfc8:	e28d0024 	add	r0, sp, #36	; 0x24
    bfcc:	e3a01064 	mov	r1, #100	; 0x64
    bfd0:	eb00127d 	bl	109cc <wait_any>
    bfd4:	e5943000 	ldr	r3, [r4]
    bfd8:	e370000d 	cmn	r0, #13
    bfdc:	e2833001 	add	r3, r3, #1
    bfe0:	e5843000 	str	r3, [r4]
    bfe4:	0a000013 	beq	c038 <run_wait_on_port_test+0x32c>
    bfe8:	e3033474 	movw	r3, #13428	; 0x3474
    bfec:	e3e0c00c 	mvn	ip, #12
    bff0:	e3403001 	movt	r3, #1
    bff4:	e3022fc0 	movw	r2, #12224	; 0x2fc0
    bff8:	e3031438 	movw	r1, #13368	; 0x3438
    bffc:	e58d0008 	str	r0, [sp, #8]
    c000:	e58d3000 	str	r3, [sp]
    c004:	e3402001 	movt	r2, #1
    c008:	e3a03d06 	mov	r3, #384	; 0x180
    c00c:	e58dc004 	str	ip, [sp, #4]
    c010:	e3401001 	movt	r1, #1
    c014:	e59f013c 	ldr	r0, [pc, #316]	; c158 <run_wait_on_port_test+0x44c>
    c018:	eb00173e 	bl	11d18 <fprintf>
    c01c:	e304309c 	movw	r3, #16540	; 0x409c
    c020:	e3a02000 	mov	r2, #0
    c024:	e3403001 	movt	r3, #1
    c028:	e1a0a002 	mov	sl, r2
    c02c:	e5932000 	ldr	r2, [r3]
    c030:	e2822001 	add	r2, r2, #1
    c034:	e5832000 	str	r2, [r3]
    c038:	e303916c 	movw	r9, #12652	; 0x316c
    c03c:	e3028fc0 	movw	r8, #12224	; 0x2fc0
    c040:	e30370ec 	movw	r7, #12524	; 0x30ec
    c044:	e3409001 	movt	r9, #1
    c048:	e3408001 	movt	r8, #1
    c04c:	e3407001 	movt	r7, #1
    c050:	ea000003 	b	c064 <run_wait_on_port_test+0x358>
    c054:	e1550006 	cmp	r5, r6
    c058:	e3e03000 	mvn	r3, #0
    c05c:	e5863000 	str	r3, [r6]
    c060:	0a000018 	beq	c0c8 <run_wait_on_port_test+0x3bc>
    c064:	e5b60004 	ldr	r0, [r6, #4]!
    c068:	eb00124e 	bl	109a8 <close>
    c06c:	e5943000 	ldr	r3, [r4]
    c070:	e3500000 	cmp	r0, #0
    c074:	e2833001 	add	r3, r3, #1
    c078:	e5843000 	str	r3, [r4]
    c07c:	0afffff4 	beq	c054 <run_wait_on_port_test+0x348>
    c080:	e3a0a000 	mov	sl, #0
    c084:	e58d0008 	str	r0, [sp, #8]
    c088:	e3003186 	movw	r3, #390	; 0x186
    c08c:	e1a02008 	mov	r2, r8
    c090:	e58d9000 	str	r9, [sp]
    c094:	e1a01007 	mov	r1, r7
    c098:	e58da004 	str	sl, [sp, #4]
    c09c:	e59f00b4 	ldr	r0, [pc, #180]	; c158 <run_wait_on_port_test+0x44c>
    c0a0:	eb00171c 	bl	11d18 <fprintf>
    c0a4:	e304309c 	movw	r3, #16540	; 0x409c
    c0a8:	e1550006 	cmp	r5, r6
    c0ac:	e3403001 	movt	r3, #1
    c0b0:	e5932000 	ldr	r2, [r3]
    c0b4:	e2822001 	add	r2, r2, #1
    c0b8:	e5832000 	str	r2, [r3]
    c0bc:	e3e03000 	mvn	r3, #0
    c0c0:	e5863000 	str	r3, [r6]
    c0c4:	1affffe6 	bne	c064 <run_wait_on_port_test+0x358>
    c0c8:	e35a0000 	cmp	sl, #0
    c0cc:	e1a0300a 	mov	r3, sl
    c0d0:	159d301c 	ldrne	r3, [sp, #28]
    c0d4:	e3022fc0 	movw	r2, #12224	; 0x2fc0
    c0d8:	059d301c 	ldreq	r3, [sp, #28]
    c0dc:	13031180 	movwne	r1, #12672	; 0x3180
    c0e0:	03031194 	movweq	r1, #12692	; 0x3194
    c0e4:	13402001 	movtne	r2, #1
    c0e8:	158d3000 	strne	r3, [sp]
    c0ec:	13401001 	movtne	r1, #1
    c0f0:	058d3000 	streq	r3, [sp]
    c0f4:	03402001 	movteq	r2, #1
    c0f8:	03401001 	movteq	r1, #1
    c0fc:	e300318a 	movw	r3, #394	; 0x18a
    c100:	e59f0050 	ldr	r0, [pc, #80]	; c158 <run_wait_on_port_test+0x44c>
    c104:	eb001703 	bl	11d18 <fprintf>
    c108:	e28ddf9d 	add	sp, sp, #628	; 0x274
    c10c:	e8bd8ff0 	pop	{r4, r5, r6, r7, r8, r9, sl, fp, pc}
    c110:	e30330e0 	movw	r3, #12512	; 0x30e0
    c114:	e3022fc0 	movw	r2, #12224	; 0x2fc0
    c118:	e3403001 	movt	r3, #1
    c11c:	e3031010 	movw	r1, #12304	; 0x3010
    c120:	e3402001 	movt	r2, #1
    c124:	e58d3000 	str	r3, [sp]
    c128:	e58d6004 	str	r6, [sp, #4]
    c12c:	e3a03f5a 	mov	r3, #360	; 0x168
    c130:	e3401001 	movt	r1, #1
    c134:	e59f001c 	ldr	r0, [pc, #28]	; c158 <run_wait_on_port_test+0x44c>
    c138:	eb0016f6 	bl	11d18 <fprintf>
    c13c:	e304309c 	movw	r3, #16540	; 0x409c
    c140:	e3a07000 	mov	r7, #0
    c144:	e3403001 	movt	r3, #1
    c148:	e5932000 	ldr	r2, [r3]
    c14c:	e2822001 	add	r2, r2, #1
    c150:	e5832000 	str	r2, [r3]
    c154:	eaffff1a 	b	bdc4 <run_wait_on_port_test+0xb8>
    c158:	00014048 	.word	0x00014048

0000c15c <sync_connect>:
    c15c:	e92d4030 	push	{r4, r5, lr}
    c160:	e1a05001 	mov	r5, r1
    c164:	e24dd014 	sub	sp, sp, #20
    c168:	e3a01003 	mov	r1, #3
    c16c:	eb001207 	bl	10990 <connect>
    c170:	e2504000 	subs	r4, r0, #0
    c174:	ba00000a 	blt	c1a4 <sync_connect+0x48>
    c178:	e1a02005 	mov	r2, r5
    c17c:	e28d1004 	add	r1, sp, #4
    c180:	eb00120e 	bl	109c0 <wait>
    c184:	e2503000 	subs	r3, r0, #0
    c188:	e1a00004 	mov	r0, r4
    c18c:	1a000007 	bne	c1b0 <sync_connect+0x54>
    c190:	e59d3004 	ldr	r3, [sp, #4]
    c194:	e1530004 	cmp	r3, r4
    c198:	13e0401e 	mvnne	r4, #30
    c19c:	0a000005 	beq	c1b8 <sync_connect+0x5c>
    c1a0:	eb001200 	bl	109a8 <close>
    c1a4:	e1a00004 	mov	r0, r4
    c1a8:	e28dd014 	add	sp, sp, #20
    c1ac:	e8bd8030 	pop	{r4, r5, pc}
    c1b0:	e1a04003 	mov	r4, r3
    c1b4:	eafffff9 	b	c1a0 <sync_connect+0x44>
    c1b8:	e59d3008 	ldr	r3, [sp, #8]
    c1bc:	e3130001 	tst	r3, #1
    c1c0:	1afffff7 	bne	c1a4 <sync_connect+0x48>
    c1c4:	e3130004 	tst	r3, #4
    c1c8:	03e0401e 	mvneq	r4, #30
    c1cc:	13e0400e 	mvnne	r4, #14
    c1d0:	eafffff2 	b	c1a0 <sync_connect+0x44>

0000c1d4 <run_accept_test>:
    c1d4:	e3023514 	movw	r3, #9492	; 0x2514
    c1d8:	e92d4ff0 	push	{r4, r5, r6, r7, r8, r9, sl, fp, lr}
    c1dc:	e3a00000 	mov	r0, #0
    c1e0:	e24ddfa3 	sub	sp, sp, #652	; 0x28c
    c1e4:	e3403001 	movt	r3, #1
    c1e8:	e3022fc0 	movw	r2, #12224	; 0x2fc0
    c1ec:	e3021fd4 	movw	r1, #12244	; 0x2fd4
    c1f0:	e58d3014 	str	r3, [sp, #20]
    c1f4:	e58d3000 	str	r3, [sp]
    c1f8:	e30440a0 	movw	r4, #16544	; 0x40a0
    c1fc:	e58d002c 	str	r0, [sp, #44]	; 0x2c
    c200:	e302afe4 	movw	sl, #12260	; 0x2fe4
    c204:	e58d0028 	str	r0, [sp, #40]	; 0x28
    c208:	e3029bc4 	movw	r9, #11204	; 0x2bc4
    c20c:	e58d0030 	str	r0, [sp, #48]	; 0x30
    c210:	e303b0e0 	movw	fp, #12512	; 0x30e0
    c214:	e58d0034 	str	r0, [sp, #52]	; 0x34
    c218:	e3402001 	movt	r2, #1
    c21c:	e58d0038 	str	r0, [sp, #56]	; 0x38
    c220:	e3401001 	movt	r1, #1
    c224:	e58d003c 	str	r0, [sp, #60]	; 0x3c
    c228:	e300333e 	movw	r3, #830	; 0x33e
    c22c:	e58d0040 	str	r0, [sp, #64]	; 0x40
    c230:	e3404001 	movt	r4, #1
    c234:	e58d0044 	str	r0, [sp, #68]	; 0x44
    c238:	e340a001 	movt	sl, #1
    c23c:	e59f06dc 	ldr	r0, [pc, #1756]	; c920 <run_accept_test+0x74c>
    c240:	e3409001 	movt	r9, #1
    c244:	e340b001 	movt	fp, #1
    c248:	e28d808c 	add	r8, sp, #140	; 0x8c
    c24c:	e3a07002 	mov	r7, #2
    c250:	e3a05001 	mov	r5, #1
    c254:	eb0016af 	bl	11d18 <fprintf>
    c258:	ea000001 	b	c264 <run_accept_test+0x90>
    c25c:	e3570080 	cmp	r7, #128	; 0x80
    c260:	0a00002c 	beq	c318 <run_accept_test+0x144>
    c264:	e1a03007 	mov	r3, r7
    c268:	e1a0200a 	mov	r2, sl
    c26c:	e1a01009 	mov	r1, r9
    c270:	e28d0048 	add	r0, sp, #72	; 0x48
    c274:	eb00168d 	bl	11cb0 <sprintf>
    c278:	e3a03001 	mov	r3, #1
    c27c:	e3a02a01 	mov	r2, #4096	; 0x1000
    c280:	e3a01002 	mov	r1, #2
    c284:	e28d0048 	add	r0, sp, #72	; 0x48
    c288:	eb0011bd 	bl	10984 <port_create>
    c28c:	e5943000 	ldr	r3, [r4]
    c290:	e2506000 	subs	r6, r0, #0
    c294:	e2877001 	add	r7, r7, #1
    c298:	e2833001 	add	r3, r3, #1
    c29c:	e5843000 	str	r3, [r4]
    c2a0:	ba000099 	blt	c50c <run_accept_test+0x338>
    c2a4:	e2861064 	add	r1, r6, #100	; 0x64
    c2a8:	e1a00006 	mov	r0, r6
    c2ac:	e5a86004 	str	r6, [r8, #4]!
    c2b0:	eb0011bf 	bl	109b4 <set_cookie>
    c2b4:	e5943000 	ldr	r3, [r4]
    c2b8:	e3500000 	cmp	r0, #0
    c2bc:	e2833001 	add	r3, r3, #1
    c2c0:	e5843000 	str	r3, [r4]
    c2c4:	0affffe4 	beq	c25c <run_accept_test+0x88>
    c2c8:	e3033424 	movw	r3, #13348	; 0x3424
    c2cc:	e3a05000 	mov	r5, #0
    c2d0:	e3403001 	movt	r3, #1
    c2d4:	e3022fc0 	movw	r2, #12224	; 0x2fc0
    c2d8:	e30310ec 	movw	r1, #12524	; 0x30ec
    c2dc:	e58d0008 	str	r0, [sp, #8]
    c2e0:	e58d3000 	str	r3, [sp]
    c2e4:	e3402001 	movt	r2, #1
    c2e8:	e300334b 	movw	r3, #843	; 0x34b
    c2ec:	e58d5004 	str	r5, [sp, #4]
    c2f0:	e3401001 	movt	r1, #1
    c2f4:	e59f0624 	ldr	r0, [pc, #1572]	; c920 <run_accept_test+0x74c>
    c2f8:	eb001686 	bl	11d18 <fprintf>
    c2fc:	e304309c 	movw	r3, #16540	; 0x409c
    c300:	e3570080 	cmp	r7, #128	; 0x80
    c304:	e3403001 	movt	r3, #1
    c308:	e5932000 	ldr	r2, [r3]
    c30c:	e2822001 	add	r2, r2, #1
    c310:	e5832000 	str	r2, [r3]
    c314:	1affffd2 	bne	c264 <run_accept_test+0x90>
    c318:	e3023bd8 	movw	r3, #11224	; 0x2bd8
    c31c:	e3022fe4 	movw	r2, #12260	; 0x2fe4
    c320:	e3021be0 	movw	r1, #11232	; 0x2be0
    c324:	e3403001 	movt	r3, #1
    c328:	e3402001 	movt	r2, #1
    c32c:	e3401001 	movt	r1, #1
    c330:	e28d0048 	add	r0, sp, #72	; 0x48
    c334:	eb00165d 	bl	11cb0 <sprintf>
    c338:	e3a01ffa 	mov	r1, #1000	; 0x3e8
    c33c:	e28d0048 	add	r0, sp, #72	; 0x48
    c340:	ebffff85 	bl	c15c <sync_connect>
    c344:	e3500000 	cmp	r0, #0
    c348:	ba000000 	blt	c350 <run_accept_test+0x17c>
    c34c:	eb001195 	bl	109a8 <close>
    c350:	e3028bec 	movw	r8, #11244	; 0x2bec
    c354:	e3027fc0 	movw	r7, #12224	; 0x2fc0
    c358:	e30390ec 	movw	r9, #12524	; 0x30ec
    c35c:	e3408001 	movt	r8, #1
    c360:	e3407001 	movt	r7, #1
    c364:	e3409001 	movt	r9, #1
    c368:	e3a0607e 	mov	r6, #126	; 0x7e
    c36c:	ea00004e 	b	c4ac <run_accept_test+0x2d8>
    c370:	e59d2020 	ldr	r2, [sp, #32]
    c374:	e2833001 	add	r3, r3, #1
    c378:	e5843000 	str	r3, [r4]
    c37c:	e3520001 	cmp	r2, #1
    c380:	0a000010 	beq	c3c8 <run_accept_test+0x1f4>
    c384:	e3a00001 	mov	r0, #1
    c388:	e3021bf8 	movw	r1, #11256	; 0x2bf8
    c38c:	e58d2008 	str	r2, [sp, #8]
    c390:	e3401001 	movt	r1, #1
    c394:	e3003359 	movw	r3, #857	; 0x359
    c398:	e58d0004 	str	r0, [sp, #4]
    c39c:	e1a02007 	mov	r2, r7
    c3a0:	e58d8000 	str	r8, [sp]
    c3a4:	e59f0574 	ldr	r0, [pc, #1396]	; c920 <run_accept_test+0x74c>
    c3a8:	e3a05000 	mov	r5, #0
    c3ac:	eb001659 	bl	11d18 <fprintf>
    c3b0:	e304209c 	movw	r2, #16540	; 0x409c
    c3b4:	e5943000 	ldr	r3, [r4]
    c3b8:	e3402001 	movt	r2, #1
    c3bc:	e5921000 	ldr	r1, [r2]
    c3c0:	e2811001 	add	r1, r1, #1
    c3c4:	e5821000 	str	r1, [r2]
    c3c8:	e59d001c 	ldr	r0, [sp, #28]
    c3cc:	e2833001 	add	r3, r3, #1
    c3d0:	e59d2024 	ldr	r2, [sp, #36]	; 0x24
    c3d4:	e5843000 	str	r3, [r4]
    c3d8:	e2803064 	add	r3, r0, #100	; 0x64
    c3dc:	e1520003 	cmp	r2, r3
    c3e0:	0a00000f 	beq	c424 <run_accept_test+0x250>
    c3e4:	e3021c44 	movw	r1, #11332	; 0x2c44
    c3e8:	e58d2008 	str	r2, [sp, #8]
    c3ec:	e58d3004 	str	r3, [sp, #4]
    c3f0:	e1a02007 	mov	r2, r7
    c3f4:	e300335d 	movw	r3, #861	; 0x35d
    c3f8:	e3401001 	movt	r1, #1
    c3fc:	e58d8000 	str	r8, [sp]
    c400:	e3a05000 	mov	r5, #0
    c404:	e59f0514 	ldr	r0, [pc, #1300]	; c920 <run_accept_test+0x74c>
    c408:	eb001642 	bl	11d18 <fprintf>
    c40c:	e304309c 	movw	r3, #16540	; 0x409c
    c410:	e59d001c 	ldr	r0, [sp, #28]
    c414:	e3403001 	movt	r3, #1
    c418:	e5932000 	ldr	r2, [r3]
    c41c:	e2822001 	add	r2, r2, #1
    c420:	e5832000 	str	r2, [r3]
    c424:	e28d1028 	add	r1, sp, #40	; 0x28
    c428:	eb00115b 	bl	1099c <accept>
    c42c:	e594a000 	ldr	sl, [r4]
    c430:	e3700029 	cmn	r0, #41	; 0x29
    c434:	e28aa001 	add	sl, sl, #1
    c438:	e584a000 	str	sl, [r4]
    c43c:	0a000010 	beq	c484 <run_accept_test+0x2b0>
    c440:	e3e02028 	mvn	r2, #40	; 0x28
    c444:	e30310a4 	movw	r1, #12452	; 0x30a4
    c448:	e58d0008 	str	r0, [sp, #8]
    c44c:	e3003362 	movw	r3, #866	; 0x362
    c450:	e58d2004 	str	r2, [sp, #4]
    c454:	e3401001 	movt	r1, #1
    c458:	e1a02007 	mov	r2, r7
    c45c:	e58d8000 	str	r8, [sp]
    c460:	e59f04b8 	ldr	r0, [pc, #1208]	; c920 <run_accept_test+0x74c>
    c464:	e3a05000 	mov	r5, #0
    c468:	eb00162a 	bl	11d18 <fprintf>
    c46c:	e304309c 	movw	r3, #16540	; 0x409c
    c470:	e594a000 	ldr	sl, [r4]
    c474:	e3403001 	movt	r3, #1
    c478:	e5932000 	ldr	r2, [r3]
    c47c:	e2822001 	add	r2, r2, #1
    c480:	e5832000 	str	r2, [r3]
    c484:	e3a02010 	mov	r2, #16
    c488:	e28d1038 	add	r1, sp, #56	; 0x38
    c48c:	e28d0028 	add	r0, sp, #40	; 0x28
    c490:	e28aa001 	add	sl, sl, #1
    c494:	eb00162e 	bl	11d54 <memcmp>
    c498:	e3500000 	cmp	r0, #0
    c49c:	e584a000 	str	sl, [r4]
    c4a0:	1a000029 	bne	c54c <run_accept_test+0x378>
    c4a4:	e2566001 	subs	r6, r6, #1
    c4a8:	0a000038 	beq	c590 <run_accept_test+0x3bc>
    c4ac:	e3a01ffa 	mov	r1, #1000	; 0x3e8
    c4b0:	e28d001c 	add	r0, sp, #28
    c4b4:	eb001144 	bl	109cc <wait_any>
    c4b8:	e5943000 	ldr	r3, [r4]
    c4bc:	e3500000 	cmp	r0, #0
    c4c0:	e2833001 	add	r3, r3, #1
    c4c4:	e5843000 	str	r3, [r4]
    c4c8:	0affffa8 	beq	c370 <run_accept_test+0x19c>
    c4cc:	e3a05000 	mov	r5, #0
    c4d0:	e58d0008 	str	r0, [sp, #8]
    c4d4:	e3a03fd6 	mov	r3, #856	; 0x358
    c4d8:	e1a02007 	mov	r2, r7
    c4dc:	e1a01009 	mov	r1, r9
    c4e0:	e58d8000 	str	r8, [sp]
    c4e4:	e58d5004 	str	r5, [sp, #4]
    c4e8:	e59f0430 	ldr	r0, [pc, #1072]	; c920 <run_accept_test+0x74c>
    c4ec:	eb001609 	bl	11d18 <fprintf>
    c4f0:	e304209c 	movw	r2, #16540	; 0x409c
    c4f4:	e5943000 	ldr	r3, [r4]
    c4f8:	e3402001 	movt	r2, #1
    c4fc:	e5921000 	ldr	r1, [r2]
    c500:	e2811001 	add	r1, r1, #1
    c504:	e5821000 	str	r1, [r2]
    c508:	eaffff98 	b	c370 <run_accept_test+0x19c>
    c50c:	e3022fc0 	movw	r2, #12224	; 0x2fc0
    c510:	e3031010 	movw	r1, #12304	; 0x3010
    c514:	e3402001 	movt	r2, #1
    c518:	e3003347 	movw	r3, #839	; 0x347
    c51c:	e58d6004 	str	r6, [sp, #4]
    c520:	e3401001 	movt	r1, #1
    c524:	e58db000 	str	fp, [sp]
    c528:	e3a05000 	mov	r5, #0
    c52c:	e59f03ec 	ldr	r0, [pc, #1004]	; c920 <run_accept_test+0x74c>
    c530:	eb0015f8 	bl	11d18 <fprintf>
    c534:	e304309c 	movw	r3, #16540	; 0x409c
    c538:	e3403001 	movt	r3, #1
    c53c:	e5932000 	ldr	r2, [r3]
    c540:	e2822001 	add	r2, r2, #1
    c544:	e5832000 	str	r2, [r3]
    c548:	eaffff55 	b	c2a4 <run_accept_test+0xd0>
    c54c:	e3a05000 	mov	r5, #0
    c550:	e3021c84 	movw	r1, #11396	; 0x2c84
    c554:	e58d0008 	str	r0, [sp, #8]
    c558:	e3003366 	movw	r3, #870	; 0x366
    c55c:	e1a02007 	mov	r2, r7
    c560:	e3401001 	movt	r1, #1
    c564:	e58d8000 	str	r8, [sp]
    c568:	e58d5004 	str	r5, [sp, #4]
    c56c:	e59f03ac 	ldr	r0, [pc, #940]	; c920 <run_accept_test+0x74c>
    c570:	eb0015e8 	bl	11d18 <fprintf>
    c574:	e304309c 	movw	r3, #16540	; 0x409c
    c578:	e2566001 	subs	r6, r6, #1
    c57c:	e3403001 	movt	r3, #1
    c580:	e5932000 	ldr	r2, [r3]
    c584:	e2822001 	add	r2, r2, #1
    c588:	e5832000 	str	r2, [r3]
    c58c:	1affffc6 	bne	c4ac <run_accept_test+0x2d8>
    c590:	e59d0090 	ldr	r0, [sp, #144]	; 0x90
    c594:	eb001103 	bl	109a8 <close>
    c598:	e5940000 	ldr	r0, [r4]
    c59c:	e3023bd8 	movw	r3, #11224	; 0x2bd8
    c5a0:	e3022fe4 	movw	r2, #12260	; 0x2fe4
    c5a4:	e3021be0 	movw	r1, #11232	; 0x2be0
    c5a8:	e3e0c000 	mvn	ip, #0
    c5ac:	e3403001 	movt	r3, #1
    c5b0:	e2800001 	add	r0, r0, #1
    c5b4:	e3402001 	movt	r2, #1
    c5b8:	e3401001 	movt	r1, #1
    c5bc:	e5840000 	str	r0, [r4]
    c5c0:	e28d0048 	add	r0, sp, #72	; 0x48
    c5c4:	e58dc090 	str	ip, [sp, #144]	; 0x90
    c5c8:	eb0015b8 	bl	11cb0 <sprintf>
    c5cc:	e28d0048 	add	r0, sp, #72	; 0x48
    c5d0:	e3a01ffa 	mov	r1, #1000	; 0x3e8
    c5d4:	ebfffee0 	bl	c15c <sync_connect>
    c5d8:	e3500000 	cmp	r0, #0
    c5dc:	ba000000 	blt	c5e4 <run_accept_test+0x410>
    c5e0:	eb0010f0 	bl	109a8 <close>
    c5e4:	e3028bec 	movw	r8, #11244	; 0x2bec
    c5e8:	e3027fc0 	movw	r7, #12224	; 0x2fc0
    c5ec:	e30390ec 	movw	r9, #12524	; 0x30ec
    c5f0:	e3408001 	movt	r8, #1
    c5f4:	e3407001 	movt	r7, #1
    c5f8:	e3409001 	movt	r9, #1
    c5fc:	e3a0607d 	mov	r6, #125	; 0x7d
    c600:	ea000057 	b	c764 <run_accept_test+0x590>
    c604:	e59d2020 	ldr	r2, [sp, #32]
    c608:	e2833001 	add	r3, r3, #1
    c60c:	e5843000 	str	r3, [r4]
    c610:	e3520001 	cmp	r2, #1
    c614:	0a000010 	beq	c65c <run_accept_test+0x488>
    c618:	e3a00001 	mov	r0, #1
    c61c:	e3021bf8 	movw	r1, #11256	; 0x2bf8
    c620:	e58d2008 	str	r2, [sp, #8]
    c624:	e3401001 	movt	r1, #1
    c628:	e300337a 	movw	r3, #890	; 0x37a
    c62c:	e58d0004 	str	r0, [sp, #4]
    c630:	e1a02007 	mov	r2, r7
    c634:	e58d8000 	str	r8, [sp]
    c638:	e59f02e0 	ldr	r0, [pc, #736]	; c920 <run_accept_test+0x74c>
    c63c:	e3a05000 	mov	r5, #0
    c640:	eb0015b4 	bl	11d18 <fprintf>
    c644:	e304209c 	movw	r2, #16540	; 0x409c
    c648:	e5943000 	ldr	r3, [r4]
    c64c:	e3402001 	movt	r2, #1
    c650:	e5921000 	ldr	r1, [r2]
    c654:	e2811001 	add	r1, r1, #1
    c658:	e5821000 	str	r1, [r2]
    c65c:	e59d001c 	ldr	r0, [sp, #28]
    c660:	e2833001 	add	r3, r3, #1
    c664:	e59d2024 	ldr	r2, [sp, #36]	; 0x24
    c668:	e5843000 	str	r3, [r4]
    c66c:	e2803064 	add	r3, r0, #100	; 0x64
    c670:	e1520003 	cmp	r2, r3
    c674:	0a00000f 	beq	c6b8 <run_accept_test+0x4e4>
    c678:	e3021c44 	movw	r1, #11332	; 0x2c44
    c67c:	e58d2008 	str	r2, [sp, #8]
    c680:	e58d3004 	str	r3, [sp, #4]
    c684:	e1a02007 	mov	r2, r7
    c688:	e300337e 	movw	r3, #894	; 0x37e
    c68c:	e3401001 	movt	r1, #1
    c690:	e58d8000 	str	r8, [sp]
    c694:	e3a05000 	mov	r5, #0
    c698:	e59f0280 	ldr	r0, [pc, #640]	; c920 <run_accept_test+0x74c>
    c69c:	eb00159d 	bl	11d18 <fprintf>
    c6a0:	e304309c 	movw	r3, #16540	; 0x409c
    c6a4:	e59d001c 	ldr	r0, [sp, #28]
    c6a8:	e3403001 	movt	r3, #1
    c6ac:	e5932000 	ldr	r2, [r3]
    c6b0:	e2822001 	add	r2, r2, #1
    c6b4:	e5832000 	str	r2, [r3]
    c6b8:	e28d1028 	add	r1, sp, #40	; 0x28
    c6bc:	eb0010b6 	bl	1099c <accept>
    c6c0:	e594b000 	ldr	fp, [r4]
    c6c4:	e3500002 	cmp	r0, #2
    c6c8:	e1a0a000 	mov	sl, r0
    c6cc:	e28bb001 	add	fp, fp, #1
    c6d0:	e584b000 	str	fp, [r4]
    c6d4:	0a000010 	beq	c71c <run_accept_test+0x548>
    c6d8:	e3a02002 	mov	r2, #2
    c6dc:	e3021cb4 	movw	r1, #11444	; 0x2cb4
    c6e0:	e58d0008 	str	r0, [sp, #8]
    c6e4:	e3003381 	movw	r3, #897	; 0x381
    c6e8:	e58d2004 	str	r2, [sp, #4]
    c6ec:	e3401001 	movt	r1, #1
    c6f0:	e1a02007 	mov	r2, r7
    c6f4:	e58d8000 	str	r8, [sp]
    c6f8:	e59f0220 	ldr	r0, [pc, #544]	; c920 <run_accept_test+0x74c>
    c6fc:	e3a05000 	mov	r5, #0
    c700:	eb001584 	bl	11d18 <fprintf>
    c704:	e304309c 	movw	r3, #16540	; 0x409c
    c708:	e594b000 	ldr	fp, [r4]
    c70c:	e3403001 	movt	r3, #1
    c710:	e5932000 	ldr	r2, [r3]
    c714:	e2822001 	add	r2, r2, #1
    c718:	e5832000 	str	r2, [r3]
    c71c:	e3031488 	movw	r1, #13448	; 0x3488
    c720:	e3a02010 	mov	r2, #16
    c724:	e3401001 	movt	r1, #1
    c728:	e28d0028 	add	r0, sp, #40	; 0x28
    c72c:	eb001588 	bl	11d54 <memcmp>
    c730:	e3500000 	cmp	r0, #0
    c734:	e28bb001 	add	fp, fp, #1
    c738:	e584b000 	str	fp, [r4]
    c73c:	1a000067 	bne	c8e0 <run_accept_test+0x70c>
    c740:	e1a0000a 	mov	r0, sl
    c744:	eb001097 	bl	109a8 <close>
    c748:	e5943000 	ldr	r3, [r4]
    c74c:	e3500000 	cmp	r0, #0
    c750:	e2833001 	add	r3, r3, #1
    c754:	e5843000 	str	r3, [r4]
    c758:	1a000019 	bne	c7c4 <run_accept_test+0x5f0>
    c75c:	e2566001 	subs	r6, r6, #1
    c760:	0a000027 	beq	c804 <run_accept_test+0x630>
    c764:	e3001bb8 	movw	r1, #3000	; 0xbb8
    c768:	e28d001c 	add	r0, sp, #28
    c76c:	eb001096 	bl	109cc <wait_any>
    c770:	e5943000 	ldr	r3, [r4]
    c774:	e3500000 	cmp	r0, #0
    c778:	e2833001 	add	r3, r3, #1
    c77c:	e5843000 	str	r3, [r4]
    c780:	0affff9f 	beq	c604 <run_accept_test+0x430>
    c784:	e3a05000 	mov	r5, #0
    c788:	e58d0008 	str	r0, [sp, #8]
    c78c:	e3003379 	movw	r3, #889	; 0x379
    c790:	e1a02007 	mov	r2, r7
    c794:	e1a01009 	mov	r1, r9
    c798:	e58d8000 	str	r8, [sp]
    c79c:	e58d5004 	str	r5, [sp, #4]
    c7a0:	e59f0178 	ldr	r0, [pc, #376]	; c920 <run_accept_test+0x74c>
    c7a4:	eb00155b 	bl	11d18 <fprintf>
    c7a8:	e304209c 	movw	r2, #16540	; 0x409c
    c7ac:	e5943000 	ldr	r3, [r4]
    c7b0:	e3402001 	movt	r2, #1
    c7b4:	e5921000 	ldr	r1, [r2]
    c7b8:	e2811001 	add	r1, r1, #1
    c7bc:	e5821000 	str	r1, [r2]
    c7c0:	eaffff8f 	b	c604 <run_accept_test+0x430>
    c7c4:	e3a05000 	mov	r5, #0
    c7c8:	e58d0008 	str	r0, [sp, #8]
    c7cc:	e3a03fe2 	mov	r3, #904	; 0x388
    c7d0:	e1a02007 	mov	r2, r7
    c7d4:	e58d8000 	str	r8, [sp]
    c7d8:	e1a01009 	mov	r1, r9
    c7dc:	e58d5004 	str	r5, [sp, #4]
    c7e0:	e59f0138 	ldr	r0, [pc, #312]	; c920 <run_accept_test+0x74c>
    c7e4:	eb00154b 	bl	11d18 <fprintf>
    c7e8:	e304309c 	movw	r3, #16540	; 0x409c
    c7ec:	e2566001 	subs	r6, r6, #1
    c7f0:	e3403001 	movt	r3, #1
    c7f4:	e5932000 	ldr	r2, [r3]
    c7f8:	e2822001 	add	r2, r2, #1
    c7fc:	e5832000 	str	r2, [r3]
    c800:	1affffd7 	bne	c764 <run_accept_test+0x590>
    c804:	e302ace4 	movw	sl, #11492	; 0x2ce4
    c808:	e3029fc0 	movw	r9, #12224	; 0x2fc0
    c80c:	e30380ec 	movw	r8, #12524	; 0x30ec
    c810:	e340a001 	movt	sl, #1
    c814:	e3409001 	movt	r9, #1
    c818:	e3408001 	movt	r8, #1
    c81c:	e28d6090 	add	r6, sp, #144	; 0x90
    c820:	e28d7fa1 	add	r7, sp, #644	; 0x284
    c824:	ea000003 	b	c838 <run_accept_test+0x664>
    c828:	e1560007 	cmp	r6, r7
    c82c:	e3e03000 	mvn	r3, #0
    c830:	e5863000 	str	r3, [r6]
    c834:	0a000018 	beq	c89c <run_accept_test+0x6c8>
    c838:	e5b60004 	ldr	r0, [r6, #4]!
    c83c:	eb001059 	bl	109a8 <close>
    c840:	e5943000 	ldr	r3, [r4]
    c844:	e3500000 	cmp	r0, #0
    c848:	e2833001 	add	r3, r3, #1
    c84c:	e5843000 	str	r3, [r4]
    c850:	0afffff4 	beq	c828 <run_accept_test+0x654>
    c854:	e3a05000 	mov	r5, #0
    c858:	e58d0008 	str	r0, [sp, #8]
    c85c:	e300338f 	movw	r3, #911	; 0x38f
    c860:	e1a02009 	mov	r2, r9
    c864:	e58da000 	str	sl, [sp]
    c868:	e1a01008 	mov	r1, r8
    c86c:	e58d5004 	str	r5, [sp, #4]
    c870:	e59f00a8 	ldr	r0, [pc, #168]	; c920 <run_accept_test+0x74c>
    c874:	eb001527 	bl	11d18 <fprintf>
    c878:	e304309c 	movw	r3, #16540	; 0x409c
    c87c:	e1560007 	cmp	r6, r7
    c880:	e3403001 	movt	r3, #1
    c884:	e5932000 	ldr	r2, [r3]
    c888:	e2822001 	add	r2, r2, #1
    c88c:	e5832000 	str	r2, [r3]
    c890:	e3e03000 	mvn	r3, #0
    c894:	e5863000 	str	r3, [r6]
    c898:	1affffe6 	bne	c838 <run_accept_test+0x664>
    c89c:	e3550000 	cmp	r5, #0
    c8a0:	e3022fc0 	movw	r2, #12224	; 0x2fc0
    c8a4:	159d3014 	ldrne	r3, [sp, #20]
    c8a8:	13031180 	movwne	r1, #12672	; 0x3180
    c8ac:	059d3014 	ldreq	r3, [sp, #20]
    c8b0:	03031194 	movweq	r1, #12692	; 0x3194
    c8b4:	13402001 	movtne	r2, #1
    c8b8:	13401001 	movtne	r1, #1
    c8bc:	158d3000 	strne	r3, [sp]
    c8c0:	03402001 	movteq	r2, #1
    c8c4:	058d3000 	streq	r3, [sp]
    c8c8:	03401001 	movteq	r1, #1
    c8cc:	e3003393 	movw	r3, #915	; 0x393
    c8d0:	e59f0048 	ldr	r0, [pc, #72]	; c920 <run_accept_test+0x74c>
    c8d4:	eb00150f 	bl	11d18 <fprintf>
    c8d8:	e28ddfa3 	add	sp, sp, #652	; 0x28c
    c8dc:	e8bd8ff0 	pop	{r4, r5, r6, r7, r8, r9, sl, fp, pc}
    c8e0:	e3a05000 	mov	r5, #0
    c8e4:	e3021c84 	movw	r1, #11396	; 0x2c84
    c8e8:	e58d0008 	str	r0, [sp, #8]
    c8ec:	e3003385 	movw	r3, #901	; 0x385
    c8f0:	e1a02007 	mov	r2, r7
    c8f4:	e3401001 	movt	r1, #1
    c8f8:	e58d8000 	str	r8, [sp]
    c8fc:	e58d5004 	str	r5, [sp, #4]
    c900:	e59f0018 	ldr	r0, [pc, #24]	; c920 <run_accept_test+0x74c>
    c904:	eb001503 	bl	11d18 <fprintf>
    c908:	e304309c 	movw	r3, #16540	; 0x409c
    c90c:	e3403001 	movt	r3, #1
    c910:	e5932000 	ldr	r2, [r3]
    c914:	e2822001 	add	r2, r2, #1
    c918:	e5832000 	str	r2, [r3]
    c91c:	eaffff87 	b	c740 <run_accept_test+0x56c>
    c920:	00014048 	.word	0x00014048

0000c924 <run_end_to_end_msg_test>:
    c924:	e30235a8 	movw	r3, #9640	; 0x25a8
    c928:	e92d4ff0 	push	{r4, r5, r6, r7, r8, r9, sl, fp, lr}
    c92c:	e3403001 	movt	r3, #1
    c930:	e24ddf4d 	sub	sp, sp, #308	; 0x134
    c934:	e3022fc0 	movw	r2, #12224	; 0x2fc0
    c938:	e3021fd4 	movw	r1, #12244	; 0x2fd4
    c93c:	e58d3020 	str	r3, [sp, #32]
    c940:	e3402001 	movt	r2, #1
    c944:	e58d3000 	str	r3, [sp]
    c948:	e3401001 	movt	r1, #1
    c94c:	e3003539 	movw	r3, #1337	; 0x539
    c950:	e59f0858 	ldr	r0, [pc, #2136]	; d1b0 <run_end_to_end_msg_test+0x88c>
    c954:	eb0014ef 	bl	11d18 <fprintf>
    c958:	e3a04040 	mov	r4, #64	; 0x40
    c95c:	e28d10b0 	add	r1, sp, #176	; 0xb0
    c960:	e3a03000 	mov	r3, #0
    c964:	e28de034 	add	lr, sp, #52	; 0x34
    c968:	e28dc03c 	add	ip, sp, #60	; 0x3c
    c96c:	e1a02004 	mov	r2, r4
    c970:	e3a06001 	mov	r6, #1
    c974:	e28d50f0 	add	r5, sp, #240	; 0xf0
    c978:	e1a00001 	mov	r0, r1
    c97c:	e58d1034 	str	r1, [sp, #52]	; 0x34
    c980:	e3a01055 	mov	r1, #85	; 0x55
    c984:	e58de054 	str	lr, [sp, #84]	; 0x54
    c988:	e58dc064 	str	ip, [sp, #100]	; 0x64
    c98c:	e58d3058 	str	r3, [sp, #88]	; 0x58
    c990:	e58d305c 	str	r3, [sp, #92]	; 0x5c
    c994:	e58d3068 	str	r3, [sp, #104]	; 0x68
    c998:	e58d306c 	str	r3, [sp, #108]	; 0x6c
    c99c:	e58d4038 	str	r4, [sp, #56]	; 0x38
    c9a0:	e58d4040 	str	r4, [sp, #64]	; 0x40
    c9a4:	e58d503c 	str	r5, [sp, #60]	; 0x3c
    c9a8:	e58d6050 	str	r6, [sp, #80]	; 0x50
    c9ac:	e58d6060 	str	r6, [sp, #96]	; 0x60
    c9b0:	eb001500 	bl	11db8 <memset>
    c9b4:	e1a02004 	mov	r2, r4
    c9b8:	e1a00005 	mov	r0, r5
    c9bc:	e3a010aa 	mov	r1, #170	; 0xaa
    c9c0:	e30440a0 	movw	r4, #16544	; 0x40a0
    c9c4:	eb0014fb 	bl	11db8 <memset>
    c9c8:	e3023e24 	movw	r3, #11812	; 0x2e24
    c9cc:	e3022fe4 	movw	r2, #12260	; 0x2fe4
    c9d0:	e3021be0 	movw	r1, #11232	; 0x2be0
    c9d4:	e3403001 	movt	r3, #1
    c9d8:	e3402001 	movt	r2, #1
    c9dc:	e3401001 	movt	r1, #1
    c9e0:	e28d0070 	add	r0, sp, #112	; 0x70
    c9e4:	e3404001 	movt	r4, #1
    c9e8:	eb0014b0 	bl	11cb0 <sprintf>
    c9ec:	e28d0070 	add	r0, sp, #112	; 0x70
    c9f0:	e3a01ffa 	mov	r1, #1000	; 0x3e8
    c9f4:	ebfffdd8 	bl	c15c <sync_connect>
    c9f8:	e5943000 	ldr	r3, [r4]
    c9fc:	e2505000 	subs	r5, r0, #0
    ca00:	e0833006 	add	r3, r3, r6
    ca04:	e5843000 	str	r3, [r4]
    ca08:	ba0001d4 	blt	d160 <run_end_to_end_msg_test+0x83c>
    ca0c:	e302be6c 	movw	fp, #11884	; 0x2e6c
    ca10:	e3029fc0 	movw	r9, #12224	; 0x2fc0
    ca14:	e302ae3c 	movw	sl, #11836	; 0x2e3c
    ca18:	e340b001 	movt	fp, #1
    ca1c:	e3409001 	movt	r9, #1
    ca20:	e340a001 	movt	sl, #1
    ca24:	e3028710 	movw	r8, #10000	; 0x2710
    ca28:	ea000042 	b	cb38 <run_end_to_end_msg_test+0x214>
    ca2c:	e59d2044 	ldr	r2, [sp, #68]	; 0x44
    ca30:	e2833001 	add	r3, r3, #1
    ca34:	e5843000 	str	r3, [r4]
    ca38:	e1550002 	cmp	r5, r2
    ca3c:	0a000010 	beq	ca84 <run_end_to_end_msg_test+0x160>
    ca40:	e3020ed8 	movw	r0, #11992	; 0x2ed8
    ca44:	e3021e9c 	movw	r1, #11932	; 0x2e9c
    ca48:	e3400001 	movt	r0, #1
    ca4c:	e304709c 	movw	r7, #16540	; 0x409c
    ca50:	e58d2008 	str	r2, [sp, #8]
    ca54:	e3003562 	movw	r3, #1378	; 0x562
    ca58:	e58d0000 	str	r0, [sp]
    ca5c:	e3407001 	movt	r7, #1
    ca60:	e3401001 	movt	r1, #1
    ca64:	e58d5004 	str	r5, [sp, #4]
    ca68:	e1a02009 	mov	r2, r9
    ca6c:	e59f073c 	ldr	r0, [pc, #1852]	; d1b0 <run_end_to_end_msg_test+0x88c>
    ca70:	eb0014a8 	bl	11d18 <fprintf>
    ca74:	e5973000 	ldr	r3, [r7]
    ca78:	e3a06000 	mov	r6, #0
    ca7c:	e2833001 	add	r3, r3, #1
    ca80:	e5873000 	str	r3, [r7]
    ca84:	e28d102c 	add	r1, sp, #44	; 0x2c
    ca88:	e1a00005 	mov	r0, r5
    ca8c:	eb000fd1 	bl	109d8 <get_msg>
    ca90:	e5943000 	ldr	r3, [r4]
    ca94:	e3500000 	cmp	r0, #0
    ca98:	e2833001 	add	r3, r3, #1
    ca9c:	e5843000 	str	r3, [r4]
    caa0:	1a0000ba 	bne	cd90 <run_end_to_end_msg_test+0x46c>
    caa4:	e28d3060 	add	r3, sp, #96	; 0x60
    caa8:	e3a02000 	mov	r2, #0
    caac:	e59d1030 	ldr	r1, [sp, #48]	; 0x30
    cab0:	e1a00005 	mov	r0, r5
    cab4:	eb000fca 	bl	109e4 <read_msg>
    cab8:	e5943000 	ldr	r3, [r4]
    cabc:	e3500040 	cmp	r0, #64	; 0x40
    cac0:	e2833001 	add	r3, r3, #1
    cac4:	e5843000 	str	r3, [r4]
    cac8:	0a000010 	beq	cb10 <run_end_to_end_msg_test+0x1ec>
    cacc:	e3022efc 	movw	r2, #12028	; 0x2efc
    cad0:	e3a01040 	mov	r1, #64	; 0x40
    cad4:	e3402001 	movt	r2, #1
    cad8:	e304709c 	movw	r7, #16540	; 0x409c
    cadc:	e58d0008 	str	r0, [sp, #8]
    cae0:	e300356a 	movw	r3, #1386	; 0x56a
    cae4:	e58d2000 	str	r2, [sp]
    cae8:	e3407001 	movt	r7, #1
    caec:	e58d1004 	str	r1, [sp, #4]
    caf0:	e1a02009 	mov	r2, r9
    caf4:	e1a0100a 	mov	r1, sl
    caf8:	e59f06b0 	ldr	r0, [pc, #1712]	; d1b0 <run_end_to_end_msg_test+0x88c>
    cafc:	eb001485 	bl	11d18 <fprintf>
    cb00:	e5973000 	ldr	r3, [r7]
    cb04:	e3a06000 	mov	r6, #0
    cb08:	e2833001 	add	r3, r3, #1
    cb0c:	e5873000 	str	r3, [r7]
    cb10:	e59d1030 	ldr	r1, [sp, #48]	; 0x30
    cb14:	e1a00005 	mov	r0, r5
    cb18:	eb000fb4 	bl	109f0 <put_msg>
    cb1c:	e5943000 	ldr	r3, [r4]
    cb20:	e3500000 	cmp	r0, #0
    cb24:	e2833001 	add	r3, r3, #1
    cb28:	e5843000 	str	r3, [r4]
    cb2c:	1a000034 	bne	cc04 <run_end_to_end_msg_test+0x2e0>
    cb30:	e2588001 	subs	r8, r8, #1
    cb34:	0a000045 	beq	cc50 <run_end_to_end_msg_test+0x32c>
    cb38:	e28d1050 	add	r1, sp, #80	; 0x50
    cb3c:	e1a00005 	mov	r0, r5
    cb40:	eb000fad 	bl	109fc <send_msg>
    cb44:	e5943000 	ldr	r3, [r4]
    cb48:	e3500040 	cmp	r0, #64	; 0x40
    cb4c:	e2833001 	add	r3, r3, #1
    cb50:	e5843000 	str	r3, [r4]
    cb54:	0a00000e 	beq	cb94 <run_end_to_end_msg_test+0x270>
    cb58:	e3a01040 	mov	r1, #64	; 0x40
    cb5c:	e304709c 	movw	r7, #16540	; 0x409c
    cb60:	e58d0008 	str	r0, [sp, #8]
    cb64:	e300355d 	movw	r3, #1373	; 0x55d
    cb68:	e58d1004 	str	r1, [sp, #4]
    cb6c:	e3407001 	movt	r7, #1
    cb70:	e58db000 	str	fp, [sp]
    cb74:	e1a02009 	mov	r2, r9
    cb78:	e1a0100a 	mov	r1, sl
    cb7c:	e59f062c 	ldr	r0, [pc, #1580]	; d1b0 <run_end_to_end_msg_test+0x88c>
    cb80:	eb001464 	bl	11d18 <fprintf>
    cb84:	e5973000 	ldr	r3, [r7]
    cb88:	e3a06000 	mov	r6, #0
    cb8c:	e2833001 	add	r3, r3, #1
    cb90:	e5873000 	str	r3, [r7]
    cb94:	e3a02ffa 	mov	r2, #1000	; 0x3e8
    cb98:	e28d1044 	add	r1, sp, #68	; 0x44
    cb9c:	e1a00005 	mov	r0, r5
    cba0:	eb000f86 	bl	109c0 <wait>
    cba4:	e5943000 	ldr	r3, [r4]
    cba8:	e3500000 	cmp	r0, #0
    cbac:	e2833001 	add	r3, r3, #1
    cbb0:	e5843000 	str	r3, [r4]
    cbb4:	0affff9c 	beq	ca2c <run_end_to_end_msg_test+0x108>
    cbb8:	e3023e80 	movw	r3, #11904	; 0x2e80
    cbbc:	e3a06000 	mov	r6, #0
    cbc0:	e3403001 	movt	r3, #1
    cbc4:	e30310ec 	movw	r1, #12524	; 0x30ec
    cbc8:	e304709c 	movw	r7, #16540	; 0x409c
    cbcc:	e58d0008 	str	r0, [sp, #8]
    cbd0:	e58d3000 	str	r3, [sp]
    cbd4:	e1a02009 	mov	r2, r9
    cbd8:	e3003561 	movw	r3, #1377	; 0x561
    cbdc:	e3407001 	movt	r7, #1
    cbe0:	e3401001 	movt	r1, #1
    cbe4:	e58d6004 	str	r6, [sp, #4]
    cbe8:	e59f05c0 	ldr	r0, [pc, #1472]	; d1b0 <run_end_to_end_msg_test+0x88c>
    cbec:	eb001449 	bl	11d18 <fprintf>
    cbf0:	e5972000 	ldr	r2, [r7]
    cbf4:	e5943000 	ldr	r3, [r4]
    cbf8:	e2822001 	add	r2, r2, #1
    cbfc:	e5872000 	str	r2, [r7]
    cc00:	eaffff89 	b	ca2c <run_end_to_end_msg_test+0x108>
    cc04:	e3023f10 	movw	r3, #12048	; 0x2f10
    cc08:	e3a06000 	mov	r6, #0
    cc0c:	e3403001 	movt	r3, #1
    cc10:	e30310ec 	movw	r1, #12524	; 0x30ec
    cc14:	e304709c 	movw	r7, #16540	; 0x409c
    cc18:	e58d0008 	str	r0, [sp, #8]
    cc1c:	e58d3000 	str	r3, [sp]
    cc20:	e3407001 	movt	r7, #1
    cc24:	e300356e 	movw	r3, #1390	; 0x56e
    cc28:	e3401001 	movt	r1, #1
    cc2c:	e58d6004 	str	r6, [sp, #4]
    cc30:	e1a02009 	mov	r2, r9
    cc34:	e59f0574 	ldr	r0, [pc, #1396]	; d1b0 <run_end_to_end_msg_test+0x88c>
    cc38:	eb001436 	bl	11d18 <fprintf>
    cc3c:	e5973000 	ldr	r3, [r7]
    cc40:	e2588001 	subs	r8, r8, #1
    cc44:	e2833001 	add	r3, r3, #1
    cc48:	e5873000 	str	r3, [r7]
    cc4c:	1affffb9 	bne	cb38 <run_end_to_end_msg_test+0x214>
    cc50:	e3029710 	movw	r9, #10000	; 0x2710
    cc54:	e3023f24 	movw	r3, #12068	; 0x2f24
    cc58:	e3022ee8 	movw	r2, #12008	; 0x2ee8
    cc5c:	e1a0b009 	mov	fp, r9
    cc60:	e3403001 	movt	r3, #1
    cc64:	e3402001 	movt	r2, #1
    cc68:	e58d3024 	str	r3, [sp, #36]	; 0x24
    cc6c:	e58d2018 	str	r2, [sp, #24]
    cc70:	e35b0000 	cmp	fp, #0
    cc74:	0a000059 	beq	cde0 <run_end_to_end_msg_test+0x4bc>
    cc78:	e28d1050 	add	r1, sp, #80	; 0x50
    cc7c:	e1a00005 	mov	r0, r5
    cc80:	eb000f5d 	bl	109fc <send_msg>
    cc84:	e3700009 	cmn	r0, #9
    cc88:	0a000055 	beq	cde4 <run_end_to_end_msg_test+0x4c0>
    cc8c:	e5943000 	ldr	r3, [r4]
    cc90:	e3500040 	cmp	r0, #64	; 0x40
    cc94:	e2833001 	add	r3, r3, #1
    cc98:	e5843000 	str	r3, [r4]
    cc9c:	0a00004d 	beq	cdd8 <run_end_to_end_msg_test+0x4b4>
    cca0:	e3023e6c 	movw	r3, #11884	; 0x2e6c
    cca4:	e3a0c040 	mov	ip, #64	; 0x40
    cca8:	e3403001 	movt	r3, #1
    ccac:	e3022fc0 	movw	r2, #12224	; 0x2fc0
    ccb0:	e3021e3c 	movw	r1, #11836	; 0x2e3c
    ccb4:	e304609c 	movw	r6, #16540	; 0x409c
    ccb8:	e58d0008 	str	r0, [sp, #8]
    ccbc:	e3402001 	movt	r2, #1
    ccc0:	e58d3000 	str	r3, [sp]
    ccc4:	e3406001 	movt	r6, #1
    ccc8:	e300357c 	movw	r3, #1404	; 0x57c
    cccc:	e3401001 	movt	r1, #1
    ccd0:	e58dc004 	str	ip, [sp, #4]
    ccd4:	e59f04d4 	ldr	r0, [pc, #1236]	; d1b0 <run_end_to_end_msg_test+0x88c>
    ccd8:	eb00140e 	bl	11d18 <fprintf>
    ccdc:	e5962000 	ldr	r2, [r6]
    cce0:	e5943000 	ldr	r3, [r4]
    cce4:	e2822001 	add	r2, r2, #1
    cce8:	e2833001 	add	r3, r3, #1
    ccec:	e5862000 	str	r2, [r6]
    ccf0:	e5843000 	str	r3, [r4]
    ccf4:	e3023f6c 	movw	r3, #12140	; 0x2f6c
    ccf8:	e3a00000 	mov	r0, #0
    ccfc:	e3403001 	movt	r3, #1
    cd00:	e3022fc0 	movw	r2, #12224	; 0x2fc0
    cd04:	e3021f38 	movw	r1, #12088	; 0x2f38
    cd08:	e58d3000 	str	r3, [sp]
    cd0c:	e3402001 	movt	r2, #1
    cd10:	e58d0004 	str	r0, [sp, #4]
    cd14:	e3a03e5a 	mov	r3, #1440	; 0x5a0
    cd18:	e58db008 	str	fp, [sp, #8]
    cd1c:	e3401001 	movt	r1, #1
    cd20:	e59f0488 	ldr	r0, [pc, #1160]	; d1b0 <run_end_to_end_msg_test+0x88c>
    cd24:	eb0013fb 	bl	11d18 <fprintf>
    cd28:	e5962000 	ldr	r2, [r6]
    cd2c:	e5943000 	ldr	r3, [r4]
    cd30:	e2822001 	add	r2, r2, #1
    cd34:	e5862000 	str	r2, [r6]
    cd38:	e3590000 	cmp	r9, #0
    cd3c:	e2833001 	add	r3, r3, #1
    cd40:	e5843000 	str	r3, [r4]
    cd44:	1a0000c8 	bne	d06c <run_end_to_end_msg_test+0x748>
    cd48:	e1a00005 	mov	r0, r5
    cd4c:	eb000f15 	bl	109a8 <close>
    cd50:	e5943000 	ldr	r3, [r4]
    cd54:	e3500000 	cmp	r0, #0
    cd58:	e2833001 	add	r3, r3, #1
    cd5c:	e5843000 	str	r3, [r4]
    cd60:	1a00010f 	bne	d1a4 <run_end_to_end_msg_test+0x880>
    cd64:	e59d3020 	ldr	r3, [sp, #32]
    cd68:	e3022fc0 	movw	r2, #12224	; 0x2fc0
    cd6c:	e3031194 	movw	r1, #12692	; 0x3194
    cd70:	e3402001 	movt	r2, #1
    cd74:	e3401001 	movt	r1, #1
    cd78:	e59f0430 	ldr	r0, [pc, #1072]	; d1b0 <run_end_to_end_msg_test+0x88c>
    cd7c:	e58d3000 	str	r3, [sp]
    cd80:	e30035a7 	movw	r3, #1447	; 0x5a7
    cd84:	eb0013e3 	bl	11d18 <fprintf>
    cd88:	e28ddf4d 	add	sp, sp, #308	; 0x134
    cd8c:	e8bd8ff0 	pop	{r4, r5, r6, r7, r8, r9, sl, fp, pc}
    cd90:	e3023ee8 	movw	r3, #12008	; 0x2ee8
    cd94:	e3a06000 	mov	r6, #0
    cd98:	e3403001 	movt	r3, #1
    cd9c:	e30310ec 	movw	r1, #12524	; 0x30ec
    cda0:	e304709c 	movw	r7, #16540	; 0x409c
    cda4:	e58d0008 	str	r0, [sp, #8]
    cda8:	e58d3000 	str	r3, [sp]
    cdac:	e3407001 	movt	r7, #1
    cdb0:	e3003566 	movw	r3, #1382	; 0x566
    cdb4:	e3401001 	movt	r1, #1
    cdb8:	e58d6004 	str	r6, [sp, #4]
    cdbc:	e1a02009 	mov	r2, r9
    cdc0:	e59f03e8 	ldr	r0, [pc, #1000]	; d1b0 <run_end_to_end_msg_test+0x88c>
    cdc4:	eb0013d3 	bl	11d18 <fprintf>
    cdc8:	e5973000 	ldr	r3, [r7]
    cdcc:	e2833001 	add	r3, r3, #1
    cdd0:	e5873000 	str	r3, [r7]
    cdd4:	eaffff32 	b	caa4 <run_end_to_end_msg_test+0x180>
    cdd8:	e25bb001 	subs	fp, fp, #1
    cddc:	1affffa5 	bne	cc78 <run_end_to_end_msg_test+0x354>
    cde0:	e3a0b000 	mov	fp, #0
    cde4:	e3a02ffa 	mov	r2, #1000	; 0x3e8
    cde8:	e28d1044 	add	r1, sp, #68	; 0x44
    cdec:	e1a00005 	mov	r0, r5
    cdf0:	eb000ef2 	bl	109c0 <wait>
    cdf4:	e5943000 	ldr	r3, [r4]
    cdf8:	e3500000 	cmp	r0, #0
    cdfc:	e2833001 	add	r3, r3, #1
    ce00:	e5843000 	str	r3, [r4]
    ce04:	1a0000c2 	bne	d114 <run_end_to_end_msg_test+0x7f0>
    ce08:	e59d0044 	ldr	r0, [sp, #68]	; 0x44
    ce0c:	e2833001 	add	r3, r3, #1
    ce10:	e5843000 	str	r3, [r4]
    ce14:	e1550000 	cmp	r5, r0
    ce18:	0a000014 	beq	ce70 <run_end_to_end_msg_test+0x54c>
    ce1c:	e3023ed8 	movw	r3, #11992	; 0x2ed8
    ce20:	e3022fc0 	movw	r2, #12224	; 0x2fc0
    ce24:	e3403001 	movt	r3, #1
    ce28:	e3021e9c 	movw	r1, #11932	; 0x2e9c
    ce2c:	e304709c 	movw	r7, #16540	; 0x409c
    ce30:	e58d0008 	str	r0, [sp, #8]
    ce34:	e58d3000 	str	r3, [sp]
    ce38:	e3407001 	movt	r7, #1
    ce3c:	e3003585 	movw	r3, #1413	; 0x585
    ce40:	e58d5004 	str	r5, [sp, #4]
    ce44:	e3402001 	movt	r2, #1
    ce48:	e3401001 	movt	r1, #1
    ce4c:	e59f035c 	ldr	r0, [pc, #860]	; d1b0 <run_end_to_end_msg_test+0x88c>
    ce50:	eb0013b0 	bl	11d18 <fprintf>
    ce54:	e5973000 	ldr	r3, [r7]
    ce58:	e3590000 	cmp	r9, #0
    ce5c:	e2833001 	add	r3, r3, #1
    ce60:	e5873000 	str	r3, [r7]
    ce64:	0a000078 	beq	d04c <run_end_to_end_msg_test+0x728>
    ce68:	e3a06000 	mov	r6, #0
    ce6c:	ea000001 	b	ce78 <run_end_to_end_msg_test+0x554>
    ce70:	e3590000 	cmp	r9, #0
    ce74:	0a000038 	beq	cf5c <run_end_to_end_msg_test+0x638>
    ce78:	e302afc0 	movw	sl, #12224	; 0x2fc0
    ce7c:	e30330ec 	movw	r3, #12524	; 0x30ec
    ce80:	e340a001 	movt	sl, #1
    ce84:	e3403001 	movt	r3, #1
    ce88:	e58d3014 	str	r3, [sp, #20]
    ce8c:	e58db01c 	str	fp, [sp, #28]
    ce90:	e28d102c 	add	r1, sp, #44	; 0x2c
    ce94:	e1a00005 	mov	r0, r5
    ce98:	eb000ece 	bl	109d8 <get_msg>
    ce9c:	e3700004 	cmn	r0, #4
    cea0:	0a00002c 	beq	cf58 <run_end_to_end_msg_test+0x634>
    cea4:	e5943000 	ldr	r3, [r4]
    cea8:	e3500000 	cmp	r0, #0
    ceac:	e2499001 	sub	r9, r9, #1
    ceb0:	e2833001 	add	r3, r3, #1
    ceb4:	e5843000 	str	r3, [r4]
    ceb8:	1a000040 	bne	cfc0 <run_end_to_end_msg_test+0x69c>
    cebc:	e28d3060 	add	r3, sp, #96	; 0x60
    cec0:	e3a02000 	mov	r2, #0
    cec4:	e59d1030 	ldr	r1, [sp, #48]	; 0x30
    cec8:	e1a00005 	mov	r0, r5
    cecc:	eb000ec4 	bl	109e4 <read_msg>
    ced0:	e594c000 	ldr	ip, [r4]
    ced4:	e1a08000 	mov	r8, r0
    ced8:	e3a0b040 	mov	fp, #64	; 0x40
    cedc:	e304709c 	movw	r7, #16540	; 0x409c
    cee0:	e158000b 	cmp	r8, fp
    cee4:	e302eefc 	movw	lr, #12028	; 0x2efc
    cee8:	e3021e3c 	movw	r1, #11836	; 0x2e3c
    ceec:	e28cc001 	add	ip, ip, #1
    cef0:	e3407001 	movt	r7, #1
    cef4:	e59f02b4 	ldr	r0, [pc, #692]	; d1b0 <run_end_to_end_msg_test+0x88c>
    cef8:	e340e001 	movt	lr, #1
    cefc:	e3003592 	movw	r3, #1426	; 0x592
    cf00:	e1a0200a 	mov	r2, sl
    cf04:	e3401001 	movt	r1, #1
    cf08:	e584c000 	str	ip, [r4]
    cf0c:	0a000007 	beq	cf30 <run_end_to_end_msg_test+0x60c>
    cf10:	e58d8008 	str	r8, [sp, #8]
    cf14:	e3a06000 	mov	r6, #0
    cf18:	e58db004 	str	fp, [sp, #4]
    cf1c:	e58de000 	str	lr, [sp]
    cf20:	eb00137c 	bl	11d18 <fprintf>
    cf24:	e5973000 	ldr	r3, [r7]
    cf28:	e2833001 	add	r3, r3, #1
    cf2c:	e5873000 	str	r3, [r7]
    cf30:	e59d1030 	ldr	r1, [sp, #48]	; 0x30
    cf34:	e1a00005 	mov	r0, r5
    cf38:	eb000eac 	bl	109f0 <put_msg>
    cf3c:	e5943000 	ldr	r3, [r4]
    cf40:	e3500000 	cmp	r0, #0
    cf44:	e2833001 	add	r3, r3, #1
    cf48:	e5843000 	str	r3, [r4]
    cf4c:	1a00002b 	bne	d000 <run_end_to_end_msg_test+0x6dc>
    cf50:	e3590000 	cmp	r9, #0
    cf54:	1affffcd 	bne	ce90 <run_end_to_end_msg_test+0x56c>
    cf58:	e59db01c 	ldr	fp, [sp, #28]
    cf5c:	e3560000 	cmp	r6, #0
    cf60:	0a000039 	beq	d04c <run_end_to_end_msg_test+0x728>
    cf64:	e19b3009 	orrs	r3, fp, r9
    cf68:	1affff40 	bne	cc70 <run_end_to_end_msg_test+0x34c>
    cf6c:	e5943000 	ldr	r3, [r4]
    cf70:	e1a00005 	mov	r0, r5
    cf74:	e2833002 	add	r3, r3, #2
    cf78:	e5843000 	str	r3, [r4]
    cf7c:	eb000e89 	bl	109a8 <close>
    cf80:	e5943000 	ldr	r3, [r4]
    cf84:	e3500000 	cmp	r0, #0
    cf88:	e2833001 	add	r3, r3, #1
    cf8c:	e5843000 	str	r3, [r4]
    cf90:	1a000083 	bne	d1a4 <run_end_to_end_msg_test+0x880>
    cf94:	e59d3020 	ldr	r3, [sp, #32]
    cf98:	e3022fc0 	movw	r2, #12224	; 0x2fc0
    cf9c:	e3031180 	movw	r1, #12672	; 0x3180
    cfa0:	e3402001 	movt	r2, #1
    cfa4:	e3401001 	movt	r1, #1
    cfa8:	e59f0200 	ldr	r0, [pc, #512]	; d1b0 <run_end_to_end_msg_test+0x88c>
    cfac:	e58d3000 	str	r3, [sp]
    cfb0:	e30035a7 	movw	r3, #1447	; 0x5a7
    cfb4:	eb001357 	bl	11d18 <fprintf>
    cfb8:	e28ddf4d 	add	sp, sp, #308	; 0x134
    cfbc:	e8bd8ff0 	pop	{r4, r5, r6, r7, r8, r9, sl, fp, pc}
    cfc0:	e59d2018 	ldr	r2, [sp, #24]
    cfc4:	e3a06000 	mov	r6, #0
    cfc8:	e304709c 	movw	r7, #16540	; 0x409c
    cfcc:	e58d0008 	str	r0, [sp, #8]
    cfd0:	e300358e 	movw	r3, #1422	; 0x58e
    cfd4:	e3407001 	movt	r7, #1
    cfd8:	e58d2000 	str	r2, [sp]
    cfdc:	e1a0200a 	mov	r2, sl
    cfe0:	e58d6004 	str	r6, [sp, #4]
    cfe4:	e59d1014 	ldr	r1, [sp, #20]
    cfe8:	e59f01c0 	ldr	r0, [pc, #448]	; d1b0 <run_end_to_end_msg_test+0x88c>
    cfec:	eb001349 	bl	11d18 <fprintf>
    cff0:	e5973000 	ldr	r3, [r7]
    cff4:	e2833001 	add	r3, r3, #1
    cff8:	e5873000 	str	r3, [r7]
    cffc:	eaffffae 	b	cebc <run_end_to_end_msg_test+0x598>
    d000:	e3022f10 	movw	r2, #12048	; 0x2f10
    d004:	e3a06000 	mov	r6, #0
    d008:	e3402001 	movt	r2, #1
    d00c:	e304709c 	movw	r7, #16540	; 0x409c
    d010:	e58d0008 	str	r0, [sp, #8]
    d014:	e3003596 	movw	r3, #1430	; 0x596
    d018:	e58d2000 	str	r2, [sp]
    d01c:	e3407001 	movt	r7, #1
    d020:	e1a0200a 	mov	r2, sl
    d024:	e58d6004 	str	r6, [sp, #4]
    d028:	e59d1014 	ldr	r1, [sp, #20]
    d02c:	e59f017c 	ldr	r0, [pc, #380]	; d1b0 <run_end_to_end_msg_test+0x88c>
    d030:	eb001338 	bl	11d18 <fprintf>
    d034:	e5973000 	ldr	r3, [r7]
    d038:	e1590006 	cmp	r9, r6
    d03c:	e2833001 	add	r3, r3, #1
    d040:	e5873000 	str	r3, [r7]
    d044:	1affff91 	bne	ce90 <run_end_to_end_msg_test+0x56c>
    d048:	e59db01c 	ldr	fp, [sp, #28]
    d04c:	e5943000 	ldr	r3, [r4]
    d050:	e35b0000 	cmp	fp, #0
    d054:	e2833001 	add	r3, r3, #1
    d058:	e5843000 	str	r3, [r4]
    d05c:	0affff35 	beq	cd38 <run_end_to_end_msg_test+0x414>
    d060:	e304609c 	movw	r6, #16540	; 0x409c
    d064:	e3406001 	movt	r6, #1
    d068:	eaffff21 	b	ccf4 <run_end_to_end_msg_test+0x3d0>
    d06c:	e3023fa8 	movw	r3, #12200	; 0x2fa8
    d070:	e3a00000 	mov	r0, #0
    d074:	e3403001 	movt	r3, #1
    d078:	e3022fc0 	movw	r2, #12224	; 0x2fc0
    d07c:	e3021f74 	movw	r1, #12148	; 0x2f74
    d080:	e304609c 	movw	r6, #16540	; 0x409c
    d084:	e58d3000 	str	r3, [sp]
    d088:	e3402001 	movt	r2, #1
    d08c:	e58d0004 	str	r0, [sp, #4]
    d090:	e3401001 	movt	r1, #1
    d094:	e30035a1 	movw	r3, #1441	; 0x5a1
    d098:	e3406001 	movt	r6, #1
    d09c:	e58d9008 	str	r9, [sp, #8]
    d0a0:	e59f0108 	ldr	r0, [pc, #264]	; d1b0 <run_end_to_end_msg_test+0x88c>
    d0a4:	eb00131b 	bl	11d18 <fprintf>
    d0a8:	e5963000 	ldr	r3, [r6]
    d0ac:	e1a00005 	mov	r0, r5
    d0b0:	e2833001 	add	r3, r3, #1
    d0b4:	e5863000 	str	r3, [r6]
    d0b8:	eb000e3a 	bl	109a8 <close>
    d0bc:	e5943000 	ldr	r3, [r4]
    d0c0:	e3500000 	cmp	r0, #0
    d0c4:	e2833001 	add	r3, r3, #1
    d0c8:	e5843000 	str	r3, [r4]
    d0cc:	0affff24 	beq	cd64 <run_end_to_end_msg_test+0x440>
    d0d0:	e3023fb0 	movw	r3, #12208	; 0x2fb0
    d0d4:	e3a0c000 	mov	ip, #0
    d0d8:	e3403001 	movt	r3, #1
    d0dc:	e3022fc0 	movw	r2, #12224	; 0x2fc0
    d0e0:	e30310ec 	movw	r1, #12524	; 0x30ec
    d0e4:	e58d0008 	str	r0, [sp, #8]
    d0e8:	e58d3000 	str	r3, [sp]
    d0ec:	e3402001 	movt	r2, #1
    d0f0:	e30035a4 	movw	r3, #1444	; 0x5a4
    d0f4:	e58dc004 	str	ip, [sp, #4]
    d0f8:	e3401001 	movt	r1, #1
    d0fc:	e59f00ac 	ldr	r0, [pc, #172]	; d1b0 <run_end_to_end_msg_test+0x88c>
    d100:	eb001304 	bl	11d18 <fprintf>
    d104:	e5963000 	ldr	r3, [r6]
    d108:	e2833001 	add	r3, r3, #1
    d10c:	e5863000 	str	r3, [r6]
    d110:	eaffff13 	b	cd64 <run_end_to_end_msg_test+0x440>
    d114:	e59d3024 	ldr	r3, [sp, #36]	; 0x24
    d118:	e3a06000 	mov	r6, #0
    d11c:	e3022fc0 	movw	r2, #12224	; 0x2fc0
    d120:	e30310ec 	movw	r1, #12524	; 0x30ec
    d124:	e304709c 	movw	r7, #16540	; 0x409c
    d128:	e58d0008 	str	r0, [sp, #8]
    d12c:	e3402001 	movt	r2, #1
    d130:	e58d3000 	str	r3, [sp]
    d134:	e3407001 	movt	r7, #1
    d138:	e3003584 	movw	r3, #1412	; 0x584
    d13c:	e3401001 	movt	r1, #1
    d140:	e58d6004 	str	r6, [sp, #4]
    d144:	e59f0064 	ldr	r0, [pc, #100]	; d1b0 <run_end_to_end_msg_test+0x88c>
    d148:	eb0012f2 	bl	11d18 <fprintf>
    d14c:	e5972000 	ldr	r2, [r7]
    d150:	e5943000 	ldr	r3, [r4]
    d154:	e2822001 	add	r2, r2, #1
    d158:	e5872000 	str	r2, [r7]
    d15c:	eaffff29 	b	ce08 <run_end_to_end_msg_test+0x4e4>
    d160:	e3023e2c 	movw	r3, #11820	; 0x2e2c
    d164:	e3022fc0 	movw	r2, #12224	; 0x2fc0
    d168:	e3403001 	movt	r3, #1
    d16c:	e3031010 	movw	r1, #12304	; 0x3010
    d170:	e3402001 	movt	r2, #1
    d174:	e58d3000 	str	r3, [sp]
    d178:	e58d5004 	str	r5, [sp, #4]
    d17c:	e300354e 	movw	r3, #1358	; 0x54e
    d180:	e3401001 	movt	r1, #1
    d184:	e59f0024 	ldr	r0, [pc, #36]	; d1b0 <run_end_to_end_msg_test+0x88c>
    d188:	eb0012e2 	bl	11d18 <fprintf>
    d18c:	e304309c 	movw	r3, #16540	; 0x409c
    d190:	e3403001 	movt	r3, #1
    d194:	e5932000 	ldr	r2, [r3]
    d198:	e2822001 	add	r2, r2, #1
    d19c:	e5832000 	str	r2, [r3]
    d1a0:	eafffeef 	b	cd64 <run_end_to_end_msg_test+0x440>
    d1a4:	e304609c 	movw	r6, #16540	; 0x409c
    d1a8:	e3406001 	movt	r6, #1
    d1ac:	eaffffc7 	b	d0d0 <run_end_to_end_msg_test+0x7ac>
    d1b0:	00014048 	.word	0x00014048
    d1b4:	00000000 	.word	0x00000000

0000d1b8 <run_connect_close_by_peer_test>:
    d1b8:	e3023490 	movw	r3, #9360	; 0x2490
    d1bc:	e92d4ff0 	push	{r4, r5, r6, r7, r8, r9, sl, fp, lr}
    d1c0:	e3403001 	movt	r3, #1
    d1c4:	e24dd0b4 	sub	sp, sp, #180	; 0xb4
    d1c8:	e3022fc0 	movw	r2, #12224	; 0x2fc0
    d1cc:	e3021fd4 	movw	r1, #12244	; 0x2fd4
    d1d0:	e58d301c 	str	r3, [sp, #28]
    d1d4:	e1a0b000 	mov	fp, r0
    d1d8:	e58d3000 	str	r3, [sp]
    d1dc:	e3402001 	movt	r2, #1
    d1e0:	e3401001 	movt	r1, #1
    d1e4:	e30031da 	movw	r3, #474	; 0x1da
    d1e8:	e59f0448 	ldr	r0, [pc, #1096]	; d638 <run_connect_close_by_peer_test+0x480>
    d1ec:	e30440a0 	movw	r4, #16544	; 0x40a0
    d1f0:	eb0012c8 	bl	11d18 <fprintf>
    d1f4:	e3025fc0 	movw	r5, #12224	; 0x2fc0
    d1f8:	e3022fe4 	movw	r2, #12260	; 0x2fe4
    d1fc:	e3021be0 	movw	r1, #11232	; 0x2be0
    d200:	e3404001 	movt	r4, #1
    d204:	e3a0a001 	mov	sl, #1
    d208:	e1a0300b 	mov	r3, fp
    d20c:	e28d0030 	add	r0, sp, #48	; 0x30
    d210:	e3402001 	movt	r2, #1
    d214:	e3401001 	movt	r1, #1
    d218:	e3a09000 	mov	r9, #0
    d21c:	e3405001 	movt	r5, #1
    d220:	e58d9018 	str	r9, [sp, #24]
    d224:	eb0012a1 	bl	11cb0 <sprintf>
    d228:	e58d5010 	str	r5, [sp, #16]
    d22c:	e3a0500a 	mov	r5, #10
    d230:	e3a01e7d 	mov	r1, #2000	; 0x7d0
    d234:	e28d0030 	add	r0, sp, #48	; 0x30
    d238:	ebfffbc7 	bl	c15c <sync_connect>
    d23c:	e3700002 	cmn	r0, #2
    d240:	e1a06000 	mov	r6, r0
    d244:	e3a01000 	mov	r1, #0
    d248:	e28f3e3e 	add	r3, pc, #992	; 0x3e0
    d24c:	e1c320d0 	ldrd	r2, [r3]
    d250:	1a0000f9 	bne	d63c <run_connect_close_by_peer_test+0x484>
    d254:	e1a00001 	mov	r0, r1
    d258:	eb000dc6 	bl	10978 <nanosleep>
    d25c:	e2555001 	subs	r5, r5, #1
    d260:	1afffff2 	bne	d230 <run_connect_close_by_peer_test+0x78>
    d264:	e5940000 	ldr	r0, [r4]
    d268:	e3021df4 	movw	r1, #11764	; 0x2df4
    d26c:	e304709c 	movw	r7, #16540	; 0x409c
    d270:	e3a03e1f 	mov	r3, #496	; 0x1f0
    d274:	e59d2010 	ldr	r2, [sp, #16]
    d278:	e3407001 	movt	r7, #1
    d27c:	e2800001 	add	r0, r0, #1
    d280:	e58d5004 	str	r5, [sp, #4]
    d284:	e5840000 	str	r0, [r4]
    d288:	e3401001 	movt	r1, #1
    d28c:	e58db000 	str	fp, [sp]
    d290:	e59f03a0 	ldr	r0, [pc, #928]	; d638 <run_connect_close_by_peer_test+0x480>
    d294:	eb00129f 	bl	11d18 <fprintf>
    d298:	e5972000 	ldr	r2, [r7]
    d29c:	e5943000 	ldr	r3, [r4]
    d2a0:	e2822001 	add	r2, r2, #1
    d2a4:	e2833001 	add	r3, r3, #1
    d2a8:	e5872000 	str	r2, [r7]
    d2ac:	e5843000 	str	r3, [r4]
    d2b0:	e3e0200e 	mvn	r2, #14
    d2b4:	e3021cf0 	movw	r1, #11504	; 0x2cf0
    d2b8:	e3a03f81 	mov	r3, #516	; 0x204
    d2bc:	e58d2004 	str	r2, [sp, #4]
    d2c0:	e58d6008 	str	r6, [sp, #8]
    d2c4:	e3401001 	movt	r1, #1
    d2c8:	e58db000 	str	fp, [sp]
    d2cc:	e3a0a000 	mov	sl, #0
    d2d0:	e59d2010 	ldr	r2, [sp, #16]
    d2d4:	e59f035c 	ldr	r0, [pc, #860]	; d638 <run_connect_close_by_peer_test+0x480>
    d2d8:	eb00128e 	bl	11d18 <fprintf>
    d2dc:	e5973000 	ldr	r3, [r7]
    d2e0:	e2833001 	add	r3, r3, #1
    d2e4:	e5873000 	str	r3, [r7]
    d2e8:	e3023d30 	movw	r3, #11568	; 0x2d30
    d2ec:	e3403001 	movt	r3, #1
    d2f0:	e58d3014 	str	r3, [sp, #20]
    d2f4:	ea00000b 	b	d328 <run_connect_close_by_peer_test+0x170>
    d2f8:	e1a00007 	mov	r0, r7
    d2fc:	eb000da9 	bl	109a8 <close>
    d300:	e5943000 	ldr	r3, [r4]
    d304:	e3500000 	cmp	r0, #0
    d308:	e2833001 	add	r3, r3, #1
    d30c:	e5843000 	str	r3, [r4]
    d310:	1a0000b6 	bne	d5f0 <run_connect_close_by_peer_test+0x438>
    d314:	e28d30b0 	add	r3, sp, #176	; 0xb0
    d318:	e0838008 	add	r8, r3, r8
    d31c:	e3e03000 	mvn	r3, #0
    d320:	e5083040 	str	r3, [r8, #-64]	; 0xffffffc0
    d324:	e2499001 	sub	r9, r9, #1
    d328:	e3a01000 	mov	r1, #0
    d32c:	e28d0024 	add	r0, sp, #36	; 0x24
    d330:	eb000da5 	bl	109cc <wait_any>
    d334:	e2506000 	subs	r6, r0, #0
    d338:	1a000045 	bne	d454 <run_connect_close_by_peer_test+0x29c>
    d33c:	e59d2028 	ldr	r2, [sp, #40]	; 0x28
    d340:	e5943000 	ldr	r3, [r4]
    d344:	e3520004 	cmp	r2, #4
    d348:	e2833001 	add	r3, r3, #1
    d34c:	e5843000 	str	r3, [r4]
    d350:	0a00000f 	beq	d394 <run_connect_close_by_peer_test+0x1dc>
    d354:	e3a01004 	mov	r1, #4
    d358:	e304509c 	movw	r5, #16540	; 0x409c
    d35c:	e58d2008 	str	r2, [sp, #8]
    d360:	e3003209 	movw	r3, #521	; 0x209
    d364:	e59d2010 	ldr	r2, [sp, #16]
    d368:	e3405001 	movt	r5, #1
    d36c:	e58d1004 	str	r1, [sp, #4]
    d370:	e1a0a006 	mov	sl, r6
    d374:	e58db000 	str	fp, [sp]
    d378:	e59d1014 	ldr	r1, [sp, #20]
    d37c:	e59f02b4 	ldr	r0, [pc, #692]	; d638 <run_connect_close_by_peer_test+0x480>
    d380:	eb001264 	bl	11d18 <fprintf>
    d384:	e5952000 	ldr	r2, [r5]
    d388:	e5943000 	ldr	r3, [r4]
    d38c:	e2822001 	add	r2, r2, #1
    d390:	e5852000 	str	r2, [r5]
    d394:	e59d602c 	ldr	r6, [sp, #44]	; 0x2c
    d398:	e28d10b0 	add	r1, sp, #176	; 0xb0
    d39c:	e59d2024 	ldr	r2, [sp, #36]	; 0x24
    d3a0:	e2833001 	add	r3, r3, #1
    d3a4:	e5843000 	str	r3, [r4]
    d3a8:	e2466064 	sub	r6, r6, #100	; 0x64
    d3ac:	e1a08106 	lsl	r8, r6, #2
    d3b0:	e0811008 	add	r1, r1, r8
    d3b4:	e5117040 	ldr	r7, [r1, #-64]	; 0xffffffc0
    d3b8:	e1570002 	cmp	r7, r2
    d3bc:	0a00000f 	beq	d400 <run_connect_close_by_peer_test+0x248>
    d3c0:	e3021d78 	movw	r1, #11640	; 0x2d78
    d3c4:	e304509c 	movw	r5, #16540	; 0x409c
    d3c8:	e58d2008 	str	r2, [sp, #8]
    d3cc:	e300320b 	movw	r3, #523	; 0x20b
    d3d0:	e59d2010 	ldr	r2, [sp, #16]
    d3d4:	e3405001 	movt	r5, #1
    d3d8:	e3401001 	movt	r1, #1
    d3dc:	e58d7004 	str	r7, [sp, #4]
    d3e0:	e58db000 	str	fp, [sp]
    d3e4:	e3a0a000 	mov	sl, #0
    d3e8:	e59f0248 	ldr	r0, [pc, #584]	; d638 <run_connect_close_by_peer_test+0x480>
    d3ec:	eb001249 	bl	11d18 <fprintf>
    d3f0:	e5952000 	ldr	r2, [r5]
    d3f4:	e5943000 	ldr	r3, [r4]
    d3f8:	e2822001 	add	r2, r2, #1
    d3fc:	e5852000 	str	r2, [r5]
    d400:	e356000f 	cmp	r6, #15
    d404:	e2833001 	add	r3, r3, #1
    d408:	e5843000 	str	r3, [r4]
    d40c:	9affffb9 	bls	d2f8 <run_connect_close_by_peer_test+0x140>
    d410:	e3a03010 	mov	r3, #16
    d414:	e3021db8 	movw	r1, #11704	; 0x2db8
    d418:	e304509c 	movw	r5, #16540	; 0x409c
    d41c:	e58d3004 	str	r3, [sp, #4]
    d420:	e3405001 	movt	r5, #1
    d424:	e3a03f83 	mov	r3, #524	; 0x20c
    d428:	e58d6008 	str	r6, [sp, #8]
    d42c:	e3401001 	movt	r1, #1
    d430:	e58db000 	str	fp, [sp]
    d434:	e3a0a000 	mov	sl, #0
    d438:	e59d2010 	ldr	r2, [sp, #16]
    d43c:	e59f01f4 	ldr	r0, [pc, #500]	; d638 <run_connect_close_by_peer_test+0x480>
    d440:	eb001234 	bl	11d18 <fprintf>
    d444:	e5953000 	ldr	r3, [r5]
    d448:	e2833001 	add	r3, r3, #1
    d44c:	e5853000 	str	r3, [r5]
    d450:	eaffffb3 	b	d324 <run_connect_close_by_peer_test+0x16c>
    d454:	e59d3018 	ldr	r3, [sp, #24]
    d458:	e2833001 	add	r3, r3, #1
    d45c:	e3530010 	cmp	r3, #16
    d460:	e58d3018 	str	r3, [sp, #24]
    d464:	1affff70 	bne	d22c <run_connect_close_by_peer_test+0x74>
    d468:	e3590000 	cmp	r9, #0
    d46c:	0a0000ab 	beq	d720 <run_connect_close_by_peer_test+0x568>
    d470:	e30330ec 	movw	r3, #12524	; 0x30ec
    d474:	e3027fc0 	movw	r7, #12224	; 0x2fc0
    d478:	e3403001 	movt	r3, #1
    d47c:	e3407001 	movt	r7, #1
    d480:	e58d3010 	str	r3, [sp, #16]
    d484:	e59f81ac 	ldr	r8, [pc, #428]	; d638 <run_connect_close_by_peer_test+0x480>
    d488:	ea000040 	b	d590 <run_connect_close_by_peer_test+0x3d8>
    d48c:	e59d2028 	ldr	r2, [sp, #40]	; 0x28
    d490:	e2833001 	add	r3, r3, #1
    d494:	e5843000 	str	r3, [r4]
    d498:	e3520004 	cmp	r2, #4
    d49c:	0a000010 	beq	d4e4 <run_connect_close_by_peer_test+0x32c>
    d4a0:	e3a00004 	mov	r0, #4
    d4a4:	e3021d30 	movw	r1, #11568	; 0x2d30
    d4a8:	e58d2008 	str	r2, [sp, #8]
    d4ac:	e3401001 	movt	r1, #1
    d4b0:	e300321a 	movw	r3, #538	; 0x21a
    d4b4:	e58d0004 	str	r0, [sp, #4]
    d4b8:	e1a02007 	mov	r2, r7
    d4bc:	e58db000 	str	fp, [sp]
    d4c0:	e1a00008 	mov	r0, r8
    d4c4:	e3a0a000 	mov	sl, #0
    d4c8:	eb001212 	bl	11d18 <fprintf>
    d4cc:	e304209c 	movw	r2, #16540	; 0x409c
    d4d0:	e5943000 	ldr	r3, [r4]
    d4d4:	e3402001 	movt	r2, #1
    d4d8:	e5921000 	ldr	r1, [r2]
    d4dc:	e2811001 	add	r1, r1, #1
    d4e0:	e5821000 	str	r1, [r2]
    d4e4:	e59d202c 	ldr	r2, [sp, #44]	; 0x2c
    d4e8:	e2831001 	add	r1, r3, #1
    d4ec:	e5841000 	str	r1, [r4]
    d4f0:	e28d10b0 	add	r1, sp, #176	; 0xb0
    d4f4:	e2422064 	sub	r2, r2, #100	; 0x64
    d4f8:	e1a05102 	lsl	r5, r2, #2
    d4fc:	e352000f 	cmp	r2, #15
    d500:	e0811005 	add	r1, r1, r5
    d504:	e5116040 	ldr	r6, [r1, #-64]	; 0xffffffc0
    d508:	8a00006c 	bhi	d6c0 <run_connect_close_by_peer_test+0x508>
    d50c:	e59d2024 	ldr	r2, [sp, #36]	; 0x24
    d510:	e2833002 	add	r3, r3, #2
    d514:	e5843000 	str	r3, [r4]
    d518:	e1560002 	cmp	r6, r2
    d51c:	0a00000e 	beq	d55c <run_connect_close_by_peer_test+0x3a4>
    d520:	e3021d78 	movw	r1, #11640	; 0x2d78
    d524:	e58d2008 	str	r2, [sp, #8]
    d528:	e300321e 	movw	r3, #542	; 0x21e
    d52c:	e1a02007 	mov	r2, r7
    d530:	e58d6004 	str	r6, [sp, #4]
    d534:	e3401001 	movt	r1, #1
    d538:	e58db000 	str	fp, [sp]
    d53c:	e1a00008 	mov	r0, r8
    d540:	eb0011f4 	bl	11d18 <fprintf>
    d544:	e304309c 	movw	r3, #16540	; 0x409c
    d548:	e3a0a000 	mov	sl, #0
    d54c:	e3403001 	movt	r3, #1
    d550:	e5932000 	ldr	r2, [r3]
    d554:	e2822001 	add	r2, r2, #1
    d558:	e5832000 	str	r2, [r3]
    d55c:	e1a00006 	mov	r0, r6
    d560:	eb000d10 	bl	109a8 <close>
    d564:	e5943000 	ldr	r3, [r4]
    d568:	e3500000 	cmp	r0, #0
    d56c:	e2833001 	add	r3, r3, #1
    d570:	e5843000 	str	r3, [r4]
    d574:	1a00007d 	bne	d770 <run_connect_close_by_peer_test+0x5b8>
    d578:	e28d30b0 	add	r3, sp, #176	; 0xb0
    d57c:	e2599001 	subs	r9, r9, #1
    d580:	e0835005 	add	r5, r3, r5
    d584:	e3e03000 	mvn	r3, #0
    d588:	e5053040 	str	r3, [r5, #-64]	; 0xffffffc0
    d58c:	0a000063 	beq	d720 <run_connect_close_by_peer_test+0x568>
    d590:	e3021710 	movw	r1, #10000	; 0x2710
    d594:	e28d0024 	add	r0, sp, #36	; 0x24
    d598:	eb000d0b 	bl	109cc <wait_any>
    d59c:	e5943000 	ldr	r3, [r4]
    d5a0:	e3500000 	cmp	r0, #0
    d5a4:	e2833001 	add	r3, r3, #1
    d5a8:	e5843000 	str	r3, [r4]
    d5ac:	0affffb6 	beq	d48c <run_connect_close_by_peer_test+0x2d4>
    d5b0:	e3a0a000 	mov	sl, #0
    d5b4:	e58d0008 	str	r0, [sp, #8]
    d5b8:	e3003219 	movw	r3, #537	; 0x219
    d5bc:	e1a02007 	mov	r2, r7
    d5c0:	e59d1010 	ldr	r1, [sp, #16]
    d5c4:	e1a00008 	mov	r0, r8
    d5c8:	e58db000 	str	fp, [sp]
    d5cc:	e58da004 	str	sl, [sp, #4]
    d5d0:	eb0011d0 	bl	11d18 <fprintf>
    d5d4:	e304209c 	movw	r2, #16540	; 0x409c
    d5d8:	e5943000 	ldr	r3, [r4]
    d5dc:	e3402001 	movt	r2, #1
    d5e0:	e5921000 	ldr	r1, [r2]
    d5e4:	e2811001 	add	r1, r1, #1
    d5e8:	e5821000 	str	r1, [r2]
    d5ec:	eaffffa6 	b	d48c <run_connect_close_by_peer_test+0x2d4>
    d5f0:	e3a0a000 	mov	sl, #0
    d5f4:	e30310ec 	movw	r1, #12524	; 0x30ec
    d5f8:	e304509c 	movw	r5, #16540	; 0x409c
    d5fc:	e58d0008 	str	r0, [sp, #8]
    d600:	e300320f 	movw	r3, #527	; 0x20f
    d604:	e3405001 	movt	r5, #1
    d608:	e58db000 	str	fp, [sp]
    d60c:	e3401001 	movt	r1, #1
    d610:	e58da004 	str	sl, [sp, #4]
    d614:	e59d2010 	ldr	r2, [sp, #16]
    d618:	e59f0018 	ldr	r0, [pc, #24]	; d638 <run_connect_close_by_peer_test+0x480>
    d61c:	eb0011bd 	bl	11d18 <fprintf>
    d620:	e5953000 	ldr	r3, [r5]
    d624:	e2833001 	add	r3, r3, #1
    d628:	e5853000 	str	r3, [r5]
    d62c:	eaffff38 	b	d314 <run_connect_close_by_peer_test+0x15c>
    d630:	05f5e100 	.word	0x05f5e100
    d634:	00000000 	.word	0x00000000
    d638:	00014048 	.word	0x00014048
    d63c:	e5943000 	ldr	r3, [r4]
    d640:	e3500000 	cmp	r0, #0
    d644:	e2832001 	add	r2, r3, #1
    d648:	e5842000 	str	r2, [r4]
    d64c:	ba000056 	blt	d7ac <run_connect_close_by_peer_test+0x5f4>
    d650:	e59d2018 	ldr	r2, [sp, #24]
    d654:	e28d3070 	add	r3, sp, #112	; 0x70
    d658:	e7836102 	str	r6, [r3, r2, lsl #2]
    d65c:	e2821064 	add	r1, r2, #100	; 0x64
    d660:	eb000cd3 	bl	109b4 <set_cookie>
    d664:	e5943000 	ldr	r3, [r4]
    d668:	e3500000 	cmp	r0, #0
    d66c:	e2833001 	add	r3, r3, #1
    d670:	e5843000 	str	r3, [r4]
    d674:	1a000001 	bne	d680 <run_connect_close_by_peer_test+0x4c8>
    d678:	e2899001 	add	r9, r9, #1
    d67c:	eaffff19 	b	d2e8 <run_connect_close_by_peer_test+0x130>
    d680:	e3a0a000 	mov	sl, #0
    d684:	e30310ec 	movw	r1, #12524	; 0x30ec
    d688:	e304709c 	movw	r7, #16540	; 0x409c
    d68c:	e58d0008 	str	r0, [sp, #8]
    d690:	e30031ff 	movw	r3, #511	; 0x1ff
    d694:	e3407001 	movt	r7, #1
    d698:	e58db000 	str	fp, [sp]
    d69c:	e3401001 	movt	r1, #1
    d6a0:	e58da004 	str	sl, [sp, #4]
    d6a4:	e59d2010 	ldr	r2, [sp, #16]
    d6a8:	e51f0078 	ldr	r0, [pc, #-120]	; d638 <run_connect_close_by_peer_test+0x480>
    d6ac:	eb001199 	bl	11d18 <fprintf>
    d6b0:	e5973000 	ldr	r3, [r7]
    d6b4:	e2833001 	add	r3, r3, #1
    d6b8:	e5873000 	str	r3, [r7]
    d6bc:	eaffffed 	b	d678 <run_connect_close_by_peer_test+0x4c0>
    d6c0:	e3a00010 	mov	r0, #16
    d6c4:	e3021db8 	movw	r1, #11704	; 0x2db8
    d6c8:	e58d2008 	str	r2, [sp, #8]
    d6cc:	e300321d 	movw	r3, #541	; 0x21d
    d6d0:	e58d0004 	str	r0, [sp, #4]
    d6d4:	e1a02007 	mov	r2, r7
    d6d8:	e3401001 	movt	r1, #1
    d6dc:	e58db000 	str	fp, [sp]
    d6e0:	e1a00008 	mov	r0, r8
    d6e4:	e304509c 	movw	r5, #16540	; 0x409c
    d6e8:	eb00118a 	bl	11d18 <fprintf>
    d6ec:	e3405001 	movt	r5, #1
    d6f0:	e59d0024 	ldr	r0, [sp, #36]	; 0x24
    d6f4:	e5952000 	ldr	r2, [r5]
    d6f8:	e5943000 	ldr	r3, [r4]
    d6fc:	e1560000 	cmp	r6, r0
    d700:	e2822001 	add	r2, r2, #1
    d704:	e2833001 	add	r3, r3, #1
    d708:	e5852000 	str	r2, [r5]
    d70c:	e5843000 	str	r3, [r4]
    d710:	1a00002c 	bne	d7c8 <run_connect_close_by_peer_test+0x610>
    d714:	e2599001 	subs	r9, r9, #1
    d718:	e3a0a000 	mov	sl, #0
    d71c:	1affff9b 	bne	d590 <run_connect_close_by_peer_test+0x3d8>
    d720:	e5943000 	ldr	r3, [r4]
    d724:	e35a0000 	cmp	sl, #0
    d728:	e3022fc0 	movw	r2, #12224	; 0x2fc0
    d72c:	13031180 	movwne	r1, #12672	; 0x3180
    d730:	03031194 	movweq	r1, #12692	; 0x3194
    d734:	13402001 	movtne	r2, #1
    d738:	e2833001 	add	r3, r3, #1
    d73c:	13401001 	movtne	r1, #1
    d740:	e5843000 	str	r3, [r4]
    d744:	03402001 	movteq	r2, #1
    d748:	159d301c 	ldrne	r3, [sp, #28]
    d74c:	03401001 	movteq	r1, #1
    d750:	059d301c 	ldreq	r3, [sp, #28]
    d754:	e51f0124 	ldr	r0, [pc, #-292]	; d638 <run_connect_close_by_peer_test+0x480>
    d758:	158d3000 	strne	r3, [sp]
    d75c:	058d3000 	streq	r3, [sp]
    d760:	e3003229 	movw	r3, #553	; 0x229
    d764:	eb00116b 	bl	11d18 <fprintf>
    d768:	e28dd0b4 	add	sp, sp, #180	; 0xb4
    d76c:	e8bd8ff0 	pop	{r4, r5, r6, r7, r8, r9, sl, fp, pc}
    d770:	e3a0a000 	mov	sl, #0
    d774:	e58d0008 	str	r0, [sp, #8]
    d778:	e3003221 	movw	r3, #545	; 0x221
    d77c:	e1a02007 	mov	r2, r7
    d780:	e58db000 	str	fp, [sp]
    d784:	e1a00008 	mov	r0, r8
    d788:	e58da004 	str	sl, [sp, #4]
    d78c:	e59d1010 	ldr	r1, [sp, #16]
    d790:	eb001160 	bl	11d18 <fprintf>
    d794:	e304309c 	movw	r3, #16540	; 0x409c
    d798:	e3403001 	movt	r3, #1
    d79c:	e5932000 	ldr	r2, [r3]
    d7a0:	e2822001 	add	r2, r2, #1
    d7a4:	e5832000 	str	r2, [r3]
    d7a8:	eaffff72 	b	d578 <run_connect_close_by_peer_test+0x3c0>
    d7ac:	e376000f 	cmn	r6, #15
    d7b0:	e2833002 	add	r3, r3, #2
    d7b4:	e5843000 	str	r3, [r4]
    d7b8:	0afffeca 	beq	d2e8 <run_connect_close_by_peer_test+0x130>
    d7bc:	e304709c 	movw	r7, #16540	; 0x409c
    d7c0:	e3407001 	movt	r7, #1
    d7c4:	eafffeb9 	b	d2b0 <run_connect_close_by_peer_test+0xf8>
    d7c8:	e3021d78 	movw	r1, #11640	; 0x2d78
    d7cc:	e58d0008 	str	r0, [sp, #8]
    d7d0:	e300321e 	movw	r3, #542	; 0x21e
    d7d4:	e58d6004 	str	r6, [sp, #4]
    d7d8:	e3401001 	movt	r1, #1
    d7dc:	e58db000 	str	fp, [sp]
    d7e0:	e1a02007 	mov	r2, r7
    d7e4:	e1a00008 	mov	r0, r8
    d7e8:	eb00114a 	bl	11d18 <fprintf>
    d7ec:	e5953000 	ldr	r3, [r5]
    d7f0:	e2833001 	add	r3, r3, #1
    d7f4:	e5853000 	str	r3, [r5]
    d7f8:	eaffffc5 	b	d714 <run_connect_close_by_peer_test+0x55c>

0000d7fc <run_read_msg_negative_test>:
    d7fc:	e302358c 	movw	r3, #9612	; 0x258c
    d800:	e92d4ff0 	push	{r4, r5, r6, r7, r8, r9, sl, fp, lr}
    d804:	e3403001 	movt	r3, #1
    d808:	e24ddf4b 	sub	sp, sp, #300	; 0x12c
    d80c:	e3022fc0 	movw	r2, #12224	; 0x2fc0
    d810:	e3021fd4 	movw	r1, #12244	; 0x2fd4
    d814:	e58d3014 	str	r3, [sp, #20]
    d818:	e3402001 	movt	r2, #1
    d81c:	e58d3000 	str	r3, [sp]
    d820:	e3401001 	movt	r1, #1
    d824:	e30034ac 	movw	r3, #1196	; 0x4ac
    d828:	e59f0be0 	ldr	r0, [pc, #3040]	; e410 <run_read_msg_negative_test+0xc14>
    d82c:	eb001139 	bl	11d18 <fprintf>
    d830:	e3a02010 	mov	r2, #16
    d834:	e3a01000 	mov	r1, #0
    d838:	e28d0048 	add	r0, sp, #72	; 0x48
    d83c:	e30460a0 	movw	r6, #16544	; 0x40a0
    d840:	eb00115c 	bl	11db8 <memset>
    d844:	e3a02010 	mov	r2, #16
    d848:	e3a01000 	mov	r1, #0
    d84c:	e28d0038 	add	r0, sp, #56	; 0x38
    d850:	e3406001 	movt	r6, #1
    d854:	eb001157 	bl	11db8 <memset>
    d858:	e3a02000 	mov	r2, #0
    d85c:	e28d3048 	add	r3, sp, #72	; 0x48
    d860:	e3e00000 	mvn	r0, #0
    d864:	e1a01002 	mov	r1, r2
    d868:	eb000c5d 	bl	109e4 <read_msg>
    d86c:	e5963000 	ldr	r3, [r6]
    d870:	e370002a 	cmn	r0, #42	; 0x2a
    d874:	03a08001 	moveq	r8, #1
    d878:	e2833001 	add	r3, r3, #1
    d87c:	e5863000 	str	r3, [r6]
    d880:	0a000011 	beq	d8cc <run_read_msg_negative_test+0xd0>
    d884:	e30331e4 	movw	r3, #12772	; 0x31e4
    d888:	e3e0c029 	mvn	ip, #41	; 0x29
    d88c:	e3403001 	movt	r3, #1
    d890:	e3022fc0 	movw	r2, #12224	; 0x2fc0
    d894:	e30311a8 	movw	r1, #12712	; 0x31a8
    d898:	e304409c 	movw	r4, #16540	; 0x409c
    d89c:	e58d0008 	str	r0, [sp, #8]
    d8a0:	e3404001 	movt	r4, #1
    d8a4:	e88d1008 	stm	sp, {r3, ip}
    d8a8:	e3402001 	movt	r2, #1
    d8ac:	e30034b4 	movw	r3, #1204	; 0x4b4
    d8b0:	e3401001 	movt	r1, #1
    d8b4:	e59f0b54 	ldr	r0, [pc, #2900]	; e410 <run_read_msg_negative_test+0xc14>
    d8b8:	e3a08000 	mov	r8, #0
    d8bc:	eb001115 	bl	11d18 <fprintf>
    d8c0:	e5943000 	ldr	r3, [r4]
    d8c4:	e2833001 	add	r3, r3, #1
    d8c8:	e5843000 	str	r3, [r4]
    d8cc:	e3a03000 	mov	r3, #0
    d8d0:	e3e00000 	mvn	r0, #0
    d8d4:	e1a02003 	mov	r2, r3
    d8d8:	e1a01003 	mov	r1, r3
    d8dc:	eb000c40 	bl	109e4 <read_msg>
    d8e0:	e5963000 	ldr	r3, [r6]
    d8e4:	e3700028 	cmn	r0, #40	; 0x28
    d8e8:	e2833001 	add	r3, r3, #1
    d8ec:	e5863000 	str	r3, [r6]
    d8f0:	0a000011 	beq	d93c <run_read_msg_negative_test+0x140>
    d8f4:	e30331e4 	movw	r3, #12772	; 0x31e4
    d8f8:	e3e0c027 	mvn	ip, #39	; 0x27
    d8fc:	e3403001 	movt	r3, #1
    d900:	e3022fc0 	movw	r2, #12224	; 0x2fc0
    d904:	e3031200 	movw	r1, #12800	; 0x3200
    d908:	e304409c 	movw	r4, #16540	; 0x409c
    d90c:	e58d0008 	str	r0, [sp, #8]
    d910:	e3404001 	movt	r4, #1
    d914:	e88d1008 	stm	sp, {r3, ip}
    d918:	e3402001 	movt	r2, #1
    d91c:	e30034b7 	movw	r3, #1207	; 0x4b7
    d920:	e3401001 	movt	r1, #1
    d924:	e59f0ae4 	ldr	r0, [pc, #2788]	; e410 <run_read_msg_negative_test+0xc14>
    d928:	e3a08000 	mov	r8, #0
    d92c:	eb0010f9 	bl	11d18 <fprintf>
    d930:	e5943000 	ldr	r3, [r4]
    d934:	e2833001 	add	r3, r3, #1
    d938:	e5843000 	str	r3, [r4]
    d93c:	e3a02000 	mov	r2, #0
    d940:	e28d3048 	add	r3, sp, #72	; 0x48
    d944:	e1a01002 	mov	r1, r2
    d948:	e3a00080 	mov	r0, #128	; 0x80
    d94c:	eb000c24 	bl	109e4 <read_msg>
    d950:	e5963000 	ldr	r3, [r6]
    d954:	e370002a 	cmn	r0, #42	; 0x2a
    d958:	e2833001 	add	r3, r3, #1
    d95c:	e5863000 	str	r3, [r6]
    d960:	0a000011 	beq	d9ac <run_read_msg_negative_test+0x1b0>
    d964:	e3033238 	movw	r3, #12856	; 0x3238
    d968:	e3e0c029 	mvn	ip, #41	; 0x29
    d96c:	e3403001 	movt	r3, #1
    d970:	e3022fc0 	movw	r2, #12224	; 0x2fc0
    d974:	e30311a8 	movw	r1, #12712	; 0x31a8
    d978:	e304409c 	movw	r4, #16540	; 0x409c
    d97c:	e58d0008 	str	r0, [sp, #8]
    d980:	e3404001 	movt	r4, #1
    d984:	e88d1008 	stm	sp, {r3, ip}
    d988:	e3402001 	movt	r2, #1
    d98c:	e30034bb 	movw	r3, #1211	; 0x4bb
    d990:	e3401001 	movt	r1, #1
    d994:	e59f0a74 	ldr	r0, [pc, #2676]	; e410 <run_read_msg_negative_test+0xc14>
    d998:	e3a08000 	mov	r8, #0
    d99c:	eb0010dd 	bl	11d18 <fprintf>
    d9a0:	e5943000 	ldr	r3, [r4]
    d9a4:	e2833001 	add	r3, r3, #1
    d9a8:	e5843000 	str	r3, [r4]
    d9ac:	e3a03000 	mov	r3, #0
    d9b0:	e3a00080 	mov	r0, #128	; 0x80
    d9b4:	e1a02003 	mov	r2, r3
    d9b8:	e1a01003 	mov	r1, r3
    d9bc:	eb000c08 	bl	109e4 <read_msg>
    d9c0:	e5963000 	ldr	r3, [r6]
    d9c4:	e3700028 	cmn	r0, #40	; 0x28
    d9c8:	e2833001 	add	r3, r3, #1
    d9cc:	e5863000 	str	r3, [r6]
    d9d0:	0a000011 	beq	da1c <run_read_msg_negative_test+0x220>
    d9d4:	e3033238 	movw	r3, #12856	; 0x3238
    d9d8:	e3e0c027 	mvn	ip, #39	; 0x27
    d9dc:	e3403001 	movt	r3, #1
    d9e0:	e3022fc0 	movw	r2, #12224	; 0x2fc0
    d9e4:	e3031200 	movw	r1, #12800	; 0x3200
    d9e8:	e304409c 	movw	r4, #16540	; 0x409c
    d9ec:	e58d0008 	str	r0, [sp, #8]
    d9f0:	e3404001 	movt	r4, #1
    d9f4:	e88d1008 	stm	sp, {r3, ip}
    d9f8:	e3402001 	movt	r2, #1
    d9fc:	e30034be 	movw	r3, #1214	; 0x4be
    da00:	e3401001 	movt	r1, #1
    da04:	e59f0a04 	ldr	r0, [pc, #2564]	; e410 <run_read_msg_negative_test+0xc14>
    da08:	e3a08000 	mov	r8, #0
    da0c:	eb0010c1 	bl	11d18 <fprintf>
    da10:	e5943000 	ldr	r3, [r4]
    da14:	e2833001 	add	r3, r3, #1
    da18:	e5843000 	str	r3, [r4]
    da1c:	e3039250 	movw	r9, #12880	; 0x3250
    da20:	e3027fc0 	movw	r7, #12224	; 0x2fc0
    da24:	e3409001 	movt	r9, #1
    da28:	e3407001 	movt	r7, #1
    da2c:	e3a05002 	mov	r5, #2
    da30:	e3a02000 	mov	r2, #0
    da34:	e28d3048 	add	r3, sp, #72	; 0x48
    da38:	e1a01002 	mov	r1, r2
    da3c:	e1a00005 	mov	r0, r5
    da40:	eb000be7 	bl	109e4 <read_msg>
    da44:	e596c000 	ldr	ip, [r6]
    da48:	e1a0e000 	mov	lr, r0
    da4c:	e3e0a001 	mvn	sl, #1
    da50:	e304409c 	movw	r4, #16540	; 0x409c
    da54:	e15e000a 	cmp	lr, sl
    da58:	e3031130 	movw	r1, #12592	; 0x3130
    da5c:	e28cc001 	add	ip, ip, #1
    da60:	e3404001 	movt	r4, #1
    da64:	e59f09a4 	ldr	r0, [pc, #2468]	; e410 <run_read_msg_negative_test+0xc14>
    da68:	e30034c3 	movw	r3, #1219	; 0x4c3
    da6c:	e1a02007 	mov	r2, r7
    da70:	e3401001 	movt	r1, #1
    da74:	e586c000 	str	ip, [r6]
    da78:	0a000006 	beq	da98 <run_read_msg_negative_test+0x29c>
    da7c:	e58de008 	str	lr, [sp, #8]
    da80:	e3a08000 	mov	r8, #0
    da84:	e88d0600 	stm	sp, {r9, sl}
    da88:	eb0010a2 	bl	11d18 <fprintf>
    da8c:	e5943000 	ldr	r3, [r4]
    da90:	e2833001 	add	r3, r3, #1
    da94:	e5843000 	str	r3, [r4]
    da98:	e3a03000 	mov	r3, #0
    da9c:	e1a00005 	mov	r0, r5
    daa0:	e1a02003 	mov	r2, r3
    daa4:	e1a01003 	mov	r1, r3
    daa8:	eb000bcd 	bl	109e4 <read_msg>
    daac:	e596c000 	ldr	ip, [r6]
    dab0:	e1a0a000 	mov	sl, r0
    dab4:	e3e0b027 	mvn	fp, #39	; 0x27
    dab8:	e304409c 	movw	r4, #16540	; 0x409c
    dabc:	e15a000b 	cmp	sl, fp
    dac0:	e303e238 	movw	lr, #12856	; 0x3238
    dac4:	e3031200 	movw	r1, #12800	; 0x3200
    dac8:	e28cc001 	add	ip, ip, #1
    dacc:	e3404001 	movt	r4, #1
    dad0:	e59f0938 	ldr	r0, [pc, #2360]	; e410 <run_read_msg_negative_test+0xc14>
    dad4:	e340e001 	movt	lr, #1
    dad8:	e30034c7 	movw	r3, #1223	; 0x4c7
    dadc:	e1a02007 	mov	r2, r7
    dae0:	e3401001 	movt	r1, #1
    dae4:	e2855001 	add	r5, r5, #1
    dae8:	e586c000 	str	ip, [r6]
    daec:	0a000007 	beq	db10 <run_read_msg_negative_test+0x314>
    daf0:	e58da008 	str	sl, [sp, #8]
    daf4:	e3a08000 	mov	r8, #0
    daf8:	e58db004 	str	fp, [sp, #4]
    dafc:	e58de000 	str	lr, [sp]
    db00:	eb001084 	bl	11d18 <fprintf>
    db04:	e5943000 	ldr	r3, [r4]
    db08:	e2833001 	add	r3, r3, #1
    db0c:	e5843000 	str	r3, [r4]
    db10:	e3550080 	cmp	r5, #128	; 0x80
    db14:	1affffc5 	bne	da30 <run_read_msg_negative_test+0x234>
    db18:	e3033270 	movw	r3, #12912	; 0x3270
    db1c:	e3022fe4 	movw	r2, #12260	; 0x2fe4
    db20:	e303127c 	movw	r1, #12924	; 0x327c
    db24:	e3403001 	movt	r3, #1
    db28:	e3402001 	movt	r2, #1
    db2c:	e3401001 	movt	r1, #1
    db30:	e28d0068 	add	r0, sp, #104	; 0x68
    db34:	eb00105d 	bl	11cb0 <sprintf>
    db38:	e3a03001 	mov	r3, #1
    db3c:	e28d0068 	add	r0, sp, #104	; 0x68
    db40:	e3a02a01 	mov	r2, #4096	; 0x1000
    db44:	e3a01002 	mov	r1, #2
    db48:	eb000b8d 	bl	10984 <port_create>
    db4c:	e5963000 	ldr	r3, [r6]
    db50:	e2505000 	subs	r5, r0, #0
    db54:	e2833001 	add	r3, r3, #1
    db58:	e5863000 	str	r3, [r6]
    db5c:	ba00020f 	blt	e3a0 <run_read_msg_negative_test+0xba4>
    db60:	e3a02000 	mov	r2, #0
    db64:	e28d3048 	add	r3, sp, #72	; 0x48
    db68:	e1a01002 	mov	r1, r2
    db6c:	e1a00005 	mov	r0, r5
    db70:	eb000b9b 	bl	109e4 <read_msg>
    db74:	e5963000 	ldr	r3, [r6]
    db78:	e3700008 	cmn	r0, #8
    db7c:	e2833001 	add	r3, r3, #1
    db80:	e5863000 	str	r3, [r6]
    db84:	0a000011 	beq	dbd0 <run_read_msg_negative_test+0x3d4>
    db88:	e30332dc 	movw	r3, #13020	; 0x32dc
    db8c:	e3e0c007 	mvn	ip, #7
    db90:	e3403001 	movt	r3, #1
    db94:	e3022fc0 	movw	r2, #12224	; 0x2fc0
    db98:	e30312a0 	movw	r1, #12960	; 0x32a0
    db9c:	e304409c 	movw	r4, #16540	; 0x409c
    dba0:	e58d0008 	str	r0, [sp, #8]
    dba4:	e3404001 	movt	r4, #1
    dba8:	e88d1008 	stm	sp, {r3, ip}
    dbac:	e3402001 	movt	r2, #1
    dbb0:	e30034d3 	movw	r3, #1235	; 0x4d3
    dbb4:	e3401001 	movt	r1, #1
    dbb8:	e59f0850 	ldr	r0, [pc, #2128]	; e410 <run_read_msg_negative_test+0xc14>
    dbbc:	e3a08000 	mov	r8, #0
    dbc0:	eb001054 	bl	11d18 <fprintf>
    dbc4:	e5943000 	ldr	r3, [r4]
    dbc8:	e2833001 	add	r3, r3, #1
    dbcc:	e5843000 	str	r3, [r4]
    dbd0:	e1a00005 	mov	r0, r5
    dbd4:	eb000b73 	bl	109a8 <close>
    dbd8:	e3023e24 	movw	r3, #11812	; 0x2e24
    dbdc:	e3022fe4 	movw	r2, #12260	; 0x2fe4
    dbe0:	e3021be0 	movw	r1, #11232	; 0x2be0
    dbe4:	e3403001 	movt	r3, #1
    dbe8:	e3402001 	movt	r2, #1
    dbec:	e3401001 	movt	r1, #1
    dbf0:	e28d0068 	add	r0, sp, #104	; 0x68
    dbf4:	eb00102d 	bl	11cb0 <sprintf>
    dbf8:	e28d0068 	add	r0, sp, #104	; 0x68
    dbfc:	e3a01ffa 	mov	r1, #1000	; 0x3e8
    dc00:	ebfff955 	bl	c15c <sync_connect>
    dc04:	e5963000 	ldr	r3, [r6]
    dc08:	e2505000 	subs	r5, r0, #0
    dc0c:	e2833001 	add	r3, r3, #1
    dc10:	e5863000 	str	r3, [r6]
    dc14:	ba0001d0 	blt	e35c <run_read_msg_negative_test+0xb60>
    dc18:	e3a03000 	mov	r3, #0
    dc1c:	e1a00005 	mov	r0, r5
    dc20:	e1a02003 	mov	r2, r3
    dc24:	e1a01003 	mov	r1, r3
    dc28:	eb000b6d 	bl	109e4 <read_msg>
    dc2c:	e5963000 	ldr	r3, [r6]
    dc30:	e3700028 	cmn	r0, #40	; 0x28
    dc34:	e2833001 	add	r3, r3, #1
    dc38:	e5863000 	str	r3, [r6]
    dc3c:	0a000011 	beq	dc88 <run_read_msg_negative_test+0x48c>
    dc40:	e3033238 	movw	r3, #12856	; 0x3238
    dc44:	e3e0c027 	mvn	ip, #39	; 0x27
    dc48:	e3403001 	movt	r3, #1
    dc4c:	e3022fc0 	movw	r2, #12224	; 0x2fc0
    dc50:	e3031200 	movw	r1, #12800	; 0x3200
    dc54:	e304409c 	movw	r4, #16540	; 0x409c
    dc58:	e58d0008 	str	r0, [sp, #8]
    dc5c:	e3404001 	movt	r4, #1
    dc60:	e88d1008 	stm	sp, {r3, ip}
    dc64:	e3402001 	movt	r2, #1
    dc68:	e30034de 	movw	r3, #1246	; 0x4de
    dc6c:	e3401001 	movt	r1, #1
    dc70:	e59f0798 	ldr	r0, [pc, #1944]	; e410 <run_read_msg_negative_test+0xc14>
    dc74:	e3a08000 	mov	r8, #0
    dc78:	eb001026 	bl	11d18 <fprintf>
    dc7c:	e5943000 	ldr	r3, [r4]
    dc80:	e2833001 	add	r3, r3, #1
    dc84:	e5843000 	str	r3, [r4]
    dc88:	e3a02000 	mov	r2, #0
    dc8c:	e28d3048 	add	r3, sp, #72	; 0x48
    dc90:	e1a01002 	mov	r1, r2
    dc94:	e1a00005 	mov	r0, r5
    dc98:	eb000b51 	bl	109e4 <read_msg>
    dc9c:	e5963000 	ldr	r3, [r6]
    dca0:	e3700008 	cmn	r0, #8
    dca4:	e2833001 	add	r3, r3, #1
    dca8:	e5863000 	str	r3, [r6]
    dcac:	0a000011 	beq	dcf8 <run_read_msg_negative_test+0x4fc>
    dcb0:	e3033304 	movw	r3, #13060	; 0x3304
    dcb4:	e3e0c007 	mvn	ip, #7
    dcb8:	e3403001 	movt	r3, #1
    dcbc:	e3022fc0 	movw	r2, #12224	; 0x2fc0
    dcc0:	e30312a0 	movw	r1, #12960	; 0x32a0
    dcc4:	e304409c 	movw	r4, #16540	; 0x409c
    dcc8:	e58d0008 	str	r0, [sp, #8]
    dccc:	e3404001 	movt	r4, #1
    dcd0:	e88d1008 	stm	sp, {r3, ip}
    dcd4:	e3402001 	movt	r2, #1
    dcd8:	e30034e2 	movw	r3, #1250	; 0x4e2
    dcdc:	e3401001 	movt	r1, #1
    dce0:	e59f0728 	ldr	r0, [pc, #1832]	; e410 <run_read_msg_negative_test+0xc14>
    dce4:	e3a08000 	mov	r8, #0
    dce8:	eb00100a 	bl	11d18 <fprintf>
    dcec:	e5943000 	ldr	r3, [r4]
    dcf0:	e2833001 	add	r3, r3, #1
    dcf4:	e5843000 	str	r3, [r4]
    dcf8:	e28d3048 	add	r3, sp, #72	; 0x48
    dcfc:	e3a02000 	mov	r2, #0
    dd00:	e3a01ffa 	mov	r1, #1000	; 0x3e8
    dd04:	e1a00005 	mov	r0, r5
    dd08:	eb000b35 	bl	109e4 <read_msg>
    dd0c:	e5963000 	ldr	r3, [r6]
    dd10:	e3700008 	cmn	r0, #8
    dd14:	e2833001 	add	r3, r3, #1
    dd18:	e5863000 	str	r3, [r6]
    dd1c:	0a000011 	beq	dd68 <run_read_msg_negative_test+0x56c>
    dd20:	e3033304 	movw	r3, #13060	; 0x3304
    dd24:	e3e0c007 	mvn	ip, #7
    dd28:	e3403001 	movt	r3, #1
    dd2c:	e3022fc0 	movw	r2, #12224	; 0x2fc0
    dd30:	e30312a0 	movw	r1, #12960	; 0x32a0
    dd34:	e304409c 	movw	r4, #16540	; 0x409c
    dd38:	e58d0008 	str	r0, [sp, #8]
    dd3c:	e3404001 	movt	r4, #1
    dd40:	e88d1008 	stm	sp, {r3, ip}
    dd44:	e3402001 	movt	r2, #1
    dd48:	e30034e5 	movw	r3, #1253	; 0x4e5
    dd4c:	e3401001 	movt	r1, #1
    dd50:	e59f06b8 	ldr	r0, [pc, #1720]	; e410 <run_read_msg_negative_test+0xc14>
    dd54:	e3a08000 	mov	r8, #0
    dd58:	eb000fee 	bl	11d18 <fprintf>
    dd5c:	e5943000 	ldr	r3, [r4]
    dd60:	e2833001 	add	r3, r3, #1
    dd64:	e5843000 	str	r3, [r4]
    dd68:	e28d40a8 	add	r4, sp, #168	; 0xa8
    dd6c:	e3a02040 	mov	r2, #64	; 0x40
    dd70:	e3a01055 	mov	r1, #85	; 0x55
    dd74:	e1a00004 	mov	r0, r4
    dd78:	eb00100e 	bl	11db8 <memset>
    dd7c:	e3a09040 	mov	r9, #64	; 0x40
    dd80:	e28d3024 	add	r3, sp, #36	; 0x24
    dd84:	e3a02001 	mov	r2, #1
    dd88:	e3a07000 	mov	r7, #0
    dd8c:	e28d1038 	add	r1, sp, #56	; 0x38
    dd90:	e1a00005 	mov	r0, r5
    dd94:	e1cd23f8 	strd	r2, [sp, #56]	; 0x38
    dd98:	e58d4024 	str	r4, [sp, #36]	; 0x24
    dd9c:	e58d9028 	str	r9, [sp, #40]	; 0x28
    dda0:	e58d7040 	str	r7, [sp, #64]	; 0x40
    dda4:	e58d7044 	str	r7, [sp, #68]	; 0x44
    dda8:	eb000b13 	bl	109fc <send_msg>
    ddac:	e5963000 	ldr	r3, [r6]
    ddb0:	e1500009 	cmp	r0, r9
    ddb4:	e2833001 	add	r3, r3, #1
    ddb8:	e5863000 	str	r3, [r6]
    ddbc:	0a000011 	beq	de08 <run_read_msg_negative_test+0x60c>
    ddc0:	e3023e6c 	movw	r3, #11884	; 0x2e6c
    ddc4:	e3022fc0 	movw	r2, #12224	; 0x2fc0
    ddc8:	e3403001 	movt	r3, #1
    ddcc:	e3021e3c 	movw	r1, #11836	; 0x2e3c
    ddd0:	e304409c 	movw	r4, #16540	; 0x409c
    ddd4:	e58d0008 	str	r0, [sp, #8]
    ddd8:	e58d3000 	str	r3, [sp]
    dddc:	e3404001 	movt	r4, #1
    dde0:	e30034f1 	movw	r3, #1265	; 0x4f1
    dde4:	e58d9004 	str	r9, [sp, #4]
    dde8:	e3402001 	movt	r2, #1
    ddec:	e3401001 	movt	r1, #1
    ddf0:	e59f0618 	ldr	r0, [pc, #1560]	; e410 <run_read_msg_negative_test+0xc14>
    ddf4:	e1a08007 	mov	r8, r7
    ddf8:	eb000fc6 	bl	11d18 <fprintf>
    ddfc:	e5943000 	ldr	r3, [r4]
    de00:	e2833001 	add	r3, r3, #1
    de04:	e5843000 	str	r3, [r4]
    de08:	e3a02ffa 	mov	r2, #1000	; 0x3e8
    de0c:	e28d102c 	add	r1, sp, #44	; 0x2c
    de10:	e1a00005 	mov	r0, r5
    de14:	eb000ae9 	bl	109c0 <wait>
    de18:	e5963000 	ldr	r3, [r6]
    de1c:	e3500000 	cmp	r0, #0
    de20:	e2833001 	add	r3, r3, #1
    de24:	e5863000 	str	r3, [r6]
    de28:	1a000137 	bne	e30c <run_read_msg_negative_test+0xb10>
    de2c:	e59d002c 	ldr	r0, [sp, #44]	; 0x2c
    de30:	e2833001 	add	r3, r3, #1
    de34:	e5863000 	str	r3, [r6]
    de38:	e1550000 	cmp	r5, r0
    de3c:	0a000011 	beq	de88 <run_read_msg_negative_test+0x68c>
    de40:	e3023ed8 	movw	r3, #11992	; 0x2ed8
    de44:	e3022fc0 	movw	r2, #12224	; 0x2fc0
    de48:	e3403001 	movt	r3, #1
    de4c:	e3021e9c 	movw	r1, #11932	; 0x2e9c
    de50:	e304409c 	movw	r4, #16540	; 0x409c
    de54:	e58d0008 	str	r0, [sp, #8]
    de58:	e58d3000 	str	r3, [sp]
    de5c:	e3404001 	movt	r4, #1
    de60:	e30034f6 	movw	r3, #1270	; 0x4f6
    de64:	e58d5004 	str	r5, [sp, #4]
    de68:	e3402001 	movt	r2, #1
    de6c:	e3401001 	movt	r1, #1
    de70:	e59f0598 	ldr	r0, [pc, #1432]	; e410 <run_read_msg_negative_test+0xc14>
    de74:	e3a08000 	mov	r8, #0
    de78:	eb000fa6 	bl	11d18 <fprintf>
    de7c:	e5943000 	ldr	r3, [r4]
    de80:	e2833001 	add	r3, r3, #1
    de84:	e5843000 	str	r3, [r4]
    de88:	e28d101c 	add	r1, sp, #28
    de8c:	e1a00005 	mov	r0, r5
    de90:	eb000ad0 	bl	109d8 <get_msg>
    de94:	e5963000 	ldr	r3, [r6]
    de98:	e3500000 	cmp	r0, #0
    de9c:	e2833001 	add	r3, r3, #1
    dea0:	e5863000 	str	r3, [r6]
    dea4:	1a000104 	bne	e2bc <run_read_msg_negative_test+0xac0>
    dea8:	e59d001c 	ldr	r0, [sp, #28]
    deac:	e2833001 	add	r3, r3, #1
    deb0:	e5863000 	str	r3, [r6]
    deb4:	e3500040 	cmp	r0, #64	; 0x40
    deb8:	0a000011 	beq	df04 <run_read_msg_negative_test+0x708>
    debc:	e3033360 	movw	r3, #13152	; 0x3360
    dec0:	e3a0c040 	mov	ip, #64	; 0x40
    dec4:	e3403001 	movt	r3, #1
    dec8:	e3022fc0 	movw	r2, #12224	; 0x2fc0
    decc:	e3031320 	movw	r1, #13088	; 0x3320
    ded0:	e304409c 	movw	r4, #16540	; 0x409c
    ded4:	e58d0008 	str	r0, [sp, #8]
    ded8:	e3404001 	movt	r4, #1
    dedc:	e88d1008 	stm	sp, {r3, ip}
    dee0:	e3402001 	movt	r2, #1
    dee4:	e30034fa 	movw	r3, #1274	; 0x4fa
    dee8:	e3401001 	movt	r1, #1
    deec:	e59f051c 	ldr	r0, [pc, #1308]	; e410 <run_read_msg_negative_test+0xc14>
    def0:	e3a08000 	mov	r8, #0
    def4:	eb000f87 	bl	11d18 <fprintf>
    def8:	e5943000 	ldr	r3, [r4]
    defc:	e2833001 	add	r3, r3, #1
    df00:	e5843000 	str	r3, [r4]
    df04:	e3a07000 	mov	r7, #0
    df08:	e3a0c020 	mov	ip, #32
    df0c:	e3a0e002 	mov	lr, #2
    df10:	e28d3048 	add	r3, sp, #72	; 0x48
    df14:	e1a02007 	mov	r2, r7
    df18:	e59d1020 	ldr	r1, [sp, #32]
    df1c:	e1a00005 	mov	r0, r5
    df20:	e58d704c 	str	r7, [sp, #76]	; 0x4c
    df24:	e58dc05c 	str	ip, [sp, #92]	; 0x5c
    df28:	e58dc064 	str	ip, [sp, #100]	; 0x64
    df2c:	e58de048 	str	lr, [sp, #72]	; 0x48
    df30:	eb000aab 	bl	109e4 <read_msg>
    df34:	e5963000 	ldr	r3, [r6]
    df38:	e3700028 	cmn	r0, #40	; 0x28
    df3c:	e2833001 	add	r3, r3, #1
    df40:	e5863000 	str	r3, [r6]
    df44:	0a000011 	beq	df90 <run_read_msg_negative_test+0x794>
    df48:	e303337c 	movw	r3, #13180	; 0x337c
    df4c:	e3e0c027 	mvn	ip, #39	; 0x27
    df50:	e3403001 	movt	r3, #1
    df54:	e3022fc0 	movw	r2, #12224	; 0x2fc0
    df58:	e3031200 	movw	r1, #12800	; 0x3200
    df5c:	e304409c 	movw	r4, #16540	; 0x409c
    df60:	e58d0008 	str	r0, [sp, #8]
    df64:	e3404001 	movt	r4, #1
    df68:	e88d1008 	stm	sp, {r3, ip}
    df6c:	e3402001 	movt	r2, #1
    df70:	e3003505 	movw	r3, #1285	; 0x505
    df74:	e3401001 	movt	r1, #1
    df78:	e59f0490 	ldr	r0, [pc, #1168]	; e410 <run_read_msg_negative_test+0xc14>
    df7c:	e1a08007 	mov	r8, r7
    df80:	eb000f64 	bl	11d18 <fprintf>
    df84:	e5943000 	ldr	r3, [r4]
    df88:	e2833001 	add	r3, r3, #1
    df8c:	e5843000 	str	r3, [r4]
    df90:	e3a07000 	mov	r7, #0
    df94:	e28dc058 	add	ip, sp, #88	; 0x58
    df98:	e28d3048 	add	r3, sp, #72	; 0x48
    df9c:	e1a02007 	mov	r2, r7
    dfa0:	e59d1020 	ldr	r1, [sp, #32]
    dfa4:	e1a00005 	mov	r0, r5
    dfa8:	e58d7058 	str	r7, [sp, #88]	; 0x58
    dfac:	e58d7060 	str	r7, [sp, #96]	; 0x60
    dfb0:	e58dc04c 	str	ip, [sp, #76]	; 0x4c
    dfb4:	eb000a8a 	bl	109e4 <read_msg>
    dfb8:	e5963000 	ldr	r3, [r6]
    dfbc:	e3700028 	cmn	r0, #40	; 0x28
    dfc0:	e2833001 	add	r3, r3, #1
    dfc4:	e5863000 	str	r3, [r6]
    dfc8:	0a000011 	beq	e014 <run_read_msg_negative_test+0x818>
    dfcc:	e303339c 	movw	r3, #13212	; 0x339c
    dfd0:	e3e0c027 	mvn	ip, #39	; 0x27
    dfd4:	e3403001 	movt	r3, #1
    dfd8:	e3022fc0 	movw	r2, #12224	; 0x2fc0
    dfdc:	e3031200 	movw	r1, #12800	; 0x3200
    dfe0:	e304409c 	movw	r4, #16540	; 0x409c
    dfe4:	e58d0008 	str	r0, [sp, #8]
    dfe8:	e3404001 	movt	r4, #1
    dfec:	e88d1008 	stm	sp, {r3, ip}
    dff0:	e3402001 	movt	r2, #1
    dff4:	e300350c 	movw	r3, #1292	; 0x50c
    dff8:	e3401001 	movt	r1, #1
    dffc:	e59f040c 	ldr	r0, [pc, #1036]	; e410 <run_read_msg_negative_test+0xc14>
    e000:	e1a08007 	mov	r8, r7
    e004:	eb000f43 	bl	11d18 <fprintf>
    e008:	e5943000 	ldr	r3, [r4]
    e00c:	e2833001 	add	r3, r3, #1
    e010:	e5843000 	str	r3, [r4]
    e014:	e3a07000 	mov	r7, #0
    e018:	e28d3048 	add	r3, sp, #72	; 0x48
    e01c:	e28d90e8 	add	r9, sp, #232	; 0xe8
    e020:	e1a02007 	mov	r2, r7
    e024:	e59d1020 	ldr	r1, [sp, #32]
    e028:	e1a00005 	mov	r0, r5
    e02c:	e58d7060 	str	r7, [sp, #96]	; 0x60
    e030:	e58d9058 	str	r9, [sp, #88]	; 0x58
    e034:	eb000a6a 	bl	109e4 <read_msg>
    e038:	e5963000 	ldr	r3, [r6]
    e03c:	e3700028 	cmn	r0, #40	; 0x28
    e040:	e2833001 	add	r3, r3, #1
    e044:	e5863000 	str	r3, [r6]
    e048:	0a000011 	beq	e094 <run_read_msg_negative_test+0x898>
    e04c:	e303339c 	movw	r3, #13212	; 0x339c
    e050:	e3e0c027 	mvn	ip, #39	; 0x27
    e054:	e3403001 	movt	r3, #1
    e058:	e3022fc0 	movw	r2, #12224	; 0x2fc0
    e05c:	e3031200 	movw	r1, #12800	; 0x3200
    e060:	e304409c 	movw	r4, #16540	; 0x409c
    e064:	e58d0008 	str	r0, [sp, #8]
    e068:	e3404001 	movt	r4, #1
    e06c:	e88d1008 	stm	sp, {r3, ip}
    e070:	e3402001 	movt	r2, #1
    e074:	e3003511 	movw	r3, #1297	; 0x511
    e078:	e3401001 	movt	r1, #1
    e07c:	e59f038c 	ldr	r0, [pc, #908]	; e410 <run_read_msg_negative_test+0xc14>
    e080:	e1a08007 	mov	r8, r7
    e084:	eb000f23 	bl	11d18 <fprintf>
    e088:	e5943000 	ldr	r3, [r4]
    e08c:	e2833001 	add	r3, r3, #1
    e090:	e5843000 	str	r3, [r4]
    e094:	e59d201c 	ldr	r2, [sp, #28]
    e098:	e28dcf42 	add	ip, sp, #264	; 0x108
    e09c:	e28d3048 	add	r3, sp, #72	; 0x48
    e0a0:	e59d1020 	ldr	r1, [sp, #32]
    e0a4:	e1a00005 	mov	r0, r5
    e0a8:	e58d9058 	str	r9, [sp, #88]	; 0x58
    e0ac:	e2822001 	add	r2, r2, #1
    e0b0:	e58dc060 	str	ip, [sp, #96]	; 0x60
    e0b4:	eb000a4a 	bl	109e4 <read_msg>
    e0b8:	e5963000 	ldr	r3, [r6]
    e0bc:	e3700008 	cmn	r0, #8
    e0c0:	e2833001 	add	r3, r3, #1
    e0c4:	e5863000 	str	r3, [r6]
    e0c8:	0a000011 	beq	e114 <run_read_msg_negative_test+0x918>
    e0cc:	e30333b4 	movw	r3, #13236	; 0x33b4
    e0d0:	e3e0c007 	mvn	ip, #7
    e0d4:	e3403001 	movt	r3, #1
    e0d8:	e3022fc0 	movw	r2, #12224	; 0x2fc0
    e0dc:	e30312a0 	movw	r1, #12960	; 0x32a0
    e0e0:	e304409c 	movw	r4, #16540	; 0x409c
    e0e4:	e58d0008 	str	r0, [sp, #8]
    e0e8:	e3404001 	movt	r4, #1
    e0ec:	e88d1008 	stm	sp, {r3, ip}
    e0f0:	e3402001 	movt	r2, #1
    e0f4:	e3003518 	movw	r3, #1304	; 0x518
    e0f8:	e3401001 	movt	r1, #1
    e0fc:	e59f030c 	ldr	r0, [pc, #780]	; e410 <run_read_msg_negative_test+0xc14>
    e100:	e3a08000 	mov	r8, #0
    e104:	eb000f03 	bl	11d18 <fprintf>
    e108:	e5943000 	ldr	r3, [r4]
    e10c:	e2833001 	add	r3, r3, #1
    e110:	e5843000 	str	r3, [r4]
    e114:	e3a07000 	mov	r7, #0
    e118:	e28d3048 	add	r3, sp, #72	; 0x48
    e11c:	e3a0c001 	mov	ip, #1
    e120:	e1a02007 	mov	r2, r7
    e124:	e59d1020 	ldr	r1, [sp, #32]
    e128:	e1a00005 	mov	r0, r5
    e12c:	e58d7054 	str	r7, [sp, #84]	; 0x54
    e130:	e58dc050 	str	ip, [sp, #80]	; 0x50
    e134:	eb000a2a 	bl	109e4 <read_msg>
    e138:	e5963000 	ldr	r3, [r6]
    e13c:	e3700018 	cmn	r0, #24
    e140:	e2833001 	add	r3, r3, #1
    e144:	e5863000 	str	r3, [r6]
    e148:	0a000011 	beq	e194 <run_read_msg_negative_test+0x998>
    e14c:	e3033410 	movw	r3, #13328	; 0x3410
    e150:	e3e0c017 	mvn	ip, #23
    e154:	e3403001 	movt	r3, #1
    e158:	e3022fc0 	movw	r2, #12224	; 0x2fc0
    e15c:	e30313d0 	movw	r1, #13264	; 0x33d0
    e160:	e304409c 	movw	r4, #16540	; 0x409c
    e164:	e58d0008 	str	r0, [sp, #8]
    e168:	e3404001 	movt	r4, #1
    e16c:	e88d1008 	stm	sp, {r3, ip}
    e170:	e3402001 	movt	r2, #1
    e174:	e300351e 	movw	r3, #1310	; 0x51e
    e178:	e3401001 	movt	r1, #1
    e17c:	e59f028c 	ldr	r0, [pc, #652]	; e410 <run_read_msg_negative_test+0xc14>
    e180:	e1a08007 	mov	r8, r7
    e184:	eb000ee3 	bl	11d18 <fprintf>
    e188:	e5943000 	ldr	r3, [r4]
    e18c:	e2833001 	add	r3, r3, #1
    e190:	e5843000 	str	r3, [r4]
    e194:	e3a07000 	mov	r7, #0
    e198:	e59d1020 	ldr	r1, [sp, #32]
    e19c:	e1a00005 	mov	r0, r5
    e1a0:	e58d7050 	str	r7, [sp, #80]	; 0x50
    e1a4:	eb000a11 	bl	109f0 <put_msg>
    e1a8:	e5963000 	ldr	r3, [r6]
    e1ac:	e3500000 	cmp	r0, #0
    e1b0:	e2833001 	add	r3, r3, #1
    e1b4:	e5863000 	str	r3, [r6]
    e1b8:	1a000026 	bne	e258 <run_read_msg_negative_test+0xa5c>
    e1bc:	e1a00005 	mov	r0, r5
    e1c0:	eb0009f8 	bl	109a8 <close>
    e1c4:	e5963000 	ldr	r3, [r6]
    e1c8:	e3500000 	cmp	r0, #0
    e1cc:	e2833001 	add	r3, r3, #1
    e1d0:	e5863000 	str	r3, [r6]
    e1d4:	1a00000c 	bne	e20c <run_read_msg_negative_test+0xa10>
    e1d8:	e3580000 	cmp	r8, #0
    e1dc:	1a000080 	bne	e3e4 <run_read_msg_negative_test+0xbe8>
    e1e0:	e59d3014 	ldr	r3, [sp, #20]
    e1e4:	e3022fc0 	movw	r2, #12224	; 0x2fc0
    e1e8:	e3031194 	movw	r1, #12692	; 0x3194
    e1ec:	e3402001 	movt	r2, #1
    e1f0:	e3401001 	movt	r1, #1
    e1f4:	e59f0214 	ldr	r0, [pc, #532]	; e410 <run_read_msg_negative_test+0xc14>
    e1f8:	e58d3000 	str	r3, [sp]
    e1fc:	e3003528 	movw	r3, #1320	; 0x528
    e200:	eb000ec4 	bl	11d18 <fprintf>
    e204:	e28ddf4b 	add	sp, sp, #300	; 0x12c
    e208:	e8bd8ff0 	pop	{r4, r5, r6, r7, r8, r9, sl, fp, pc}
    e20c:	e304409c 	movw	r4, #16540	; 0x409c
    e210:	e3404001 	movt	r4, #1
    e214:	e3023fb0 	movw	r3, #12208	; 0x2fb0
    e218:	e3a0c000 	mov	ip, #0
    e21c:	e3403001 	movt	r3, #1
    e220:	e3022fc0 	movw	r2, #12224	; 0x2fc0
    e224:	e30310ec 	movw	r1, #12524	; 0x30ec
    e228:	e58d0008 	str	r0, [sp, #8]
    e22c:	e58d3000 	str	r3, [sp]
    e230:	e3402001 	movt	r2, #1
    e234:	e3003526 	movw	r3, #1318	; 0x526
    e238:	e58dc004 	str	ip, [sp, #4]
    e23c:	e3401001 	movt	r1, #1
    e240:	e59f01c8 	ldr	r0, [pc, #456]	; e410 <run_read_msg_negative_test+0xc14>
    e244:	eb000eb3 	bl	11d18 <fprintf>
    e248:	e5943000 	ldr	r3, [r4]
    e24c:	e2833001 	add	r3, r3, #1
    e250:	e5843000 	str	r3, [r4]
    e254:	eaffffe1 	b	e1e0 <run_read_msg_negative_test+0x9e4>
    e258:	e3023f10 	movw	r3, #12048	; 0x2f10
    e25c:	e3022fc0 	movw	r2, #12224	; 0x2fc0
    e260:	e3403001 	movt	r3, #1
    e264:	e30310ec 	movw	r1, #12524	; 0x30ec
    e268:	e304409c 	movw	r4, #16540	; 0x409c
    e26c:	e58d0008 	str	r0, [sp, #8]
    e270:	e3402001 	movt	r2, #1
    e274:	e58d3000 	str	r3, [sp]
    e278:	e3401001 	movt	r1, #1
    e27c:	e3003523 	movw	r3, #1315	; 0x523
    e280:	e3404001 	movt	r4, #1
    e284:	e58d7004 	str	r7, [sp, #4]
    e288:	e59f0180 	ldr	r0, [pc, #384]	; e410 <run_read_msg_negative_test+0xc14>
    e28c:	eb000ea1 	bl	11d18 <fprintf>
    e290:	e5943000 	ldr	r3, [r4]
    e294:	e1a00005 	mov	r0, r5
    e298:	e2833001 	add	r3, r3, #1
    e29c:	e5843000 	str	r3, [r4]
    e2a0:	eb0009c0 	bl	109a8 <close>
    e2a4:	e5963000 	ldr	r3, [r6]
    e2a8:	e3500000 	cmp	r0, #0
    e2ac:	e2833001 	add	r3, r3, #1
    e2b0:	e5863000 	str	r3, [r6]
    e2b4:	0affffc9 	beq	e1e0 <run_read_msg_negative_test+0x9e4>
    e2b8:	eaffffd5 	b	e214 <run_read_msg_negative_test+0xa18>
    e2bc:	e3023ee8 	movw	r3, #12008	; 0x2ee8
    e2c0:	e3a08000 	mov	r8, #0
    e2c4:	e3403001 	movt	r3, #1
    e2c8:	e3022fc0 	movw	r2, #12224	; 0x2fc0
    e2cc:	e30310ec 	movw	r1, #12524	; 0x30ec
    e2d0:	e304409c 	movw	r4, #16540	; 0x409c
    e2d4:	e58d0008 	str	r0, [sp, #8]
    e2d8:	e3402001 	movt	r2, #1
    e2dc:	e58d3000 	str	r3, [sp]
    e2e0:	e3404001 	movt	r4, #1
    e2e4:	e30034f9 	movw	r3, #1273	; 0x4f9
    e2e8:	e3401001 	movt	r1, #1
    e2ec:	e58d8004 	str	r8, [sp, #4]
    e2f0:	e59f0118 	ldr	r0, [pc, #280]	; e410 <run_read_msg_negative_test+0xc14>
    e2f4:	eb000e87 	bl	11d18 <fprintf>
    e2f8:	e5942000 	ldr	r2, [r4]
    e2fc:	e5963000 	ldr	r3, [r6]
    e300:	e2822001 	add	r2, r2, #1
    e304:	e5842000 	str	r2, [r4]
    e308:	eafffee6 	b	dea8 <run_read_msg_negative_test+0x6ac>
    e30c:	e3023e80 	movw	r3, #11904	; 0x2e80
    e310:	e3a08000 	mov	r8, #0
    e314:	e3403001 	movt	r3, #1
    e318:	e3022fc0 	movw	r2, #12224	; 0x2fc0
    e31c:	e30310ec 	movw	r1, #12524	; 0x30ec
    e320:	e304409c 	movw	r4, #16540	; 0x409c
    e324:	e58d0008 	str	r0, [sp, #8]
    e328:	e3402001 	movt	r2, #1
    e32c:	e58d3000 	str	r3, [sp]
    e330:	e3404001 	movt	r4, #1
    e334:	e30034f5 	movw	r3, #1269	; 0x4f5
    e338:	e3401001 	movt	r1, #1
    e33c:	e58d8004 	str	r8, [sp, #4]
    e340:	e59f00c8 	ldr	r0, [pc, #200]	; e410 <run_read_msg_negative_test+0xc14>
    e344:	eb000e73 	bl	11d18 <fprintf>
    e348:	e5942000 	ldr	r2, [r4]
    e34c:	e5963000 	ldr	r3, [r6]
    e350:	e2822001 	add	r2, r2, #1
    e354:	e5842000 	str	r2, [r4]
    e358:	eafffeb3 	b	de2c <run_read_msg_negative_test+0x630>
    e35c:	e30332f0 	movw	r3, #13040	; 0x32f0
    e360:	e3022fc0 	movw	r2, #12224	; 0x2fc0
    e364:	e3403001 	movt	r3, #1
    e368:	e3031010 	movw	r1, #12304	; 0x3010
    e36c:	e304409c 	movw	r4, #16540	; 0x409c
    e370:	e88d0028 	stm	sp, {r3, r5}
    e374:	e3404001 	movt	r4, #1
    e378:	e30034d9 	movw	r3, #1241	; 0x4d9
    e37c:	e3402001 	movt	r2, #1
    e380:	e3401001 	movt	r1, #1
    e384:	e59f0084 	ldr	r0, [pc, #132]	; e410 <run_read_msg_negative_test+0xc14>
    e388:	e3a08000 	mov	r8, #0
    e38c:	eb000e61 	bl	11d18 <fprintf>
    e390:	e5943000 	ldr	r3, [r4]
    e394:	e2833001 	add	r3, r3, #1
    e398:	e5843000 	str	r3, [r4]
    e39c:	eafffe1d 	b	dc18 <run_read_msg_negative_test+0x41c>
    e3a0:	e3033288 	movw	r3, #12936	; 0x3288
    e3a4:	e3022fc0 	movw	r2, #12224	; 0x2fc0
    e3a8:	e3403001 	movt	r3, #1
    e3ac:	e3031010 	movw	r1, #12304	; 0x3010
    e3b0:	e304409c 	movw	r4, #16540	; 0x409c
    e3b4:	e88d0028 	stm	sp, {r3, r5}
    e3b8:	e3404001 	movt	r4, #1
    e3bc:	e30034cf 	movw	r3, #1231	; 0x4cf
    e3c0:	e3402001 	movt	r2, #1
    e3c4:	e3401001 	movt	r1, #1
    e3c8:	e59f0040 	ldr	r0, [pc, #64]	; e410 <run_read_msg_negative_test+0xc14>
    e3cc:	e3a08000 	mov	r8, #0
    e3d0:	eb000e50 	bl	11d18 <fprintf>
    e3d4:	e5943000 	ldr	r3, [r4]
    e3d8:	e2833001 	add	r3, r3, #1
    e3dc:	e5843000 	str	r3, [r4]
    e3e0:	eafffdde 	b	db60 <run_read_msg_negative_test+0x364>
    e3e4:	e59d3014 	ldr	r3, [sp, #20]
    e3e8:	e3022fc0 	movw	r2, #12224	; 0x2fc0
    e3ec:	e3031180 	movw	r1, #12672	; 0x3180
    e3f0:	e3402001 	movt	r2, #1
    e3f4:	e3401001 	movt	r1, #1
    e3f8:	e59f0010 	ldr	r0, [pc, #16]	; e410 <run_read_msg_negative_test+0xc14>
    e3fc:	e58d3000 	str	r3, [sp]
    e400:	e3003528 	movw	r3, #1320	; 0x528
    e404:	eb000e43 	bl	11d18 <fprintf>
    e408:	e28ddf4b 	add	sp, sp, #300	; 0x12c
    e40c:	e8bd8ff0 	pop	{r4, r5, r6, r7, r8, r9, sl, fp, pc}
    e410:	00014048 	.word	0x00014048

0000e414 <_start>:
    e414:	e92d4800 	push	{fp, lr}
    e418:	e28db004 	add	fp, sp, #4
    e41c:	e24dd018 	sub	sp, sp, #24
    e420:	e50b0018 	str	r0, [fp, #-24]	; 0xffffffe8
    e424:	e3043000 	movw	r3, #16384	; 0x4000
    e428:	e3403001 	movt	r3, #1
    e42c:	e50b3010 	str	r3, [fp, #-16]
    e430:	e3043008 	movw	r3, #16392	; 0x4008
    e434:	e3403001 	movt	r3, #1
    e438:	e50b300c 	str	r3, [fp, #-12]
    e43c:	e3043014 	movw	r3, #16404	; 0x4014
    e440:	e3403001 	movt	r3, #1
    e444:	e5933000 	ldr	r3, [r3]
    e448:	e3530000 	cmp	r3, #0
    e44c:	0a000002 	beq	e45c <_start+0x48>
    e450:	e3043014 	movw	r3, #16404	; 0x4014
    e454:	e3403001 	movt	r3, #1
    e458:	ea000000 	b	e460 <_start+0x4c>
    e45c:	e3a03000 	mov	r3, #0
    e460:	e50b3008 	str	r3, [fp, #-8]
    e464:	e24b3010 	sub	r3, fp, #16
    e468:	e1a02003 	mov	r2, r3
    e46c:	e308100c 	movw	r1, #32780	; 0x800c
    e470:	e3401000 	movt	r1, #0
    e474:	e51b0018 	ldr	r0, [fp, #-24]	; 0xffffffe8
    e478:	eb000905 	bl	10894 <__libc_init>

0000e47c <abort>:
    e47c:	e92d4010 	push	{r4, lr}
    e480:	e3a00001 	mov	r0, #1
    e484:	ebffe6dd 	bl	8000 <exit>

0000e488 <__cxa_atexit>:
    e488:	e92d41f0 	push	{r4, r5, r6, r7, r8, lr}
    e48c:	e30453a4 	movw	r5, #17316	; 0x43a4
    e490:	e3405001 	movt	r5, #1
    e494:	e1a07000 	mov	r7, r0
    e498:	e1a06001 	mov	r6, r1
    e49c:	e5954000 	ldr	r4, [r5]
    e4a0:	e3540000 	cmp	r4, #0
    e4a4:	0a000004 	beq	e4bc <__cxa_atexit+0x34>
    e4a8:	e5943004 	ldr	r3, [r4, #4]
    e4ac:	e5941008 	ldr	r1, [r4, #8]
    e4b0:	e2832001 	add	r2, r3, #1
    e4b4:	e1520001 	cmp	r2, r1
    e4b8:	ba000014 	blt	e510 <__cxa_atexit+0x88>
    e4bc:	e3a00040 	mov	r0, #64	; 0x40
    e4c0:	eb0000e1 	bl	e84c <malloc>
    e4c4:	e2504000 	subs	r4, r0, #0
    e4c8:	0a00001d 	beq	e544 <__cxa_atexit+0xbc>
    e4cc:	e5951000 	ldr	r1, [r5]
    e4d0:	e3510000 	cmp	r1, #0
    e4d4:	13a03000 	movne	r3, #0
    e4d8:	15843004 	strne	r3, [r4, #4]
    e4dc:	0a000011 	beq	e528 <__cxa_atexit+0xa0>
    e4e0:	e304201c 	movw	r2, #16412	; 0x401c
    e4e4:	e5841000 	str	r1, [r4]
    e4e8:	e3402001 	movt	r2, #1
    e4ec:	e3a01006 	mov	r1, #6
    e4f0:	e5923000 	ldr	r3, [r2]
    e4f4:	e5841008 	str	r1, [r4, #8]
    e4f8:	e5854000 	str	r4, [r5]
    e4fc:	e3530000 	cmp	r3, #0
    e500:	e5943004 	ldr	r3, [r4, #4]
    e504:	13a01000 	movne	r1, #0
    e508:	15821000 	strne	r1, [r2]
    e50c:	e2832001 	add	r2, r3, #1
    e510:	e0843183 	add	r3, r4, r3, lsl #3
    e514:	e5842004 	str	r2, [r4, #4]
    e518:	e3a00000 	mov	r0, #0
    e51c:	e583700c 	str	r7, [r3, #12]
    e520:	e5836010 	str	r6, [r3, #16]
    e524:	e8bd81f0 	pop	{r4, r5, r6, r7, r8, pc}
    e528:	e3a02008 	mov	r2, #8
    e52c:	e284000c 	add	r0, r4, #12
    e530:	eb000e20 	bl	11db8 <memset>
    e534:	e3a03001 	mov	r3, #1
    e538:	e5951000 	ldr	r1, [r5]
    e53c:	e5843004 	str	r3, [r4, #4]
    e540:	eaffffe6 	b	e4e0 <__cxa_atexit+0x58>
    e544:	e3e00000 	mvn	r0, #0
    e548:	e8bd81f0 	pop	{r4, r5, r6, r7, r8, pc}

0000e54c <__cxa_finalize>:
    e54c:	e304301c 	movw	r3, #16412	; 0x401c
    e550:	e92d47f0 	push	{r4, r5, r6, r7, r8, r9, sl, lr}
    e554:	e3403001 	movt	r3, #1
    e558:	e5936000 	ldr	r6, [r3]
    e55c:	e3560000 	cmp	r6, #0
    e560:	18bd87f0 	popne	{r4, r5, r6, r7, r8, r9, sl, pc}
    e564:	e30493a4 	movw	r9, #17316	; 0x43a4
    e568:	e30480a4 	movw	r8, #16548	; 0x40a4
    e56c:	e3409001 	movt	r9, #1
    e570:	e3408001 	movt	r8, #1
    e574:	e5997000 	ldr	r7, [r9]
    e578:	e5983000 	ldr	r3, [r8]
    e57c:	e3570000 	cmp	r7, #0
    e580:	e2833001 	add	r3, r3, #1
    e584:	e5883000 	str	r3, [r8]
    e588:	0a00000f 	beq	e5cc <__cxa_finalize+0x80>
    e58c:	e5975004 	ldr	r5, [r7, #4]
    e590:	e0874185 	add	r4, r7, r5, lsl #3
    e594:	ea000006 	b	e5b4 <__cxa_finalize+0x68>
    e598:	e5943004 	ldr	r3, [r4, #4]
    e59c:	e3530000 	cmp	r3, #0
    e5a0:	0a000002 	beq	e5b0 <__cxa_finalize+0x64>
    e5a4:	e5940008 	ldr	r0, [r4, #8]
    e5a8:	e5846004 	str	r6, [r4, #4]
    e5ac:	e12fff33 	blx	r3
    e5b0:	e2444008 	sub	r4, r4, #8
    e5b4:	e2555001 	subs	r5, r5, #1
    e5b8:	5afffff6 	bpl	e598 <__cxa_finalize+0x4c>
    e5bc:	e5977000 	ldr	r7, [r7]
    e5c0:	e3570000 	cmp	r7, #0
    e5c4:	1afffff0 	bne	e58c <__cxa_finalize+0x40>
    e5c8:	e5983000 	ldr	r3, [r8]
    e5cc:	e2433001 	sub	r3, r3, #1
    e5d0:	e3530000 	cmp	r3, #0
    e5d4:	e5883000 	str	r3, [r8]
    e5d8:	18bd87f0 	popne	{r4, r5, r6, r7, r8, r9, sl, pc}
    e5dc:	e5990000 	ldr	r0, [r9]
    e5e0:	e3500000 	cmp	r0, #0
    e5e4:	0a000003 	beq	e5f8 <__cxa_finalize+0xac>
    e5e8:	e5904000 	ldr	r4, [r0]
    e5ec:	eb00066c 	bl	ffa4 <free>
    e5f0:	e2540000 	subs	r0, r4, #0
    e5f4:	1afffffb 	bne	e5e8 <__cxa_finalize+0x9c>
    e5f8:	e3a03000 	mov	r3, #0
    e5fc:	e5893000 	str	r3, [r9]
    e600:	e8bd87f0 	pop	{r4, r5, r6, r7, r8, r9, sl, pc}

0000e604 <sbrk>:
    e604:	e92d4070 	push	{r4, r5, r6, lr}
    e608:	e30460a8 	movw	r6, #16552	; 0x40a8
    e60c:	e3406001 	movt	r6, #1
    e610:	e1a04000 	mov	r4, r0
    e614:	e5960000 	ldr	r0, [r6]
    e618:	e3500000 	cmp	r0, #0
    e61c:	0a00000b 	beq	e650 <sbrk+0x4c>
    e620:	e280001f 	add	r0, r0, #31
    e624:	e284401f 	add	r4, r4, #31
    e628:	e3c0501f 	bic	r5, r0, #31
    e62c:	e3c4401f 	bic	r4, r4, #31
    e630:	e0854004 	add	r4, r5, r4
    e634:	e1a00004 	mov	r0, r4
    e638:	eb0008c8 	bl	10960 <brk>
    e63c:	e1540000 	cmp	r4, r0
    e640:	83e05000 	mvnhi	r5, #0
    e644:	95860000 	strls	r0, [r6]
    e648:	e1a00005 	mov	r0, r5
    e64c:	e8bd8070 	pop	{r4, r5, r6, pc}
    e650:	eb0008c2 	bl	10960 <brk>
    e654:	e5860000 	str	r0, [r6]
    e658:	eafffff0 	b	e620 <sbrk+0x1c>

0000e65c <init_mparams.part.2>:
    e65c:	e52de004 	push	{lr}		; (str lr, [sp, #-4]!)
    e660:	e3052550 	movw	r2, #21840	; 0x5550
    e664:	e24dd00c 	sub	sp, sp, #12
    e668:	e3452555 	movt	r2, #21845	; 0x5555
    e66c:	e1a0100d 	mov	r1, sp
    e670:	e3043284 	movw	r3, #17028	; 0x4284
    e674:	e0222001 	eor	r2, r2, r1
    e678:	e3403001 	movt	r3, #1
    e67c:	e3822008 	orr	r2, r2, #8
    e680:	e30410ac 	movw	r1, #16556	; 0x40ac
    e684:	e3a00a01 	mov	r0, #4096	; 0x1000
    e688:	e3e0e000 	mvn	lr, #0
    e68c:	e3a0c602 	mov	ip, #2097152	; 0x200000
    e690:	e3401001 	movt	r1, #1
    e694:	e5832000 	str	r2, [r3]
    e698:	e3a02000 	mov	r2, #0
    e69c:	e583e00c 	str	lr, [r3, #12]
    e6a0:	e583c010 	str	ip, [r3, #16]
    e6a4:	e5830008 	str	r0, [r3, #8]
    e6a8:	e5830004 	str	r0, [r3, #4]
    e6ac:	e5832014 	str	r2, [r3, #20]
    e6b0:	e58121bc 	str	r2, [r1, #444]	; 0x1bc
    e6b4:	e28dd00c 	add	sp, sp, #12
    e6b8:	e49df004 	pop	{pc}		; (ldr pc, [sp], #4)

0000e6bc <sys_trim.constprop.7>:
    e6bc:	e92d41f0 	push	{r4, r5, r6, r7, r8, lr}
    e6c0:	e3045284 	movw	r5, #17028	; 0x4284
    e6c4:	e3405001 	movt	r5, #1
    e6c8:	e1a04000 	mov	r4, r0
    e6cc:	e5953000 	ldr	r3, [r5]
    e6d0:	e3530000 	cmp	r3, #0
    e6d4:	0a000030 	beq	e79c <sys_trim.constprop.7+0xe0>
    e6d8:	e3740041 	cmn	r4, #65	; 0x41
    e6dc:	8a00002c 	bhi	e794 <sys_trim.constprop.7+0xd8>
    e6e0:	e30460ac 	movw	r6, #16556	; 0x40ac
    e6e4:	e3406001 	movt	r6, #1
    e6e8:	e5962018 	ldr	r2, [r6, #24]
    e6ec:	e3520000 	cmp	r2, #0
    e6f0:	0a000027 	beq	e794 <sys_trim.constprop.7+0xd8>
    e6f4:	e596100c 	ldr	r1, [r6, #12]
    e6f8:	e2840028 	add	r0, r4, #40	; 0x28
    e6fc:	e1500001 	cmp	r0, r1
    e700:	2a000020 	bcs	e788 <sys_trim.constprop.7+0xcc>
    e704:	e2864d07 	add	r4, r6, #448	; 0x1c0
    e708:	e5943000 	ldr	r3, [r4]
    e70c:	e1520003 	cmp	r2, r3
    e710:	3a000003 	bcc	e724 <sys_trim.constprop.7+0x68>
    e714:	e594c004 	ldr	ip, [r4, #4]
    e718:	e083300c 	add	r3, r3, ip
    e71c:	e1520003 	cmp	r2, r3
    e720:	3a000004 	bcc	e738 <sys_trim.constprop.7+0x7c>
    e724:	e5944008 	ldr	r4, [r4, #8]
    e728:	e3540000 	cmp	r4, #0
    e72c:	1afffff5 	bne	e708 <sys_trim.constprop.7+0x4c>
    e730:	e594300c 	ldr	r3, [r4, #12]
    e734:	e7f000f0 	udf	#0
    e738:	e594300c 	ldr	r3, [r4, #12]
    e73c:	e3130008 	tst	r3, #8
    e740:	1a000010 	bne	e788 <sys_trim.constprop.7+0xcc>
    e744:	e5953008 	ldr	r3, [r5, #8]
    e748:	e0817003 	add	r7, r1, r3
    e74c:	e2477001 	sub	r7, r7, #1
    e750:	e0477000 	sub	r7, r7, r0
    e754:	e737f317 	udiv	r7, r7, r3
    e758:	e2477001 	sub	r7, r7, #1
    e75c:	e3a00000 	mov	r0, #0
    e760:	e0070793 	mul	r7, r3, r7
    e764:	e377010a 	cmn	r7, #-2147483646	; 0x80000002
    e768:	82637102 	rsbhi	r7, r3, #-2147483648	; 0x80000000
    e76c:	ebffffa4 	bl	e604 <sbrk>
    e770:	e1c420d0 	ldrd	r2, [r4]
    e774:	e1a08000 	mov	r8, r0
    e778:	e0833002 	add	r3, r3, r2
    e77c:	e1500003 	cmp	r0, r3
    e780:	0a00000b 	beq	e7b4 <sys_trim.constprop.7+0xf8>
    e784:	e596100c 	ldr	r1, [r6, #12]
    e788:	e596301c 	ldr	r3, [r6, #28]
    e78c:	e1530001 	cmp	r3, r1
    e790:	3a000003 	bcc	e7a4 <sys_trim.constprop.7+0xe8>
    e794:	e3a00000 	mov	r0, #0
    e798:	e8bd81f0 	pop	{r4, r5, r6, r7, r8, pc}
    e79c:	ebffffae 	bl	e65c <init_mparams.part.2>
    e7a0:	eaffffcc 	b	e6d8 <sys_trim.constprop.7+0x1c>
    e7a4:	e3e03000 	mvn	r3, #0
    e7a8:	e3a00000 	mov	r0, #0
    e7ac:	e586301c 	str	r3, [r6, #28]
    e7b0:	e8bd81f0 	pop	{r4, r5, r6, r7, r8, pc}
    e7b4:	e2670000 	rsb	r0, r7, #0
    e7b8:	ebffff91 	bl	e604 <sbrk>
    e7bc:	e1a07000 	mov	r7, r0
    e7c0:	e3a00000 	mov	r0, #0
    e7c4:	ebffff8e 	bl	e604 <sbrk>
    e7c8:	e3770001 	cmn	r7, #1
    e7cc:	11580000 	cmpne	r8, r0
    e7d0:	9affffeb 	bls	e784 <sys_trim.constprop.7+0xc8>
    e7d4:	e0588000 	subs	r8, r8, r0
    e7d8:	0affffe9 	beq	e784 <sys_trim.constprop.7+0xc8>
    e7dc:	e5962018 	ldr	r2, [r6, #24]
    e7e0:	e3a0e028 	mov	lr, #40	; 0x28
    e7e4:	e594c004 	ldr	ip, [r4, #4]
    e7e8:	e596100c 	ldr	r1, [r6, #12]
    e7ec:	e2823008 	add	r3, r2, #8
    e7f0:	e59601b0 	ldr	r0, [r6, #432]	; 0x1b0
    e7f4:	e3130007 	tst	r3, #7
    e7f8:	e04cc008 	sub	ip, ip, r8
    e7fc:	12633000 	rsbne	r3, r3, #0
    e800:	e584c004 	str	ip, [r4, #4]
    e804:	12033007 	andne	r3, r3, #7
    e808:	e0400008 	sub	r0, r0, r8
    e80c:	e595c010 	ldr	ip, [r5, #16]
    e810:	e0418008 	sub	r8, r1, r8
    e814:	01a03008 	moveq	r3, r8
    e818:	10821003 	addne	r1, r2, r3
    e81c:	10483003 	subne	r3, r8, r3
    e820:	01a01002 	moveq	r1, r2
    e824:	e3834001 	orr	r4, r3, #1
    e828:	e0822008 	add	r2, r2, r8
    e82c:	e58601b0 	str	r0, [r6, #432]	; 0x1b0
    e830:	e3a00001 	mov	r0, #1
    e834:	e5861018 	str	r1, [r6, #24]
    e838:	e586300c 	str	r3, [r6, #12]
    e83c:	e5814004 	str	r4, [r1, #4]
    e840:	e582e004 	str	lr, [r2, #4]
    e844:	e586c01c 	str	ip, [r6, #28]
    e848:	e8bd81f0 	pop	{r4, r5, r6, r7, r8, pc}

0000e84c <malloc>:
    e84c:	e35000f4 	cmp	r0, #244	; 0xf4
    e850:	e92d4ff0 	push	{r4, r5, r6, r7, r8, r9, sl, fp, lr}
    e854:	e24dd00c 	sub	sp, sp, #12
    e858:	8a00002d 	bhi	e914 <malloc+0xc8>
    e85c:	e30460ac 	movw	r6, #16556	; 0x40ac
    e860:	e350000a 	cmp	r0, #10
    e864:	e3406001 	movt	r6, #1
    e868:	8280400b 	addhi	r4, r0, #11
    e86c:	e596c000 	ldr	ip, [r6]
    e870:	83c44007 	bichi	r4, r4, #7
    e874:	81a021a4 	lsrhi	r2, r4, #3
    e878:	93a02002 	movls	r2, #2
    e87c:	93a04010 	movls	r4, #16
    e880:	e1a0323c 	lsr	r3, ip, r2
    e884:	e3130003 	tst	r3, #3
    e888:	0a00004a 	beq	e9b8 <malloc+0x16c>
    e88c:	e1e03003 	mvn	r3, r3
    e890:	e2033001 	and	r3, r3, #1
    e894:	e0833002 	add	r3, r3, r2
    e898:	e0861183 	add	r1, r6, r3, lsl #3
    e89c:	e2811028 	add	r1, r1, #40	; 0x28
    e8a0:	e5910008 	ldr	r0, [r1, #8]
    e8a4:	e5902004 	ldr	r2, [r0, #4]
    e8a8:	e3c22007 	bic	r2, r2, #7
    e8ac:	e1520183 	cmp	r2, r3, lsl #3
    e8b0:	1a0001c0 	bne	efb8 <malloc+0x76c>
    e8b4:	e1510000 	cmp	r1, r0
    e8b8:	e590e008 	ldr	lr, [r0, #8]
    e8bc:	0a0001bd 	beq	efb8 <malloc+0x76c>
    e8c0:	e150000e 	cmp	r0, lr
    e8c4:	0a0001bb 	beq	efb8 <malloc+0x76c>
    e8c8:	e151000e 	cmp	r1, lr
    e8cc:	0a00017d 	beq	eec8 <malloc+0x67c>
    e8d0:	e5963010 	ldr	r3, [r6, #16]
    e8d4:	e153000e 	cmp	r3, lr
    e8d8:	8a0001b6 	bhi	efb8 <malloc+0x76c>
    e8dc:	e59e300c 	ldr	r3, [lr, #12]
    e8e0:	e1530000 	cmp	r3, r0
    e8e4:	1a0001b3 	bne	efb8 <malloc+0x76c>
    e8e8:	e58e100c 	str	r1, [lr, #12]
    e8ec:	e581e008 	str	lr, [r1, #8]
    e8f0:	e3823003 	orr	r3, r2, #3
    e8f4:	e0802002 	add	r2, r0, r2
    e8f8:	e5803004 	str	r3, [r0, #4]
    e8fc:	e2800008 	add	r0, r0, #8
    e900:	e5923004 	ldr	r3, [r2, #4]
    e904:	e3833001 	orr	r3, r3, #1
    e908:	e5823004 	str	r3, [r2, #4]
    e90c:	e28dd00c 	add	sp, sp, #12
    e910:	e8bd8ff0 	pop	{r4, r5, r6, r7, r8, r9, sl, fp, pc}
    e914:	e30460ac 	movw	r6, #16556	; 0x40ac
    e918:	e3700041 	cmn	r0, #65	; 0x41
    e91c:	e3406001 	movt	r6, #1
    e920:	e5961008 	ldr	r1, [r6, #8]
    e924:	9a00000d 	bls	e960 <malloc+0x114>
    e928:	e3710001 	cmn	r1, #1
    e92c:	1a000086 	bne	eb4c <malloc+0x300>
    e930:	e5960014 	ldr	r0, [r6, #20]
    e934:	e2402001 	sub	r2, r0, #1
    e938:	e3a03000 	mov	r3, #0
    e93c:	e5863008 	str	r3, [r6, #8]
    e940:	e5863014 	str	r3, [r6, #20]
    e944:	e5801004 	str	r1, [r0, #4]
    e948:	e5923004 	ldr	r3, [r2, #4]
    e94c:	e3833001 	orr	r3, r3, #1
    e950:	e5823004 	str	r3, [r2, #4]
    e954:	e2800008 	add	r0, r0, #8
    e958:	e28dd00c 	add	sp, sp, #12
    e95c:	e8bd8ff0 	pop	{r4, r5, r6, r7, r8, r9, sl, fp, pc}
    e960:	e596c004 	ldr	ip, [r6, #4]
    e964:	e280400b 	add	r4, r0, #11
    e968:	e3c44007 	bic	r4, r4, #7
    e96c:	e35c0000 	cmp	ip, #0
    e970:	1a0000d3 	bne	ecc4 <malloc+0x478>
    e974:	e1540001 	cmp	r4, r1
    e978:	9a000065 	bls	eb14 <malloc+0x2c8>
    e97c:	e596300c 	ldr	r3, [r6, #12]
    e980:	e1530004 	cmp	r3, r4
    e984:	9a000580 	bls	ff8c <malloc+0x1740>
    e988:	e5962018 	ldr	r2, [r6, #24]
    e98c:	e0433004 	sub	r3, r3, r4
    e990:	e3841003 	orr	r1, r4, #3
    e994:	e383c001 	orr	ip, r3, #1
    e998:	e586300c 	str	r3, [r6, #12]
    e99c:	e0824004 	add	r4, r2, r4
    e9a0:	e2820008 	add	r0, r2, #8
    e9a4:	e5864018 	str	r4, [r6, #24]
    e9a8:	e584c004 	str	ip, [r4, #4]
    e9ac:	e5821004 	str	r1, [r2, #4]
    e9b0:	e28dd00c 	add	sp, sp, #12
    e9b4:	e8bd8ff0 	pop	{r4, r5, r6, r7, r8, r9, sl, fp, pc}
    e9b8:	e5961008 	ldr	r1, [r6, #8]
    e9bc:	e1510004 	cmp	r1, r4
    e9c0:	2a000053 	bcs	eb14 <malloc+0x2c8>
    e9c4:	e3530000 	cmp	r3, #0
    e9c8:	0a00017c 	beq	efc0 <malloc+0x774>
    e9cc:	e3a0e001 	mov	lr, #1
    e9d0:	e1a0021e 	lsl	r0, lr, r2
    e9d4:	e1a05e10 	lsl	r5, r0, lr
    e9d8:	e2650000 	rsb	r0, r5, #0
    e9dc:	e1800005 	orr	r0, r0, r5
    e9e0:	e0002213 	and	r2, r0, r3, lsl r2
    e9e4:	e2623000 	rsb	r3, r2, #0
    e9e8:	e0033002 	and	r3, r3, r2
    e9ec:	e2433001 	sub	r3, r3, #1
    e9f0:	e1a02623 	lsr	r2, r3, #12
    e9f4:	e2022010 	and	r2, r2, #16
    e9f8:	e1a03233 	lsr	r3, r3, r2
    e9fc:	e1a002a3 	lsr	r0, r3, #5
    ea00:	e2000008 	and	r0, r0, #8
    ea04:	e1a03033 	lsr	r3, r3, r0
    ea08:	e1822000 	orr	r2, r2, r0
    ea0c:	e1a00123 	lsr	r0, r3, #2
    ea10:	e2000004 	and	r0, r0, #4
    ea14:	e1a03033 	lsr	r3, r3, r0
    ea18:	e0822000 	add	r2, r2, r0
    ea1c:	e1a00e33 	lsr	r0, r3, lr
    ea20:	e2000002 	and	r0, r0, #2
    ea24:	e1a03033 	lsr	r3, r3, r0
    ea28:	e0822000 	add	r2, r2, r0
    ea2c:	e7e000d3 	ubfx	r0, r3, #1, #1
    ea30:	e0822000 	add	r2, r2, r0
    ea34:	e0823033 	add	r3, r2, r3, lsr r0
    ea38:	e0862183 	add	r2, r6, r3, lsl #3
    ea3c:	e2822028 	add	r2, r2, #40	; 0x28
    ea40:	e5920008 	ldr	r0, [r2, #8]
    ea44:	e5907004 	ldr	r7, [r0, #4]
    ea48:	e3c77007 	bic	r7, r7, #7
    ea4c:	e1570183 	cmp	r7, r3, lsl #3
    ea50:	1a000158 	bne	efb8 <malloc+0x76c>
    ea54:	e1520000 	cmp	r2, r0
    ea58:	e5905008 	ldr	r5, [r0, #8]
    ea5c:	0a000155 	beq	efb8 <malloc+0x76c>
    ea60:	e1500005 	cmp	r0, r5
    ea64:	0a000153 	beq	efb8 <malloc+0x76c>
    ea68:	e1520005 	cmp	r2, r5
    ea6c:	01cc331e 	biceq	r3, ip, lr, lsl r3
    ea70:	05863000 	streq	r3, [r6]
    ea74:	0a000007 	beq	ea98 <malloc+0x24c>
    ea78:	e5963010 	ldr	r3, [r6, #16]
    ea7c:	e1530005 	cmp	r3, r5
    ea80:	8a00014c 	bhi	efb8 <malloc+0x76c>
    ea84:	e595300c 	ldr	r3, [r5, #12]
    ea88:	e1530000 	cmp	r3, r0
    ea8c:	1a000149 	bne	efb8 <malloc+0x76c>
    ea90:	e585200c 	str	r2, [r5, #12]
    ea94:	e5825008 	str	r5, [r2, #8]
    ea98:	e047c004 	sub	ip, r7, r4
    ea9c:	e3510000 	cmp	r1, #0
    eaa0:	e3842003 	orr	r2, r4, #3
    eaa4:	e38c3001 	orr	r3, ip, #1
    eaa8:	e0804004 	add	r4, r0, r4
    eaac:	e5802004 	str	r2, [r0, #4]
    eab0:	e1a0e1a1 	lsr	lr, r1, #3
    eab4:	e5843004 	str	r3, [r4, #4]
    eab8:	e780c007 	str	ip, [r0, r7]
    eabc:	0a000010 	beq	eb04 <malloc+0x2b8>
    eac0:	e086318e 	add	r3, r6, lr, lsl #3
    eac4:	e351000f 	cmp	r1, #15
    eac8:	e5962014 	ldr	r2, [r6, #20]
    eacc:	e2833028 	add	r3, r3, #40	; 0x28
    ead0:	9a000138 	bls	efb8 <malloc+0x76c>
    ead4:	e3a01001 	mov	r1, #1
    ead8:	e5965000 	ldr	r5, [r6]
    eadc:	e1a01e11 	lsl	r1, r1, lr
    eae0:	e1150001 	tst	r5, r1
    eae4:	1a000367 	bne	f888 <malloc+0x103c>
    eae8:	e1a0e003 	mov	lr, r3
    eaec:	e1851001 	orr	r1, r5, r1
    eaf0:	e5861000 	str	r1, [r6]
    eaf4:	e5832008 	str	r2, [r3, #8]
    eaf8:	e58e200c 	str	r2, [lr, #12]
    eafc:	e582e008 	str	lr, [r2, #8]
    eb00:	e582300c 	str	r3, [r2, #12]
    eb04:	e586c008 	str	ip, [r6, #8]
    eb08:	e2800008 	add	r0, r0, #8
    eb0c:	e5864014 	str	r4, [r6, #20]
    eb10:	eaffff7d 	b	e90c <malloc+0xc0>
    eb14:	e0413004 	sub	r3, r1, r4
    eb18:	e5960014 	ldr	r0, [r6, #20]
    eb1c:	e353000f 	cmp	r3, #15
    eb20:	e0802001 	add	r2, r0, r1
    eb24:	9a00035c 	bls	f89c <malloc+0x1050>
    eb28:	e0802004 	add	r2, r0, r4
    eb2c:	e383c001 	orr	ip, r3, #1
    eb30:	e3844003 	orr	r4, r4, #3
    eb34:	e5863008 	str	r3, [r6, #8]
    eb38:	e5862014 	str	r2, [r6, #20]
    eb3c:	e582c004 	str	ip, [r2, #4]
    eb40:	e7803001 	str	r3, [r0, r1]
    eb44:	e5804004 	str	r4, [r0, #4]
    eb48:	eaffff81 	b	e954 <malloc+0x108>
    eb4c:	e3048284 	movw	r8, #17028	; 0x4284
    eb50:	e3408001 	movt	r8, #1
    eb54:	e5983000 	ldr	r3, [r8]
    eb58:	e3530000 	cmp	r3, #0
    eb5c:	1a00010d 	bne	ef98 <malloc+0x74c>
    eb60:	e3e04000 	mvn	r4, #0
    eb64:	ebfffebc 	bl	e65c <init_mparams.part.2>
    eb68:	e5987008 	ldr	r7, [r8, #8]
    eb6c:	e287c02f 	add	ip, r7, #47	; 0x2f
    eb70:	e2670000 	rsb	r0, r7, #0
    eb74:	e084a00c 	add	sl, r4, ip
    eb78:	e00aa000 	and	sl, sl, r0
    eb7c:	e15a0004 	cmp	sl, r4
    eb80:	9a000104 	bls	ef98 <malloc+0x74c>
    eb84:	e59621b8 	ldr	r2, [r6, #440]	; 0x1b8
    eb88:	e3520000 	cmp	r2, #0
    eb8c:	0a000008 	beq	ebb4 <malloc+0x368>
    eb90:	e59631b0 	ldr	r3, [r6, #432]	; 0x1b0
    eb94:	e08a1003 	add	r1, sl, r3
    eb98:	e1530001 	cmp	r3, r1
    eb9c:	33a03000 	movcc	r3, #0
    eba0:	23a03001 	movcs	r3, #1
    eba4:	e1520001 	cmp	r2, r1
    eba8:	33833001 	orrcc	r3, r3, #1
    ebac:	e3530000 	cmp	r3, #0
    ebb0:	1a0000f8 	bne	ef98 <malloc+0x74c>
    ebb4:	e596e1bc 	ldr	lr, [r6, #444]	; 0x1bc
    ebb8:	e31e0004 	tst	lr, #4
    ebbc:	0a0000c5 	beq	eed8 <malloc+0x68c>
    ebc0:	e37a010a 	cmn	sl, #-2147483646	; 0x80000002
    ebc4:	8a0000f3 	bhi	ef98 <malloc+0x74c>
    ebc8:	e1a0000a 	mov	r0, sl
    ebcc:	ebfffe8c 	bl	e604 <sbrk>
    ebd0:	e1a05000 	mov	r5, r0
    ebd4:	e3a00000 	mov	r0, #0
    ebd8:	ebfffe89 	bl	e604 <sbrk>
    ebdc:	e3700001 	cmn	r0, #1
    ebe0:	13750001 	cmnne	r5, #1
    ebe4:	13a03001 	movne	r3, #1
    ebe8:	03a03000 	moveq	r3, #0
    ebec:	e1550000 	cmp	r5, r0
    ebf0:	23a03000 	movcs	r3, #0
    ebf4:	32033001 	andcc	r3, r3, #1
    ebf8:	e3530000 	cmp	r3, #0
    ebfc:	0a0000e5 	beq	ef98 <malloc+0x74c>
    ec00:	e0407005 	sub	r7, r0, r5
    ec04:	e2843028 	add	r3, r4, #40	; 0x28
    ec08:	e1570003 	cmp	r7, r3
    ec0c:	9a0000e1 	bls	ef98 <malloc+0x74c>
    ec10:	e3750001 	cmn	r5, #1
    ec14:	0a0000df 	beq	ef98 <malloc+0x74c>
    ec18:	e59631b0 	ldr	r3, [r6, #432]	; 0x1b0
    ec1c:	e59621b4 	ldr	r2, [r6, #436]	; 0x1b4
    ec20:	e596e018 	ldr	lr, [r6, #24]
    ec24:	e0873003 	add	r3, r7, r3
    ec28:	e1530002 	cmp	r3, r2
    ec2c:	e58631b0 	str	r3, [r6, #432]	; 0x1b0
    ec30:	858631b4 	strhi	r3, [r6, #436]	; 0x1b4
    ec34:	e35e0000 	cmp	lr, #0
    ec38:	159f2fe0 	ldrne	r2, [pc, #4064]	; fc20 <malloc+0x13d4>
    ec3c:	11a03002 	movne	r3, r2
    ec40:	0a000264 	beq	f5d8 <malloc+0xd8c>
    ec44:	e5931000 	ldr	r1, [r3]
    ec48:	e5930004 	ldr	r0, [r3, #4]
    ec4c:	e081c000 	add	ip, r1, r0
    ec50:	e15c0005 	cmp	ip, r5
    ec54:	0a0001a1 	beq	f2e0 <malloc+0xa94>
    ec58:	e5933008 	ldr	r3, [r3, #8]
    ec5c:	e3530000 	cmp	r3, #0
    ec60:	1afffff7 	bne	ec44 <malloc+0x3f8>
    ec64:	e5963010 	ldr	r3, [r6, #16]
    ec68:	e0850007 	add	r0, r5, r7
    ec6c:	e1530005 	cmp	r3, r5
    ec70:	e59f3fa8 	ldr	r3, [pc, #4008]	; fc20 <malloc+0x13d4>
    ec74:	85865010 	strhi	r5, [r6, #16]
    ec78:	e5931000 	ldr	r1, [r3]
    ec7c:	e1510000 	cmp	r1, r0
    ec80:	0a000159 	beq	f1ec <malloc+0x9a0>
    ec84:	e5933008 	ldr	r3, [r3, #8]
    ec88:	e3530000 	cmp	r3, #0
    ec8c:	1afffff9 	bne	ec78 <malloc+0x42c>
    ec90:	e59f3f88 	ldr	r3, [pc, #3976]	; fc20 <malloc+0x13d4>
    ec94:	e5931000 	ldr	r1, [r3]
    ec98:	e15e0001 	cmp	lr, r1
    ec9c:	3a000003 	bcc	ecb0 <malloc+0x464>
    eca0:	e5930004 	ldr	r0, [r3, #4]
    eca4:	e0811000 	add	r1, r1, r0
    eca8:	e15e0001 	cmp	lr, r1
    ecac:	3a0001aa 	bcc	f35c <malloc+0xb10>
    ecb0:	e5933008 	ldr	r3, [r3, #8]
    ecb4:	e3530000 	cmp	r3, #0
    ecb8:	1afffff5 	bne	ec94 <malloc+0x448>
    ecbc:	e5933000 	ldr	r3, [r3]
    ecc0:	e7f000f0 	udf	#0
    ecc4:	e1b08424 	lsrs	r8, r4, #8
    ecc8:	e2647000 	rsb	r7, r4, #0
    eccc:	1a00013e 	bne	f1cc <malloc+0x980>
    ecd0:	e5963130 	ldr	r3, [r6, #304]	; 0x130
    ecd4:	e3530000 	cmp	r3, #0
    ecd8:	01a09007 	moveq	r9, r7
    ecdc:	03e08001 	mvneq	r8, #1
    ece0:	0a0001f6 	beq	f4c0 <malloc+0xc74>
    ece4:	e3a0e019 	mov	lr, #25
    ece8:	e1a0ee14 	lsl	lr, r4, lr
    ecec:	e3a05000 	mov	r5, #0
    ecf0:	e1a00005 	mov	r0, r5
    ecf4:	ea000000 	b	ecfc <malloc+0x4b0>
    ecf8:	e1a0e08e 	lsl	lr, lr, #1
    ecfc:	e5939004 	ldr	r9, [r3, #4]
    ed00:	e3c99007 	bic	r9, r9, #7
    ed04:	e0499004 	sub	r9, r9, r4
    ed08:	e1590007 	cmp	r9, r7
    ed0c:	2a000003 	bcs	ed20 <malloc+0x4d4>
    ed10:	e3590000 	cmp	r9, #0
    ed14:	0a000270 	beq	f6dc <malloc+0xe90>
    ed18:	e1a07009 	mov	r7, r9
    ed1c:	e1a00003 	mov	r0, r3
    ed20:	e1a02fae 	lsr	r2, lr, #31
    ed24:	e5939014 	ldr	r9, [r3, #20]
    ed28:	e2822004 	add	r2, r2, #4
    ed2c:	e7933102 	ldr	r3, [r3, r2, lsl #2]
    ed30:	e3590000 	cmp	r9, #0
    ed34:	11590003 	cmpne	r9, r3
    ed38:	11a05009 	movne	r5, r9
    ed3c:	e3530000 	cmp	r3, #0
    ed40:	1affffec 	bne	ecf8 <malloc+0x4ac>
    ed44:	e3550000 	cmp	r5, #0
    ed48:	03500000 	cmpeq	r0, #0
    ed4c:	0a0001d8 	beq	f4b4 <malloc+0xc68>
    ed50:	e3550000 	cmp	r5, #0
    ed54:	e1a09007 	mov	r9, r7
    ed58:	11a03005 	movne	r3, r5
    ed5c:	1a000001 	bne	ed68 <malloc+0x51c>
    ed60:	ea00000c 	b	ed98 <malloc+0x54c>
    ed64:	e1a0300e 	mov	r3, lr
    ed68:	e5932004 	ldr	r2, [r3, #4]
    ed6c:	e593e010 	ldr	lr, [r3, #16]
    ed70:	e3c22007 	bic	r2, r2, #7
    ed74:	e0422004 	sub	r2, r2, r4
    ed78:	e1520009 	cmp	r2, r9
    ed7c:	31a09002 	movcc	r9, r2
    ed80:	31a00003 	movcc	r0, r3
    ed84:	e35e0000 	cmp	lr, #0
    ed88:	1afffff5 	bne	ed64 <malloc+0x518>
    ed8c:	e593e014 	ldr	lr, [r3, #20]
    ed90:	e35e0000 	cmp	lr, #0
    ed94:	1afffff2 	bne	ed64 <malloc+0x518>
    ed98:	e3500000 	cmp	r0, #0
    ed9c:	0afffef4 	beq	e974 <malloc+0x128>
    eda0:	e0413004 	sub	r3, r1, r4
    eda4:	e1530009 	cmp	r3, r9
    eda8:	9afffef1 	bls	e974 <malloc+0x128>
    edac:	e5965010 	ldr	r5, [r6, #16]
    edb0:	e1550000 	cmp	r5, r0
    edb4:	8a00007f 	bhi	efb8 <malloc+0x76c>
    edb8:	e590e004 	ldr	lr, [r0, #4]
    edbc:	e0843009 	add	r3, r4, r9
    edc0:	e0807004 	add	r7, r0, r4
    edc4:	e3cee007 	bic	lr, lr, #7
    edc8:	e15e0003 	cmp	lr, r3
    edcc:	1a000079 	bne	efb8 <malloc+0x76c>
    edd0:	e1570000 	cmp	r7, r0
    edd4:	9a000077 	bls	efb8 <malloc+0x76c>
    edd8:	e590200c 	ldr	r2, [r0, #12]
    eddc:	e5908018 	ldr	r8, [r0, #24]
    ede0:	e1520000 	cmp	r2, r0
    ede4:	0a000254 	beq	f73c <malloc+0xef0>
    ede8:	e5903008 	ldr	r3, [r0, #8]
    edec:	e1550003 	cmp	r5, r3
    edf0:	8a000070 	bhi	efb8 <malloc+0x76c>
    edf4:	e593100c 	ldr	r1, [r3, #12]
    edf8:	e1510000 	cmp	r1, r0
    edfc:	1a00006d 	bne	efb8 <malloc+0x76c>
    ee00:	e5921008 	ldr	r1, [r2, #8]
    ee04:	e1510000 	cmp	r1, r0
    ee08:	1a00006a 	bne	efb8 <malloc+0x76c>
    ee0c:	e583200c 	str	r2, [r3, #12]
    ee10:	e5823008 	str	r3, [r2, #8]
    ee14:	e3580000 	cmp	r8, #0
    ee18:	0a00001e 	beq	ee98 <malloc+0x64c>
    ee1c:	e590301c 	ldr	r3, [r0, #28]
    ee20:	e283304c 	add	r3, r3, #76	; 0x4c
    ee24:	e7961103 	ldr	r1, [r6, r3, lsl #2]
    ee28:	e1510000 	cmp	r1, r0
    ee2c:	07862103 	streq	r2, [r6, r3, lsl #2]
    ee30:	0a000007 	beq	ee54 <malloc+0x608>
    ee34:	e1550008 	cmp	r5, r8
    ee38:	8a00005e 	bhi	efb8 <malloc+0x76c>
    ee3c:	e5983010 	ldr	r3, [r8, #16]
    ee40:	e1530000 	cmp	r3, r0
    ee44:	05882010 	streq	r2, [r8, #16]
    ee48:	15882014 	strne	r2, [r8, #20]
    ee4c:	e3520000 	cmp	r2, #0
    ee50:	0a000010 	beq	ee98 <malloc+0x64c>
    ee54:	e1550002 	cmp	r5, r2
    ee58:	8a000056 	bhi	efb8 <malloc+0x76c>
    ee5c:	e5903010 	ldr	r3, [r0, #16]
    ee60:	e5828018 	str	r8, [r2, #24]
    ee64:	e3530000 	cmp	r3, #0
    ee68:	0a000003 	beq	ee7c <malloc+0x630>
    ee6c:	e1550003 	cmp	r5, r3
    ee70:	8a000050 	bhi	efb8 <malloc+0x76c>
    ee74:	e5823010 	str	r3, [r2, #16]
    ee78:	e5832018 	str	r2, [r3, #24]
    ee7c:	e5903014 	ldr	r3, [r0, #20]
    ee80:	e3530000 	cmp	r3, #0
    ee84:	0a000003 	beq	ee98 <malloc+0x64c>
    ee88:	e1550003 	cmp	r5, r3
    ee8c:	8a000049 	bhi	efb8 <malloc+0x76c>
    ee90:	e5823014 	str	r3, [r2, #20]
    ee94:	e5832018 	str	r2, [r3, #24]
    ee98:	e359000f 	cmp	r9, #15
    ee9c:	8a000210 	bhi	f6e4 <malloc+0xe98>
    eea0:	e080200e 	add	r2, r0, lr
    eea4:	e38ee003 	orr	lr, lr, #3
    eea8:	e5923004 	ldr	r3, [r2, #4]
    eeac:	e580e004 	str	lr, [r0, #4]
    eeb0:	e3833001 	orr	r3, r3, #1
    eeb4:	e5823004 	str	r3, [r2, #4]
    eeb8:	e2900008 	adds	r0, r0, #8
    eebc:	1afffe92 	bne	e90c <malloc+0xc0>
    eec0:	e5961008 	ldr	r1, [r6, #8]
    eec4:	eafffeaa 	b	e974 <malloc+0x128>
    eec8:	e3a01001 	mov	r1, #1
    eecc:	e1cc3311 	bic	r3, ip, r1, lsl r3
    eed0:	e5863000 	str	r3, [r6]
    eed4:	eafffe85 	b	e8f0 <malloc+0xa4>
    eed8:	e5961018 	ldr	r1, [r6, #24]
    eedc:	e3510000 	cmp	r1, #0
    eee0:	0a00000a 	beq	ef10 <malloc+0x6c4>
    eee4:	e59f9d34 	ldr	r9, [pc, #3380]	; fc20 <malloc+0x13d4>
    eee8:	e5993000 	ldr	r3, [r9]
    eeec:	e1510003 	cmp	r1, r3
    eef0:	3a000003 	bcc	ef04 <malloc+0x6b8>
    eef4:	e5992004 	ldr	r2, [r9, #4]
    eef8:	e0833002 	add	r3, r3, r2
    eefc:	e1510003 	cmp	r1, r3
    ef00:	3a00018b 	bcc	f534 <malloc+0xce8>
    ef04:	e5999008 	ldr	r9, [r9, #8]
    ef08:	e3590000 	cmp	r9, #0
    ef0c:	1afffff5 	bne	eee8 <malloc+0x69c>
    ef10:	e3a00000 	mov	r0, #0
    ef14:	ebfffdba 	bl	e604 <sbrk>
    ef18:	e3700001 	cmn	r0, #1
    ef1c:	e1a09000 	mov	r9, r0
    ef20:	0a000017 	beq	ef84 <malloc+0x738>
    ef24:	e5982004 	ldr	r2, [r8, #4]
    ef28:	e2423001 	sub	r3, r2, #1
    ef2c:	e1100003 	tst	r0, r3
    ef30:	10837000 	addne	r7, r3, r0
    ef34:	12622000 	rsbne	r2, r2, #0
    ef38:	104a3000 	subne	r3, sl, r0
    ef3c:	10077002 	andne	r7, r7, r2
    ef40:	10877003 	addne	r7, r7, r3
    ef44:	01a0700a 	moveq	r7, sl
    ef48:	e1570004 	cmp	r7, r4
    ef4c:	83a03001 	movhi	r3, #1
    ef50:	93a03000 	movls	r3, #0
    ef54:	e377010a 	cmn	r7, #-2147483646	; 0x80000002
    ef58:	83a03000 	movhi	r3, #0
    ef5c:	e3530000 	cmp	r3, #0
    ef60:	0a000007 	beq	ef84 <malloc+0x738>
    ef64:	e59631b8 	ldr	r3, [r6, #440]	; 0x1b8
    ef68:	e59621b0 	ldr	r2, [r6, #432]	; 0x1b0
    ef6c:	e3530000 	cmp	r3, #0
    ef70:	0a000324 	beq	fc08 <malloc+0x13bc>
    ef74:	e0821007 	add	r1, r2, r7
    ef78:	e1510003 	cmp	r1, r3
    ef7c:	91520001 	cmpls	r2, r1
    ef80:	3a000320 	bcc	fc08 <malloc+0x13bc>
    ef84:	e596e1bc 	ldr	lr, [r6, #444]	; 0x1bc
    ef88:	e37a010a 	cmn	sl, #-2147483646	; 0x80000002
    ef8c:	e38ee004 	orr	lr, lr, #4
    ef90:	e586e1bc 	str	lr, [r6, #444]	; 0x1bc
    ef94:	9affff0b 	bls	ebc8 <malloc+0x37c>
    ef98:	e3a00000 	mov	r0, #0
    ef9c:	eafffe5a 	b	e90c <malloc+0xc0>
    efa0:	e5968010 	ldr	r8, [r6, #16]
    efa4:	e15c0008 	cmp	ip, r8
    efa8:	3a000002 	bcc	efb8 <malloc+0x76c>
    efac:	e59c800c 	ldr	r8, [ip, #12]
    efb0:	e1580001 	cmp	r8, r1
    efb4:	0a000331 	beq	fc80 <malloc+0x1434>
    efb8:	e3e00000 	mvn	r0, #0
    efbc:	ebffe40f 	bl	8000 <exit>
    efc0:	e5965004 	ldr	r5, [r6, #4]
    efc4:	e3550000 	cmp	r5, #0
    efc8:	0afffe6b 	beq	e97c <malloc+0x130>
    efcc:	e2653000 	rsb	r3, r5, #0
    efd0:	e0033005 	and	r3, r3, r5
    efd4:	e2433001 	sub	r3, r3, #1
    efd8:	e1a02623 	lsr	r2, r3, #12
    efdc:	e2022010 	and	r2, r2, #16
    efe0:	e1a03233 	lsr	r3, r3, r2
    efe4:	e1a002a3 	lsr	r0, r3, #5
    efe8:	e2000008 	and	r0, r0, #8
    efec:	e1a03033 	lsr	r3, r3, r0
    eff0:	e1822000 	orr	r2, r2, r0
    eff4:	e1a00123 	lsr	r0, r3, #2
    eff8:	e2000004 	and	r0, r0, #4
    effc:	e1a03033 	lsr	r3, r3, r0
    f000:	e0822000 	add	r2, r2, r0
    f004:	e1a000a3 	lsr	r0, r3, #1
    f008:	e2000002 	and	r0, r0, #2
    f00c:	e1a03033 	lsr	r3, r3, r0
    f010:	e0822000 	add	r2, r2, r0
    f014:	e7e000d3 	ubfx	r0, r3, #1, #1
    f018:	e0822000 	add	r2, r2, r0
    f01c:	e0823033 	add	r3, r2, r3, lsr r0
    f020:	e283304c 	add	r3, r3, #76	; 0x4c
    f024:	e7967103 	ldr	r7, [r6, r3, lsl #2]
    f028:	e597e004 	ldr	lr, [r7, #4]
    f02c:	e1a00007 	mov	r0, r7
    f030:	e3cee007 	bic	lr, lr, #7
    f034:	e04ee004 	sub	lr, lr, r4
    f038:	ea000006 	b	f058 <malloc+0x80c>
    f03c:	e5923004 	ldr	r3, [r2, #4]
    f040:	e1a07002 	mov	r7, r2
    f044:	e3c33007 	bic	r3, r3, #7
    f048:	e0433004 	sub	r3, r3, r4
    f04c:	e153000e 	cmp	r3, lr
    f050:	31a0e003 	movcc	lr, r3
    f054:	31a00002 	movcc	r0, r2
    f058:	e5972010 	ldr	r2, [r7, #16]
    f05c:	e3520000 	cmp	r2, #0
    f060:	1afffff5 	bne	f03c <malloc+0x7f0>
    f064:	e5972014 	ldr	r2, [r7, #20]
    f068:	e3520000 	cmp	r2, #0
    f06c:	1afffff2 	bne	f03c <malloc+0x7f0>
    f070:	e596a010 	ldr	sl, [r6, #16]
    f074:	e15a0000 	cmp	sl, r0
    f078:	8affffce 	bhi	efb8 <malloc+0x76c>
    f07c:	e5908004 	ldr	r8, [r0, #4]
    f080:	e084300e 	add	r3, r4, lr
    f084:	e0809004 	add	r9, r0, r4
    f088:	e3c88007 	bic	r8, r8, #7
    f08c:	e1580003 	cmp	r8, r3
    f090:	1affffc8 	bne	efb8 <malloc+0x76c>
    f094:	e1590000 	cmp	r9, r0
    f098:	9affffc6 	bls	efb8 <malloc+0x76c>
    f09c:	e590700c 	ldr	r7, [r0, #12]
    f0a0:	e590b018 	ldr	fp, [r0, #24]
    f0a4:	e1570000 	cmp	r7, r0
    f0a8:	0a000248 	beq	f9d0 <malloc+0x1184>
    f0ac:	e5903008 	ldr	r3, [r0, #8]
    f0b0:	e15a0003 	cmp	sl, r3
    f0b4:	8affffbf 	bhi	efb8 <malloc+0x76c>
    f0b8:	e593200c 	ldr	r2, [r3, #12]
    f0bc:	e1520000 	cmp	r2, r0
    f0c0:	1affffbc 	bne	efb8 <malloc+0x76c>
    f0c4:	e5972008 	ldr	r2, [r7, #8]
    f0c8:	e1520000 	cmp	r2, r0
    f0cc:	1affffb9 	bne	efb8 <malloc+0x76c>
    f0d0:	e583700c 	str	r7, [r3, #12]
    f0d4:	e5873008 	str	r3, [r7, #8]
    f0d8:	e35b0000 	cmp	fp, #0
    f0dc:	0a00001e 	beq	f15c <malloc+0x910>
    f0e0:	e590301c 	ldr	r3, [r0, #28]
    f0e4:	e283304c 	add	r3, r3, #76	; 0x4c
    f0e8:	e7962103 	ldr	r2, [r6, r3, lsl #2]
    f0ec:	e1520000 	cmp	r2, r0
    f0f0:	07867103 	streq	r7, [r6, r3, lsl #2]
    f0f4:	0a000007 	beq	f118 <malloc+0x8cc>
    f0f8:	e15a000b 	cmp	sl, fp
    f0fc:	8affffad 	bhi	efb8 <malloc+0x76c>
    f100:	e59b3010 	ldr	r3, [fp, #16]
    f104:	e1530000 	cmp	r3, r0
    f108:	058b7010 	streq	r7, [fp, #16]
    f10c:	158b7014 	strne	r7, [fp, #20]
    f110:	e3570000 	cmp	r7, #0
    f114:	0a000010 	beq	f15c <malloc+0x910>
    f118:	e15a0007 	cmp	sl, r7
    f11c:	8affffa5 	bhi	efb8 <malloc+0x76c>
    f120:	e5903010 	ldr	r3, [r0, #16]
    f124:	e587b018 	str	fp, [r7, #24]
    f128:	e3530000 	cmp	r3, #0
    f12c:	0a000003 	beq	f140 <malloc+0x8f4>
    f130:	e15a0003 	cmp	sl, r3
    f134:	8affff9f 	bhi	efb8 <malloc+0x76c>
    f138:	e5873010 	str	r3, [r7, #16]
    f13c:	e5837018 	str	r7, [r3, #24]
    f140:	e5903014 	ldr	r3, [r0, #20]
    f144:	e3530000 	cmp	r3, #0
    f148:	0a000003 	beq	f15c <malloc+0x910>
    f14c:	e15a0003 	cmp	sl, r3
    f150:	8affff98 	bhi	efb8 <malloc+0x76c>
    f154:	e5873014 	str	r3, [r7, #20]
    f158:	e5837018 	str	r7, [r3, #24]
    f15c:	e35e000f 	cmp	lr, #15
    f160:	9a000213 	bls	f9b4 <malloc+0x1168>
    f164:	e3510000 	cmp	r1, #0
    f168:	e3842003 	orr	r2, r4, #3
    f16c:	e38e3001 	orr	r3, lr, #1
    f170:	e5802004 	str	r2, [r0, #4]
    f174:	e5893004 	str	r3, [r9, #4]
    f178:	e789e00e 	str	lr, [r9, lr]
    f17c:	0a00000f 	beq	f1c0 <malloc+0x974>
    f180:	e1a051a1 	lsr	r5, r1, #3
    f184:	e351000f 	cmp	r1, #15
    f188:	e5961014 	ldr	r1, [r6, #20]
    f18c:	e0863185 	add	r3, r6, r5, lsl #3
    f190:	e2833028 	add	r3, r3, #40	; 0x28
    f194:	9affff87 	bls	efb8 <malloc+0x76c>
    f198:	e3a02001 	mov	r2, #1
    f19c:	e1a02512 	lsl	r2, r2, r5
    f1a0:	e11c0002 	tst	ip, r2
    f1a4:	1a0002f3 	bne	fd78 <malloc+0x152c>
    f1a8:	e18cc002 	orr	ip, ip, r2
    f1ac:	e1a02003 	mov	r2, r3
    f1b0:	e586c000 	str	ip, [r6]
    f1b4:	e5831008 	str	r1, [r3, #8]
    f1b8:	e582100c 	str	r1, [r2, #12]
    f1bc:	e1c120f8 	strd	r2, [r1, #8]
    f1c0:	e586e008 	str	lr, [r6, #8]
    f1c4:	e5869014 	str	r9, [r6, #20]
    f1c8:	eaffff3a 	b	eeb8 <malloc+0x66c>
    f1cc:	e3580801 	cmp	r8, #65536	; 0x10000
    f1d0:	3a000123 	bcc	f664 <malloc+0xe18>
    f1d4:	e59631ac 	ldr	r3, [r6, #428]	; 0x1ac
    f1d8:	e3530000 	cmp	r3, #0
    f1dc:	11a0e004 	movne	lr, r4
    f1e0:	13a0801f 	movne	r8, #31
    f1e4:	1afffec0 	bne	ecec <malloc+0x4a0>
    f1e8:	eafffde1 	b	e974 <malloc+0x128>
    f1ec:	e593000c 	ldr	r0, [r3, #12]
    f1f0:	e3100008 	tst	r0, #8
    f1f4:	1afffea5 	bne	ec90 <malloc+0x444>
    f1f8:	e5930004 	ldr	r0, [r3, #4]
    f1fc:	e2852008 	add	r2, r5, #8
    f200:	e3120007 	tst	r2, #7
    f204:	e5835000 	str	r5, [r3]
    f208:	e0807007 	add	r7, r0, r7
    f20c:	e3840003 	orr	r0, r4, #3
    f210:	e5837004 	str	r7, [r3, #4]
    f214:	12623000 	rsbne	r3, r2, #0
    f218:	12033007 	andne	r3, r3, #7
    f21c:	10855003 	addne	r5, r5, r3
    f220:	e2813008 	add	r3, r1, #8
    f224:	e3130007 	tst	r3, #7
    f228:	e0852004 	add	r2, r5, r4
    f22c:	12633000 	rsbne	r3, r3, #0
    f230:	e5850004 	str	r0, [r5, #4]
    f234:	12033007 	andne	r3, r3, #7
    f238:	10811003 	addne	r1, r1, r3
    f23c:	e1520001 	cmp	r2, r1
    f240:	e0413005 	sub	r3, r1, r5
    f244:	e0434004 	sub	r4, r3, r4
    f248:	2affff5a 	bcs	efb8 <malloc+0x76c>
    f24c:	e5913004 	ldr	r3, [r1, #4]
    f250:	e3130001 	tst	r3, #1
    f254:	0affff57 	beq	efb8 <malloc+0x76c>
    f258:	e354000f 	cmp	r4, #15
    f25c:	9affff55 	bls	efb8 <malloc+0x76c>
    f260:	e15e0001 	cmp	lr, r1
    f264:	0a000221 	beq	faf0 <malloc+0x12a4>
    f268:	e5960014 	ldr	r0, [r6, #20]
    f26c:	e1500001 	cmp	r0, r1
    f270:	0a00026c 	beq	fc28 <malloc+0x13dc>
    f274:	e2030003 	and	r0, r3, #3
    f278:	e3500001 	cmp	r0, #1
    f27c:	0a000271 	beq	fc48 <malloc+0x13fc>
    f280:	e1a001a4 	lsr	r0, r4, #3
    f284:	e3c33001 	bic	r3, r3, #1
    f288:	e5813004 	str	r3, [r1, #4]
    f28c:	e3843001 	orr	r3, r4, #1
    f290:	e350001f 	cmp	r0, #31
    f294:	e5823004 	str	r3, [r2, #4]
    f298:	e5814000 	str	r4, [r1]
    f29c:	8a00021a 	bhi	fb0c <malloc+0x12c0>
    f2a0:	e0863180 	add	r3, r6, r0, lsl #3
    f2a4:	e2833028 	add	r3, r3, #40	; 0x28
    f2a8:	e3a01001 	mov	r1, #1
    f2ac:	e596c000 	ldr	ip, [r6]
    f2b0:	e1a00011 	lsl	r0, r1, r0
    f2b4:	e11c0000 	tst	ip, r0
    f2b8:	1a000293 	bne	fd0c <malloc+0x14c0>
    f2bc:	e1a01003 	mov	r1, r3
    f2c0:	e18c0000 	orr	r0, ip, r0
    f2c4:	e5860000 	str	r0, [r6]
    f2c8:	e5832008 	str	r2, [r3, #8]
    f2cc:	e581200c 	str	r2, [r1, #12]
    f2d0:	e5821008 	str	r1, [r2, #8]
    f2d4:	e582300c 	str	r3, [r2, #12]
    f2d8:	e2850008 	add	r0, r5, #8
    f2dc:	eafffd8a 	b	e90c <malloc+0xc0>
    f2e0:	e593c00c 	ldr	ip, [r3, #12]
    f2e4:	e31c0008 	tst	ip, #8
    f2e8:	1afffe5d 	bne	ec64 <malloc+0x418>
    f2ec:	e15e0001 	cmp	lr, r1
    f2f0:	3afffe5b 	bcc	ec64 <malloc+0x418>
    f2f4:	e15e0005 	cmp	lr, r5
    f2f8:	2afffe59 	bcs	ec64 <malloc+0x418>
    f2fc:	e28e1008 	add	r1, lr, #8
    f300:	e596200c 	ldr	r2, [r6, #12]
    f304:	e3110007 	tst	r1, #7
    f308:	e0800007 	add	r0, r0, r7
    f30c:	e5830004 	str	r0, [r3, #4]
    f310:	12613000 	rsbne	r3, r1, #0
    f314:	e5980010 	ldr	r0, [r8, #16]
    f318:	e0877002 	add	r7, r7, r2
    f31c:	12033007 	andne	r3, r3, #7
    f320:	01a03007 	moveq	r3, r7
    f324:	108e1003 	addne	r1, lr, r3
    f328:	01a0100e 	moveq	r1, lr
    f32c:	10473003 	subne	r3, r7, r3
    f330:	e08e7007 	add	r7, lr, r7
    f334:	e3832001 	orr	r2, r3, #1
    f338:	e3a0c028 	mov	ip, #40	; 0x28
    f33c:	e5861018 	str	r1, [r6, #24]
    f340:	e586300c 	str	r3, [r6, #12]
    f344:	e5812004 	str	r2, [r1, #4]
    f348:	e587c004 	str	ip, [r7, #4]
    f34c:	e586001c 	str	r0, [r6, #28]
    f350:	e1540003 	cmp	r4, r3
    f354:	3afffd8b 	bcc	e988 <malloc+0x13c>
    f358:	eaffff0e 	b	ef98 <malloc+0x74c>
    f35c:	e2413027 	sub	r3, r1, #39	; 0x27
    f360:	e1a0c001 	mov	ip, r1
    f364:	e3130007 	tst	r3, #7
    f368:	e5988010 	ldr	r8, [r8, #16]
    f36c:	12639000 	rsbne	r9, r3, #0
    f370:	03e0902e 	mvneq	r9, #46	; 0x2e
    f374:	12099007 	andne	r9, r9, #7
    f378:	e2853008 	add	r3, r5, #8
    f37c:	1249902f 	subne	r9, r9, #47	; 0x2f
    f380:	e0819009 	add	r9, r1, r9
    f384:	e28e1010 	add	r1, lr, #16
    f388:	e1590001 	cmp	r9, r1
    f38c:	31a0900e 	movcc	r9, lr
    f390:	e3130007 	tst	r3, #7
    f394:	12633000 	rsbne	r3, r3, #0
    f398:	e2891008 	add	r1, r9, #8
    f39c:	12033007 	andne	r3, r3, #7
    f3a0:	e58d1000 	str	r1, [sp]
    f3a4:	e2471028 	sub	r1, r7, #40	; 0x28
    f3a8:	10850003 	addne	r0, r5, r3
    f3ac:	01a03001 	moveq	r3, r1
    f3b0:	10413003 	subne	r3, r1, r3
    f3b4:	e289a008 	add	sl, r9, #8
    f3b8:	01a00005 	moveq	r0, r5
    f3bc:	e586300c 	str	r3, [r6, #12]
    f3c0:	e21ab007 	ands	fp, sl, #7
    f3c4:	e3833001 	orr	r3, r3, #1
    f3c8:	e5860018 	str	r0, [r6, #24]
    f3cc:	e0851001 	add	r1, r5, r1
    f3d0:	e5803004 	str	r3, [r0, #4]
    f3d4:	e3a03028 	mov	r3, #40	; 0x28
    f3d8:	e1a0a00b 	mov	sl, fp
    f3dc:	e5813004 	str	r3, [r1, #4]
    f3e0:	e586801c 	str	r8, [r6, #28]
    f3e4:	1afffef3 	bne	efb8 <malloc+0x76c>
    f3e8:	e892000f 	ldm	r2, {r0, r1, r2, r3}
    f3ec:	e3a0b01b 	mov	fp, #27
    f3f0:	e289801c 	add	r8, r9, #28
    f3f4:	e58da004 	str	sl, [sp, #4]
    f3f8:	e58da000 	str	sl, [sp]
    f3fc:	e289a008 	add	sl, r9, #8
    f400:	e589b004 	str	fp, [r9, #4]
    f404:	e3a0b007 	mov	fp, #7
    f408:	e88a000f 	stm	sl, {r0, r1, r2, r3}
    f40c:	e59d3004 	ldr	r3, [sp, #4]
    f410:	e586a1c8 	str	sl, [r6, #456]	; 0x1c8
    f414:	e1a0a003 	mov	sl, r3
    f418:	e58651c0 	str	r5, [r6, #448]	; 0x1c0
    f41c:	e58671c4 	str	r7, [r6, #452]	; 0x1c4
    f420:	e58631cc 	str	r3, [r6, #460]	; 0x1cc
    f424:	e488b004 	str	fp, [r8], #4
    f428:	e15c0008 	cmp	ip, r8
    f42c:	e28aa001 	add	sl, sl, #1
    f430:	8afffffb 	bhi	f424 <malloc+0xbd8>
    f434:	e35a0001 	cmp	sl, #1
    f438:	0afffede 	beq	efb8 <malloc+0x76c>
    f43c:	e15e0009 	cmp	lr, r9
    f440:	0a000117 	beq	f8a4 <malloc+0x1058>
    f444:	e049100e 	sub	r1, r9, lr
    f448:	e5993004 	ldr	r3, [r9, #4]
    f44c:	e1a021a1 	lsr	r2, r1, #3
    f450:	e3810001 	orr	r0, r1, #1
    f454:	e352001f 	cmp	r2, #31
    f458:	e3c33001 	bic	r3, r3, #1
    f45c:	e5893004 	str	r3, [r9, #4]
    f460:	e58e0004 	str	r0, [lr, #4]
    f464:	e5891000 	str	r1, [r9]
    f468:	8a0000c5 	bhi	f784 <malloc+0xf38>
    f46c:	e0863182 	add	r3, r6, r2, lsl #3
    f470:	e351000f 	cmp	r1, #15
    f474:	e2833028 	add	r3, r3, #40	; 0x28
    f478:	9afffece 	bls	efb8 <malloc+0x76c>
    f47c:	e3a01001 	mov	r1, #1
    f480:	e5960000 	ldr	r0, [r6]
    f484:	e1a02211 	lsl	r2, r1, r2
    f488:	e1100002 	tst	r0, r2
    f48c:	1a000135 	bne	f968 <malloc+0x111c>
    f490:	e1a01003 	mov	r1, r3
    f494:	e1802002 	orr	r2, r0, r2
    f498:	e5862000 	str	r2, [r6]
    f49c:	e583e008 	str	lr, [r3, #8]
    f4a0:	e581e00c 	str	lr, [r1, #12]
    f4a4:	e58e300c 	str	r3, [lr, #12]
    f4a8:	e58e1008 	str	r1, [lr, #8]
    f4ac:	e596300c 	ldr	r3, [r6, #12]
    f4b0:	eaffffa6 	b	f350 <malloc+0xb04>
    f4b4:	e3e03001 	mvn	r3, #1
    f4b8:	e1a09007 	mov	r9, r7
    f4bc:	e1a08813 	lsl	r8, r3, r8
    f4c0:	e01c8008 	ands	r8, ip, r8
    f4c4:	0afffd2a 	beq	e974 <malloc+0x128>
    f4c8:	e2683000 	rsb	r3, r8, #0
    f4cc:	e0033008 	and	r3, r3, r8
    f4d0:	e2433001 	sub	r3, r3, #1
    f4d4:	e1a02623 	lsr	r2, r3, #12
    f4d8:	e2022010 	and	r2, r2, #16
    f4dc:	e1a03233 	lsr	r3, r3, r2
    f4e0:	e1a002a3 	lsr	r0, r3, #5
    f4e4:	e2000008 	and	r0, r0, #8
    f4e8:	e1a03033 	lsr	r3, r3, r0
    f4ec:	e1822000 	orr	r2, r2, r0
    f4f0:	e1a00123 	lsr	r0, r3, #2
    f4f4:	e2000004 	and	r0, r0, #4
    f4f8:	e1a03033 	lsr	r3, r3, r0
    f4fc:	e0822000 	add	r2, r2, r0
    f500:	e1a000a3 	lsr	r0, r3, #1
    f504:	e2000002 	and	r0, r0, #2
    f508:	e1a03033 	lsr	r3, r3, r0
    f50c:	e0822000 	add	r2, r2, r0
    f510:	e7e000d3 	ubfx	r0, r3, #1, #1
    f514:	e0822000 	add	r2, r2, r0
    f518:	e0823033 	add	r3, r2, r3, lsr r0
    f51c:	e283304c 	add	r3, r3, #76	; 0x4c
    f520:	e7963103 	ldr	r3, [r6, r3, lsl #2]
    f524:	e3530000 	cmp	r3, #0
    f528:	13a00000 	movne	r0, #0
    f52c:	1afffe0d 	bne	ed68 <malloc+0x51c>
    f530:	eafffd0f 	b	e974 <malloc+0x128>
    f534:	e596700c 	ldr	r7, [r6, #12]
    f538:	e04c7007 	sub	r7, ip, r7
    f53c:	e0877004 	add	r7, r7, r4
    f540:	e0077000 	and	r7, r7, r0
    f544:	e377010a 	cmn	r7, #-2147483646	; 0x80000002
    f548:	8afffe8e 	bhi	ef88 <malloc+0x73c>
    f54c:	e1a00007 	mov	r0, r7
    f550:	ebfffc2b 	bl	e604 <sbrk>
    f554:	e5992000 	ldr	r2, [r9]
    f558:	e3700001 	cmn	r0, #1
    f55c:	e5991004 	ldr	r1, [r9, #4]
    f560:	13a03000 	movne	r3, #0
    f564:	03a03001 	moveq	r3, #1
    f568:	e1a05000 	mov	r5, r0
    f56c:	e0822001 	add	r2, r2, r1
    f570:	e1500002 	cmp	r0, r2
    f574:	13833001 	orrne	r3, r3, #1
    f578:	e3530000 	cmp	r3, #0
    f57c:	0afffda5 	beq	ec18 <malloc+0x3cc>
    f580:	e3750001 	cmn	r5, #1
    f584:	0afffe7e 	beq	ef84 <malloc+0x738>
    f588:	e2843030 	add	r3, r4, #48	; 0x30
    f58c:	e1530007 	cmp	r3, r7
    f590:	9afffda0 	bls	ec18 <malloc+0x3cc>
    f594:	e5983008 	ldr	r3, [r8, #8]
    f598:	e267b000 	rsb	fp, r7, #0
    f59c:	e283902f 	add	r9, r3, #47	; 0x2f
    f5a0:	e2633000 	rsb	r3, r3, #0
    f5a4:	e0899004 	add	r9, r9, r4
    f5a8:	e0499007 	sub	r9, r9, r7
    f5ac:	e0099003 	and	r9, r9, r3
    f5b0:	e379010a 	cmn	r9, #-2147483646	; 0x80000002
    f5b4:	8afffd97 	bhi	ec18 <malloc+0x3cc>
    f5b8:	e1a00009 	mov	r0, r9
    f5bc:	ebfffc10 	bl	e604 <sbrk>
    f5c0:	e3700001 	cmn	r0, #1
    f5c4:	10877009 	addne	r7, r7, r9
    f5c8:	1afffd92 	bne	ec18 <malloc+0x3cc>
    f5cc:	e1a0000b 	mov	r0, fp
    f5d0:	ebfffc0b 	bl	e604 <sbrk>
    f5d4:	eafffe6a 	b	ef84 <malloc+0x738>
    f5d8:	e5962010 	ldr	r2, [r6, #16]
    f5dc:	e3a00000 	mov	r0, #0
    f5e0:	e598c000 	ldr	ip, [r8]
    f5e4:	e3e01000 	mvn	r1, #0
    f5e8:	e58651c0 	str	r5, [r6, #448]	; 0x1c0
    f5ec:	e1520005 	cmp	r2, r5
    f5f0:	e58671c4 	str	r7, [r6, #452]	; 0x1c4
    f5f4:	93a03000 	movls	r3, #0
    f5f8:	83a03001 	movhi	r3, #1
    f5fc:	e3520000 	cmp	r2, #0
    f600:	e586c024 	str	ip, [r6, #36]	; 0x24
    f604:	03a03001 	moveq	r3, #1
    f608:	e58601cc 	str	r0, [r6, #460]	; 0x1cc
    f60c:	e3530000 	cmp	r3, #0
    f610:	e59f360c 	ldr	r3, [pc, #1548]	; fc24 <malloc+0x13d8>
    f614:	15865010 	strne	r5, [r6, #16]
    f618:	e5861020 	str	r1, [r6, #32]
    f61c:	e2832c01 	add	r2, r3, #256	; 0x100
    f620:	e583300c 	str	r3, [r3, #12]
    f624:	e5833008 	str	r3, [r3, #8]
    f628:	e2833008 	add	r3, r3, #8
    f62c:	e1520003 	cmp	r2, r3
    f630:	1afffffa 	bne	f620 <malloc+0xdd4>
    f634:	e2853008 	add	r3, r5, #8
    f638:	e2477028 	sub	r7, r7, #40	; 0x28
    f63c:	e3130007 	tst	r3, #7
    f640:	e5980010 	ldr	r0, [r8, #16]
    f644:	12633000 	rsbne	r3, r3, #0
    f648:	01a03007 	moveq	r3, r7
    f64c:	12033007 	andne	r3, r3, #7
    f650:	01a01005 	moveq	r1, r5
    f654:	10851003 	addne	r1, r5, r3
    f658:	10473003 	subne	r3, r7, r3
    f65c:	e0857007 	add	r7, r5, r7
    f660:	eaffff33 	b	f334 <malloc+0xae8>
    f664:	e2483c01 	sub	r3, r8, #256	; 0x100
    f668:	e1a03823 	lsr	r3, r3, #16
    f66c:	e2033008 	and	r3, r3, #8
    f670:	e1a08318 	lsl	r8, r8, r3
    f674:	e2482a01 	sub	r2, r8, #4096	; 0x1000
    f678:	e1a02822 	lsr	r2, r2, #16
    f67c:	e2022004 	and	r2, r2, #4
    f680:	e1a08218 	lsl	r8, r8, r2
    f684:	e1833002 	orr	r3, r3, r2
    f688:	e2482901 	sub	r2, r8, #16384	; 0x4000
    f68c:	e1a02822 	lsr	r2, r2, #16
    f690:	e2022002 	and	r2, r2, #2
    f694:	e1a08218 	lsl	r8, r8, r2
    f698:	e0833002 	add	r3, r3, r2
    f69c:	e06387a8 	rsb	r8, r3, r8, lsr #15
    f6a0:	e2883015 	add	r3, r8, #21
    f6a4:	e288800e 	add	r8, r8, #14
    f6a8:	e1a03334 	lsr	r3, r4, r3
    f6ac:	e2033001 	and	r3, r3, #1
    f6b0:	e0838088 	add	r8, r3, r8, lsl #1
    f6b4:	e288304c 	add	r3, r8, #76	; 0x4c
    f6b8:	e7963103 	ldr	r3, [r6, r3, lsl #2]
    f6bc:	e3530000 	cmp	r3, #0
    f6c0:	0affff7b 	beq	f4b4 <malloc+0xc68>
    f6c4:	e358001f 	cmp	r8, #31
    f6c8:	01a0e004 	moveq	lr, r4
    f6cc:	0afffd86 	beq	ecec <malloc+0x4a0>
    f6d0:	e1a0e0a8 	lsr	lr, r8, #1
    f6d4:	e26ee019 	rsb	lr, lr, #25
    f6d8:	eafffd82 	b	ece8 <malloc+0x49c>
    f6dc:	e1a00003 	mov	r0, r3
    f6e0:	eafffda0 	b	ed68 <malloc+0x51c>
    f6e4:	e1a031a9 	lsr	r3, r9, #3
    f6e8:	e3842003 	orr	r2, r4, #3
    f6ec:	e5802004 	str	r2, [r0, #4]
    f6f0:	e3892001 	orr	r2, r9, #1
    f6f4:	e353001f 	cmp	r3, #31
    f6f8:	e5872004 	str	r2, [r7, #4]
    f6fc:	e7879009 	str	r9, [r7, r9]
    f700:	8a000069 	bhi	f8ac <malloc+0x1060>
    f704:	e3a02001 	mov	r2, #1
    f708:	e5961000 	ldr	r1, [r6]
    f70c:	e1a02312 	lsl	r2, r2, r3
    f710:	e0863183 	add	r3, r6, r3, lsl #3
    f714:	e1110002 	tst	r1, r2
    f718:	e2833028 	add	r3, r3, #40	; 0x28
    f71c:	1a0000e5 	bne	fab8 <malloc+0x126c>
    f720:	e1811002 	orr	r1, r1, r2
    f724:	e1a02003 	mov	r2, r3
    f728:	e5861000 	str	r1, [r6]
    f72c:	e5837008 	str	r7, [r3, #8]
    f730:	e582700c 	str	r7, [r2, #12]
    f734:	e1c720f8 	strd	r2, [r7, #8]
    f738:	eafffdde 	b	eeb8 <malloc+0x66c>
    f73c:	e5901014 	ldr	r1, [r0, #20]
    f740:	e3510000 	cmp	r1, #0
    f744:	12803014 	addne	r3, r0, #20
    f748:	0a000094 	beq	f9a0 <malloc+0x1154>
    f74c:	e1a0c003 	mov	ip, r3
    f750:	e1a03001 	mov	r3, r1
    f754:	e1a02001 	mov	r2, r1
    f758:	e5b31014 	ldr	r1, [r3, #20]!
    f75c:	e3510000 	cmp	r1, #0
    f760:	1afffff9 	bne	f74c <malloc+0xf00>
    f764:	e1a03002 	mov	r3, r2
    f768:	e5b31010 	ldr	r1, [r3, #16]!
    f76c:	e3510000 	cmp	r1, #0
    f770:	1afffff5 	bne	f74c <malloc+0xf00>
    f774:	e155000c 	cmp	r5, ip
    f778:	8afffe0e 	bhi	efb8 <malloc+0x76c>
    f77c:	e58c1000 	str	r1, [ip]
    f780:	eafffda3 	b	ee14 <malloc+0x5c8>
    f784:	e1a03421 	lsr	r3, r1, #8
    f788:	e3530801 	cmp	r3, #65536	; 0x10000
    f78c:	2a000070 	bcs	f954 <malloc+0x1108>
    f790:	e2430c01 	sub	r0, r3, #256	; 0x100
    f794:	e3a02001 	mov	r2, #1
    f798:	e1a00820 	lsr	r0, r0, #16
    f79c:	e2000008 	and	r0, r0, #8
    f7a0:	e1a03013 	lsl	r3, r3, r0
    f7a4:	e243ca01 	sub	ip, r3, #4096	; 0x1000
    f7a8:	e1a0c82c 	lsr	ip, ip, #16
    f7ac:	e20cc004 	and	ip, ip, #4
    f7b0:	e1a03c13 	lsl	r3, r3, ip
    f7b4:	e180000c 	orr	r0, r0, ip
    f7b8:	e243c901 	sub	ip, r3, #16384	; 0x4000
    f7bc:	e1a0c82c 	lsr	ip, ip, #16
    f7c0:	e20cc002 	and	ip, ip, #2
    f7c4:	e1a03c13 	lsl	r3, r3, ip
    f7c8:	e080000c 	add	r0, r0, ip
    f7cc:	e06007a3 	rsb	r0, r0, r3, lsr #15
    f7d0:	e2803015 	add	r3, r0, #21
    f7d4:	e280000e 	add	r0, r0, #14
    f7d8:	e1a03331 	lsr	r3, r1, r3
    f7dc:	e0033002 	and	r3, r3, r2
    f7e0:	e0833210 	add	r3, r3, r0, lsl r2
    f7e4:	e283704c 	add	r7, r3, #76	; 0x4c
    f7e8:	e1a02312 	lsl	r2, r2, r3
    f7ec:	e1a05107 	lsl	r5, r7, #2
    f7f0:	e596c004 	ldr	ip, [r6, #4]
    f7f4:	e3a00000 	mov	r0, #0
    f7f8:	e58e301c 	str	r3, [lr, #28]
    f7fc:	e58e0014 	str	r0, [lr, #20]
    f800:	e112000c 	tst	r2, ip
    f804:	e58e0010 	str	r0, [lr, #16]
    f808:	0a00005b 	beq	f97c <malloc+0x1130>
    f80c:	e353001f 	cmp	r3, #31
    f810:	e7960107 	ldr	r0, [r6, r7, lsl #2]
    f814:	11a020a3 	lsrne	r2, r3, #1
    f818:	01a02001 	moveq	r2, r1
    f81c:	12622019 	rsbne	r2, r2, #25
    f820:	11a02211 	lslne	r2, r1, r2
    f824:	ea000006 	b	f844 <malloc+0xff8>
    f828:	e1a03fa2 	lsr	r3, r2, #31
    f82c:	e1a02082 	lsl	r2, r2, #1
    f830:	e2833004 	add	r3, r3, #4
    f834:	e790c103 	ldr	ip, [r0, r3, lsl #2]
    f838:	e35c0000 	cmp	ip, #0
    f83c:	0a0000a1 	beq	fac8 <malloc+0x127c>
    f840:	e1a0000c 	mov	r0, ip
    f844:	e5903004 	ldr	r3, [r0, #4]
    f848:	e3c33007 	bic	r3, r3, #7
    f84c:	e1510003 	cmp	r1, r3
    f850:	1afffff4 	bne	f828 <malloc+0xfdc>
    f854:	e5903008 	ldr	r3, [r0, #8]
    f858:	e5962010 	ldr	r2, [r6, #16]
    f85c:	e1530002 	cmp	r3, r2
    f860:	21500002 	cmpcs	r0, r2
    f864:	3afffdd3 	bcc	efb8 <malloc+0x76c>
    f868:	e3a02000 	mov	r2, #0
    f86c:	e583e00c 	str	lr, [r3, #12]
    f870:	e580e008 	str	lr, [r0, #8]
    f874:	e58e3008 	str	r3, [lr, #8]
    f878:	e58e000c 	str	r0, [lr, #12]
    f87c:	e58e2018 	str	r2, [lr, #24]
    f880:	e596300c 	ldr	r3, [r6, #12]
    f884:	eafffeb1 	b	f350 <malloc+0xb04>
    f888:	e593e008 	ldr	lr, [r3, #8]
    f88c:	e5961010 	ldr	r1, [r6, #16]
    f890:	e15e0001 	cmp	lr, r1
    f894:	2afffc96 	bcs	eaf4 <malloc+0x2a8>
    f898:	eafffdc6 	b	efb8 <malloc+0x76c>
    f89c:	e3811003 	orr	r1, r1, #3
    f8a0:	eafffc24 	b	e938 <malloc+0xec>
    f8a4:	e596300c 	ldr	r3, [r6, #12]
    f8a8:	eafffea8 	b	f350 <malloc+0xb04>
    f8ac:	e1a03429 	lsr	r3, r9, #8
    f8b0:	e3530801 	cmp	r3, #65536	; 0x10000
    f8b4:	2a00007a 	bcs	faa4 <malloc+0x1258>
    f8b8:	e2431c01 	sub	r1, r3, #256	; 0x100
    f8bc:	e3a02001 	mov	r2, #1
    f8c0:	e1a01821 	lsr	r1, r1, #16
    f8c4:	e2011008 	and	r1, r1, #8
    f8c8:	e1a03113 	lsl	r3, r3, r1
    f8cc:	e243ca01 	sub	ip, r3, #4096	; 0x1000
    f8d0:	e1a0c82c 	lsr	ip, ip, #16
    f8d4:	e20cc004 	and	ip, ip, #4
    f8d8:	e1a03c13 	lsl	r3, r3, ip
    f8dc:	e181100c 	orr	r1, r1, ip
    f8e0:	e243c901 	sub	ip, r3, #16384	; 0x4000
    f8e4:	e1a0c82c 	lsr	ip, ip, #16
    f8e8:	e20cc002 	and	ip, ip, #2
    f8ec:	e1a03c13 	lsl	r3, r3, ip
    f8f0:	e081100c 	add	r1, r1, ip
    f8f4:	e06117a3 	rsb	r1, r1, r3, lsr #15
    f8f8:	e2813015 	add	r3, r1, #21
    f8fc:	e281100e 	add	r1, r1, #14
    f900:	e1a03339 	lsr	r3, r9, r3
    f904:	e0033002 	and	r3, r3, r2
    f908:	e0833211 	add	r3, r3, r1, lsl r2
    f90c:	e283804c 	add	r8, r3, #76	; 0x4c
    f910:	e1a02312 	lsl	r2, r2, r3
    f914:	e1a0e108 	lsl	lr, r8, #2
    f918:	e5961004 	ldr	r1, [r6, #4]
    f91c:	e3a0c000 	mov	ip, #0
    f920:	e587301c 	str	r3, [r7, #28]
    f924:	e587c014 	str	ip, [r7, #20]
    f928:	e1110002 	tst	r1, r2
    f92c:	e587c010 	str	ip, [r7, #16]
    f930:	1a00003e 	bne	fa30 <malloc+0x11e4>
    f934:	e1811002 	orr	r1, r1, r2
    f938:	e086e00e 	add	lr, r6, lr
    f93c:	e7867108 	str	r7, [r6, r8, lsl #2]
    f940:	e5861004 	str	r1, [r6, #4]
    f944:	e587e018 	str	lr, [r7, #24]
    f948:	e587700c 	str	r7, [r7, #12]
    f94c:	e5877008 	str	r7, [r7, #8]
    f950:	eafffd58 	b	eeb8 <malloc+0x66c>
    f954:	e3a02102 	mov	r2, #-2147483648	; 0x80000000
    f958:	e3a05f6b 	mov	r5, #428	; 0x1ac
    f95c:	e3a0301f 	mov	r3, #31
    f960:	e3a0706b 	mov	r7, #107	; 0x6b
    f964:	eaffffa1 	b	f7f0 <malloc+0xfa4>
    f968:	e5931008 	ldr	r1, [r3, #8]
    f96c:	e5962010 	ldr	r2, [r6, #16]
    f970:	e1510002 	cmp	r1, r2
    f974:	2afffec8 	bcs	f49c <malloc+0xc50>
    f978:	eafffd8e 	b	efb8 <malloc+0x76c>
    f97c:	e182200c 	orr	r2, r2, ip
    f980:	e0865005 	add	r5, r6, r5
    f984:	e786e107 	str	lr, [r6, r7, lsl #2]
    f988:	e596300c 	ldr	r3, [r6, #12]
    f98c:	e5862004 	str	r2, [r6, #4]
    f990:	e58e5018 	str	r5, [lr, #24]
    f994:	e58ee00c 	str	lr, [lr, #12]
    f998:	e58ee008 	str	lr, [lr, #8]
    f99c:	eafffe6b 	b	f350 <malloc+0xb04>
    f9a0:	e5901010 	ldr	r1, [r0, #16]
    f9a4:	e3510000 	cmp	r1, #0
    f9a8:	0a0000e4 	beq	fd40 <malloc+0x14f4>
    f9ac:	e2803010 	add	r3, r0, #16
    f9b0:	eaffff65 	b	f74c <malloc+0xf00>
    f9b4:	e0802008 	add	r2, r0, r8
    f9b8:	e3888003 	orr	r8, r8, #3
    f9bc:	e5923004 	ldr	r3, [r2, #4]
    f9c0:	e5808004 	str	r8, [r0, #4]
    f9c4:	e3833001 	orr	r3, r3, #1
    f9c8:	e5823004 	str	r3, [r2, #4]
    f9cc:	eafffd39 	b	eeb8 <malloc+0x66c>
    f9d0:	e5903014 	ldr	r3, [r0, #20]
    f9d4:	e3530000 	cmp	r3, #0
    f9d8:	12802014 	addne	r2, r0, #20
    f9dc:	0a0000e9 	beq	fd88 <malloc+0x153c>
    f9e0:	e1a07003 	mov	r7, r3
    f9e4:	e1a05002 	mov	r5, r2
    f9e8:	e1a03007 	mov	r3, r7
    f9ec:	e5b32014 	ldr	r2, [r3, #20]!
    f9f0:	e3520000 	cmp	r2, #0
    f9f4:	0a000005 	beq	fa10 <malloc+0x11c4>
    f9f8:	e1a07002 	mov	r7, r2
    f9fc:	e1a05003 	mov	r5, r3
    fa00:	e1a03007 	mov	r3, r7
    fa04:	e5b32014 	ldr	r2, [r3, #20]!
    fa08:	e3520000 	cmp	r2, #0
    fa0c:	1afffff9 	bne	f9f8 <malloc+0x11ac>
    fa10:	e1a02007 	mov	r2, r7
    fa14:	e5b23010 	ldr	r3, [r2, #16]!
    fa18:	e3530000 	cmp	r3, #0
    fa1c:	1affffef 	bne	f9e0 <malloc+0x1194>
    fa20:	e15a0005 	cmp	sl, r5
    fa24:	8afffd63 	bhi	efb8 <malloc+0x76c>
    fa28:	e5853000 	str	r3, [r5]
    fa2c:	eafffda9 	b	f0d8 <malloc+0x88c>
    fa30:	e353001f 	cmp	r3, #31
    fa34:	e7961108 	ldr	r1, [r6, r8, lsl #2]
    fa38:	11a020a3 	lsrne	r2, r3, #1
    fa3c:	01a02009 	moveq	r2, r9
    fa40:	12622019 	rsbne	r2, r2, #25
    fa44:	11a02219 	lslne	r2, r9, r2
    fa48:	ea000006 	b	fa68 <malloc+0x121c>
    fa4c:	e1a03fa2 	lsr	r3, r2, #31
    fa50:	e1a02082 	lsl	r2, r2, #1
    fa54:	e2833004 	add	r3, r3, #4
    fa58:	e791c103 	ldr	ip, [r1, r3, lsl #2]
    fa5c:	e35c0000 	cmp	ip, #0
    fa60:	0a00009c 	beq	fcd8 <malloc+0x148c>
    fa64:	e1a0100c 	mov	r1, ip
    fa68:	e5913004 	ldr	r3, [r1, #4]
    fa6c:	e3c33007 	bic	r3, r3, #7
    fa70:	e1530009 	cmp	r3, r9
    fa74:	1afffff4 	bne	fa4c <malloc+0x1200>
    fa78:	e5913008 	ldr	r3, [r1, #8]
    fa7c:	e1550001 	cmp	r5, r1
    fa80:	91550003 	cmpls	r5, r3
    fa84:	8afffd4b 	bhi	efb8 <malloc+0x76c>
    fa88:	e3a02000 	mov	r2, #0
    fa8c:	e583700c 	str	r7, [r3, #12]
    fa90:	e5817008 	str	r7, [r1, #8]
    fa94:	e5873008 	str	r3, [r7, #8]
    fa98:	e587100c 	str	r1, [r7, #12]
    fa9c:	e5872018 	str	r2, [r7, #24]
    faa0:	eafffd04 	b	eeb8 <malloc+0x66c>
    faa4:	e3a0ef6b 	mov	lr, #428	; 0x1ac
    faa8:	e3a02102 	mov	r2, #-2147483648	; 0x80000000
    faac:	e3a0301f 	mov	r3, #31
    fab0:	e3a0806b 	mov	r8, #107	; 0x6b
    fab4:	eaffff97 	b	f918 <malloc+0x10cc>
    fab8:	e5932008 	ldr	r2, [r3, #8]
    fabc:	e1550002 	cmp	r5, r2
    fac0:	9affff19 	bls	f72c <malloc+0xee0>
    fac4:	eafffd3b 	b	efb8 <malloc+0x76c>
    fac8:	e5961010 	ldr	r1, [r6, #16]
    facc:	e0802103 	add	r2, r0, r3, lsl #2
    fad0:	e1510002 	cmp	r1, r2
    fad4:	8afffd37 	bhi	efb8 <malloc+0x76c>
    fad8:	e780e103 	str	lr, [r0, r3, lsl #2]
    fadc:	e596300c 	ldr	r3, [r6, #12]
    fae0:	e58e0018 	str	r0, [lr, #24]
    fae4:	e58ee00c 	str	lr, [lr, #12]
    fae8:	e58ee008 	str	lr, [lr, #8]
    faec:	eafffe17 	b	f350 <malloc+0xb04>
    faf0:	e596300c 	ldr	r3, [r6, #12]
    faf4:	e5862018 	str	r2, [r6, #24]
    faf8:	e0844003 	add	r4, r4, r3
    fafc:	e3843001 	orr	r3, r4, #1
    fb00:	e586400c 	str	r4, [r6, #12]
    fb04:	e5823004 	str	r3, [r2, #4]
    fb08:	eafffdf2 	b	f2d8 <malloc+0xa8c>
    fb0c:	e1a01424 	lsr	r1, r4, #8
    fb10:	e3510801 	cmp	r1, #65536	; 0x10000
    fb14:	2a000077 	bcs	fcf8 <malloc+0x14ac>
    fb18:	e2413c01 	sub	r3, r1, #256	; 0x100
    fb1c:	e3a00001 	mov	r0, #1
    fb20:	e1a03823 	lsr	r3, r3, #16
    fb24:	e2033008 	and	r3, r3, #8
    fb28:	e1a01311 	lsl	r1, r1, r3
    fb2c:	e241ca01 	sub	ip, r1, #4096	; 0x1000
    fb30:	e1a0c82c 	lsr	ip, ip, #16
    fb34:	e20cc004 	and	ip, ip, #4
    fb38:	e1a01c11 	lsl	r1, r1, ip
    fb3c:	e183300c 	orr	r3, r3, ip
    fb40:	e241c901 	sub	ip, r1, #16384	; 0x4000
    fb44:	e1a0c82c 	lsr	ip, ip, #16
    fb48:	e20cc002 	and	ip, ip, #2
    fb4c:	e1a01c11 	lsl	r1, r1, ip
    fb50:	e083300c 	add	r3, r3, ip
    fb54:	e06337a1 	rsb	r3, r3, r1, lsr #15
    fb58:	e2831015 	add	r1, r3, #21
    fb5c:	e283300e 	add	r3, r3, #14
    fb60:	e1a01134 	lsr	r1, r4, r1
    fb64:	e0011000 	and	r1, r1, r0
    fb68:	e0811013 	add	r1, r1, r3, lsl r0
    fb6c:	e281e04c 	add	lr, r1, #76	; 0x4c
    fb70:	e1a00110 	lsl	r0, r0, r1
    fb74:	e1a0710e 	lsl	r7, lr, #2
    fb78:	e596c004 	ldr	ip, [r6, #4]
    fb7c:	e3a03000 	mov	r3, #0
    fb80:	e582101c 	str	r1, [r2, #28]
    fb84:	e5823014 	str	r3, [r2, #20]
    fb88:	e110000c 	tst	r0, ip
    fb8c:	e5823010 	str	r3, [r2, #16]
    fb90:	0a000062 	beq	fd20 <malloc+0x14d4>
    fb94:	e351001f 	cmp	r1, #31
    fb98:	e796010e 	ldr	r0, [r6, lr, lsl #2]
    fb9c:	11a030a1 	lsrne	r3, r1, #1
    fba0:	12633019 	rsbne	r3, r3, #25
    fba4:	e1a01314 	lsl	r1, r4, r3
    fba8:	ea000006 	b	fbc8 <malloc+0x137c>
    fbac:	e1a03fa1 	lsr	r3, r1, #31
    fbb0:	e1a01081 	lsl	r1, r1, #1
    fbb4:	e2833004 	add	r3, r3, #4
    fbb8:	e790c103 	ldr	ip, [r0, r3, lsl #2]
    fbbc:	e35c0000 	cmp	ip, #0
    fbc0:	0a0000a8 	beq	fe68 <malloc+0x161c>
    fbc4:	e1a0000c 	mov	r0, ip
    fbc8:	e5903004 	ldr	r3, [r0, #4]
    fbcc:	e3c33007 	bic	r3, r3, #7
    fbd0:	e1540003 	cmp	r4, r3
    fbd4:	1afffff4 	bne	fbac <malloc+0x1360>
    fbd8:	e5961010 	ldr	r1, [r6, #16]
    fbdc:	e5903008 	ldr	r3, [r0, #8]
    fbe0:	e1530001 	cmp	r3, r1
    fbe4:	21500001 	cmpcs	r0, r1
    fbe8:	3afffcf2 	bcc	efb8 <malloc+0x76c>
    fbec:	e3a01000 	mov	r1, #0
    fbf0:	e583200c 	str	r2, [r3, #12]
    fbf4:	e5802008 	str	r2, [r0, #8]
    fbf8:	e5823008 	str	r3, [r2, #8]
    fbfc:	e582000c 	str	r0, [r2, #12]
    fc00:	e5821018 	str	r1, [r2, #24]
    fc04:	eafffdb3 	b	f2d8 <malloc+0xa8c>
    fc08:	e1a00007 	mov	r0, r7
    fc0c:	ebfffa7c 	bl	e604 <sbrk>
    fc10:	e1590000 	cmp	r9, r0
    fc14:	e1a05000 	mov	r5, r0
    fc18:	1afffe58 	bne	f580 <malloc+0xd34>
    fc1c:	eafffbfd 	b	ec18 <malloc+0x3cc>
    fc20:	0001426c 	.word	0x0001426c
    fc24:	000140d4 	.word	0x000140d4
    fc28:	e5963008 	ldr	r3, [r6, #8]
    fc2c:	e5862014 	str	r2, [r6, #20]
    fc30:	e0844003 	add	r4, r4, r3
    fc34:	e3843001 	orr	r3, r4, #1
    fc38:	e5864008 	str	r4, [r6, #8]
    fc3c:	e5823004 	str	r3, [r2, #4]
    fc40:	e7824004 	str	r4, [r2, r4]
    fc44:	eafffda3 	b	f2d8 <malloc+0xa8c>
    fc48:	e3c33007 	bic	r3, r3, #7
    fc4c:	e591000c 	ldr	r0, [r1, #12]
    fc50:	e1a0e1a3 	lsr	lr, r3, #3
    fc54:	e35e001f 	cmp	lr, #31
    fc58:	8a00004f 	bhi	fd9c <malloc+0x1550>
    fc5c:	e1500001 	cmp	r0, r1
    fc60:	e591c008 	ldr	ip, [r1, #8]
    fc64:	0afffcd3 	beq	efb8 <malloc+0x76c>
    fc68:	e15c0001 	cmp	ip, r1
    fc6c:	0afffcd1 	beq	efb8 <malloc+0x76c>
    fc70:	e086718e 	add	r7, r6, lr, lsl #3
    fc74:	e2877028 	add	r7, r7, #40	; 0x28
    fc78:	e15c0007 	cmp	ip, r7
    fc7c:	1afffcc7 	bne	efa0 <malloc+0x754>
    fc80:	e15c0000 	cmp	ip, r0
    fc84:	0a0000a2 	beq	ff14 <malloc+0x16c8>
    fc88:	e1570000 	cmp	r7, r0
    fc8c:	1a0000b7 	bne	ff70 <malloc+0x1724>
    fc90:	e58c000c 	str	r0, [ip, #12]
    fc94:	e580c008 	str	ip, [r0, #8]
    fc98:	e0844003 	add	r4, r4, r3
    fc9c:	e0811003 	add	r1, r1, r3
    fca0:	e5913004 	ldr	r3, [r1, #4]
    fca4:	e1a001a4 	lsr	r0, r4, #3
    fca8:	e384c001 	orr	ip, r4, #1
    fcac:	e350001f 	cmp	r0, #31
    fcb0:	e3c33001 	bic	r3, r3, #1
    fcb4:	e5813004 	str	r3, [r1, #4]
    fcb8:	e582c004 	str	ip, [r2, #4]
    fcbc:	e7824004 	str	r4, [r2, r4]
    fcc0:	8affff91 	bhi	fb0c <malloc+0x12c0>
    fcc4:	e0863180 	add	r3, r6, r0, lsl #3
    fcc8:	e354000f 	cmp	r4, #15
    fccc:	e2833028 	add	r3, r3, #40	; 0x28
    fcd0:	8afffd74 	bhi	f2a8 <malloc+0xa5c>
    fcd4:	eafffcb7 	b	efb8 <malloc+0x76c>
    fcd8:	e0812103 	add	r2, r1, r3, lsl #2
    fcdc:	e1550002 	cmp	r5, r2
    fce0:	8afffcb4 	bhi	efb8 <malloc+0x76c>
    fce4:	e7817103 	str	r7, [r1, r3, lsl #2]
    fce8:	e5871018 	str	r1, [r7, #24]
    fcec:	e587700c 	str	r7, [r7, #12]
    fcf0:	e5877008 	str	r7, [r7, #8]
    fcf4:	eafffc6f 	b	eeb8 <malloc+0x66c>
    fcf8:	e3a07f6b 	mov	r7, #428	; 0x1ac
    fcfc:	e3a00102 	mov	r0, #-2147483648	; 0x80000000
    fd00:	e3a0101f 	mov	r1, #31
    fd04:	e3a0e06b 	mov	lr, #107	; 0x6b
    fd08:	eaffff9a 	b	fb78 <malloc+0x132c>
    fd0c:	e5960010 	ldr	r0, [r6, #16]
    fd10:	e5931008 	ldr	r1, [r3, #8]
    fd14:	e1510000 	cmp	r1, r0
    fd18:	2afffd6a 	bcs	f2c8 <malloc+0xa7c>
    fd1c:	eafffca5 	b	efb8 <malloc+0x76c>
    fd20:	e180000c 	orr	r0, r0, ip
    fd24:	e0867007 	add	r7, r6, r7
    fd28:	e786210e 	str	r2, [r6, lr, lsl #2]
    fd2c:	e5860004 	str	r0, [r6, #4]
    fd30:	e5827018 	str	r7, [r2, #24]
    fd34:	e582200c 	str	r2, [r2, #12]
    fd38:	e5822008 	str	r2, [r2, #8]
    fd3c:	eafffd65 	b	f2d8 <malloc+0xa8c>
    fd40:	e3580000 	cmp	r8, #0
    fd44:	0afffc53 	beq	ee98 <malloc+0x64c>
    fd48:	e590101c 	ldr	r1, [r0, #28]
    fd4c:	e281304c 	add	r3, r1, #76	; 0x4c
    fd50:	e7962103 	ldr	r2, [r6, r3, lsl #2]
    fd54:	e1520000 	cmp	r2, r0
    fd58:	13a02000 	movne	r2, #0
    fd5c:	1afffc34 	bne	ee34 <malloc+0x5e8>
    fd60:	e3a08001 	mov	r8, #1
    fd64:	e3a02000 	mov	r2, #0
    fd68:	e1ccc118 	bic	ip, ip, r8, lsl r1
    fd6c:	e7862103 	str	r2, [r6, r3, lsl #2]
    fd70:	e586c004 	str	ip, [r6, #4]
    fd74:	eafffc47 	b	ee98 <malloc+0x64c>
    fd78:	e5932008 	ldr	r2, [r3, #8]
    fd7c:	e15a0002 	cmp	sl, r2
    fd80:	9afffd0b 	bls	f1b4 <malloc+0x968>
    fd84:	eafffc8b 	b	efb8 <malloc+0x76c>
    fd88:	e5903010 	ldr	r3, [r0, #16]
    fd8c:	e3530000 	cmp	r3, #0
    fd90:	0a00003d 	beq	fe8c <malloc+0x1640>
    fd94:	e2802010 	add	r2, r0, #16
    fd98:	eaffff10 	b	f9e0 <malloc+0x1194>
    fd9c:	e1500001 	cmp	r0, r1
    fda0:	e5918018 	ldr	r8, [r1, #24]
    fda4:	0a000046 	beq	fec4 <malloc+0x1678>
    fda8:	e591c008 	ldr	ip, [r1, #8]
    fdac:	e596e010 	ldr	lr, [r6, #16]
    fdb0:	e15c000e 	cmp	ip, lr
    fdb4:	3afffc7f 	bcc	efb8 <malloc+0x76c>
    fdb8:	e59ce00c 	ldr	lr, [ip, #12]
    fdbc:	e15e0001 	cmp	lr, r1
    fdc0:	1afffc7c 	bne	efb8 <malloc+0x76c>
    fdc4:	e5907008 	ldr	r7, [r0, #8]
    fdc8:	e15e0007 	cmp	lr, r7
    fdcc:	1afffc79 	bne	efb8 <malloc+0x76c>
    fdd0:	e58c000c 	str	r0, [ip, #12]
    fdd4:	e580c008 	str	ip, [r0, #8]
    fdd8:	e3580000 	cmp	r8, #0
    fddc:	0affffad 	beq	fc98 <malloc+0x144c>
    fde0:	e591c01c 	ldr	ip, [r1, #28]
    fde4:	e28cc04c 	add	ip, ip, #76	; 0x4c
    fde8:	e796e10c 	ldr	lr, [r6, ip, lsl #2]
    fdec:	e15e0001 	cmp	lr, r1
    fdf0:	0786010c 	streq	r0, [r6, ip, lsl #2]
    fdf4:	0a000008 	beq	fe1c <malloc+0x15d0>
    fdf8:	e596c010 	ldr	ip, [r6, #16]
    fdfc:	e158000c 	cmp	r8, ip
    fe00:	3afffc6c 	bcc	efb8 <malloc+0x76c>
    fe04:	e598c010 	ldr	ip, [r8, #16]
    fe08:	e15c0001 	cmp	ip, r1
    fe0c:	05880010 	streq	r0, [r8, #16]
    fe10:	15880014 	strne	r0, [r8, #20]
    fe14:	e3500000 	cmp	r0, #0
    fe18:	0affff9e 	beq	fc98 <malloc+0x144c>
    fe1c:	e596e010 	ldr	lr, [r6, #16]
    fe20:	e150000e 	cmp	r0, lr
    fe24:	3afffc63 	bcc	efb8 <malloc+0x76c>
    fe28:	e591c010 	ldr	ip, [r1, #16]
    fe2c:	e5808018 	str	r8, [r0, #24]
    fe30:	e35c0000 	cmp	ip, #0
    fe34:	0a000003 	beq	fe48 <malloc+0x15fc>
    fe38:	e15e000c 	cmp	lr, ip
    fe3c:	8afffc5d 	bhi	efb8 <malloc+0x76c>
    fe40:	e580c010 	str	ip, [r0, #16]
    fe44:	e58c0018 	str	r0, [ip, #24]
    fe48:	e591c014 	ldr	ip, [r1, #20]
    fe4c:	e35c0000 	cmp	ip, #0
    fe50:	0affff90 	beq	fc98 <malloc+0x144c>
    fe54:	e15e000c 	cmp	lr, ip
    fe58:	8afffc56 	bhi	efb8 <malloc+0x76c>
    fe5c:	e580c014 	str	ip, [r0, #20]
    fe60:	e58c0018 	str	r0, [ip, #24]
    fe64:	eaffff8b 	b	fc98 <malloc+0x144c>
    fe68:	e596c010 	ldr	ip, [r6, #16]
    fe6c:	e0801103 	add	r1, r0, r3, lsl #2
    fe70:	e15c0001 	cmp	ip, r1
    fe74:	8afffc4f 	bhi	efb8 <malloc+0x76c>
    fe78:	e7802103 	str	r2, [r0, r3, lsl #2]
    fe7c:	e5820018 	str	r0, [r2, #24]
    fe80:	e582200c 	str	r2, [r2, #12]
    fe84:	e5822008 	str	r2, [r2, #8]
    fe88:	eafffd12 	b	f2d8 <malloc+0xa8c>
    fe8c:	e35b0000 	cmp	fp, #0
    fe90:	0afffcb1 	beq	f15c <malloc+0x910>
    fe94:	e590201c 	ldr	r2, [r0, #28]
    fe98:	e282304c 	add	r3, r2, #76	; 0x4c
    fe9c:	e7967103 	ldr	r7, [r6, r3, lsl #2]
    fea0:	e1500007 	cmp	r0, r7
    fea4:	13a07000 	movne	r7, #0
    fea8:	1afffc92 	bne	f0f8 <malloc+0x8ac>
    feac:	e3a0b001 	mov	fp, #1
    feb0:	e3a07000 	mov	r7, #0
    feb4:	e1c5521b 	bic	r5, r5, fp, lsl r2
    feb8:	e7867103 	str	r7, [r6, r3, lsl #2]
    febc:	e5865004 	str	r5, [r6, #4]
    fec0:	eafffca5 	b	f15c <malloc+0x910>
    fec4:	e5910014 	ldr	r0, [r1, #20]
    fec8:	e281c014 	add	ip, r1, #20
    fecc:	e3500000 	cmp	r0, #0
    fed0:	0a000014 	beq	ff28 <malloc+0x16dc>
    fed4:	e1a0e000 	mov	lr, r0
    fed8:	e1a0700c 	mov	r7, ip
    fedc:	e1a0c00e 	mov	ip, lr
    fee0:	e1a0000e 	mov	r0, lr
    fee4:	e5bce014 	ldr	lr, [ip, #20]!
    fee8:	e35e0000 	cmp	lr, #0
    feec:	1afffff9 	bne	fed8 <malloc+0x168c>
    fef0:	e1a0c000 	mov	ip, r0
    fef4:	e5bce010 	ldr	lr, [ip, #16]!
    fef8:	e35e0000 	cmp	lr, #0
    fefc:	1afffff5 	bne	fed8 <malloc+0x168c>
    ff00:	e596c010 	ldr	ip, [r6, #16]
    ff04:	e15c0007 	cmp	ip, r7
    ff08:	8afffc2a 	bhi	efb8 <malloc+0x76c>
    ff0c:	e587e000 	str	lr, [r7]
    ff10:	eaffffb0 	b	fdd8 <malloc+0x158c>
    ff14:	e5960000 	ldr	r0, [r6]
    ff18:	e3a0c001 	mov	ip, #1
    ff1c:	e1c0ee1c 	bic	lr, r0, ip, lsl lr
    ff20:	e586e000 	str	lr, [r6]
    ff24:	eaffff5b 	b	fc98 <malloc+0x144c>
    ff28:	e5910010 	ldr	r0, [r1, #16]
    ff2c:	e281c010 	add	ip, r1, #16
    ff30:	e3500000 	cmp	r0, #0
    ff34:	1affffe6 	bne	fed4 <malloc+0x1688>
    ff38:	e3580000 	cmp	r8, #0
    ff3c:	0affff55 	beq	fc98 <malloc+0x144c>
    ff40:	e591c01c 	ldr	ip, [r1, #28]
    ff44:	e28ce04c 	add	lr, ip, #76	; 0x4c
    ff48:	e796710e 	ldr	r7, [r6, lr, lsl #2]
    ff4c:	e1570001 	cmp	r7, r1
    ff50:	1affffa8 	bne	fdf8 <malloc+0x15ac>
    ff54:	e5960004 	ldr	r0, [r6, #4]
    ff58:	e3a07001 	mov	r7, #1
    ff5c:	e3a08000 	mov	r8, #0
    ff60:	e786810e 	str	r8, [r6, lr, lsl #2]
    ff64:	e1c00c17 	bic	r0, r0, r7, lsl ip
    ff68:	e5860004 	str	r0, [r6, #4]
    ff6c:	eaffff49 	b	fc98 <malloc+0x144c>
    ff70:	e596e010 	ldr	lr, [r6, #16]
    ff74:	e15e0000 	cmp	lr, r0
    ff78:	8afffc0e 	bhi	efb8 <malloc+0x76c>
    ff7c:	e590e008 	ldr	lr, [r0, #8]
    ff80:	e15e0001 	cmp	lr, r1
    ff84:	0affff41 	beq	fc90 <malloc+0x1444>
    ff88:	eafffc0a 	b	efb8 <malloc+0x76c>
    ff8c:	e3048284 	movw	r8, #17028	; 0x4284
    ff90:	e3408001 	movt	r8, #1
    ff94:	e5983000 	ldr	r3, [r8]
    ff98:	e3530000 	cmp	r3, #0
    ff9c:	1afffaf1 	bne	eb68 <malloc+0x31c>
    ffa0:	eafffaef 	b	eb64 <malloc+0x318>

0000ffa4 <free>:
    ffa4:	e3500000 	cmp	r0, #0
    ffa8:	012fff1e 	bxeq	lr
    ffac:	e30410ac 	movw	r1, #16556	; 0x40ac
    ffb0:	e92d41f0 	push	{r4, r5, r6, r7, r8, lr}
    ffb4:	e3401001 	movt	r1, #1
    ffb8:	e2402008 	sub	r2, r0, #8
    ffbc:	e591e010 	ldr	lr, [r1, #16]
    ffc0:	e15e0002 	cmp	lr, r2
    ffc4:	8a00004a 	bhi	100f4 <free+0x150>
    ffc8:	e5103004 	ldr	r3, [r0, #-4]
    ffcc:	e2034003 	and	r4, r3, #3
    ffd0:	e3540001 	cmp	r4, #1
    ffd4:	0a000046 	beq	100f4 <free+0x150>
    ffd8:	e3130001 	tst	r3, #1
    ffdc:	e3c33007 	bic	r3, r3, #7
    ffe0:	e082c003 	add	ip, r2, r3
    ffe4:	0a00001f 	beq	10068 <free+0xc4>
    ffe8:	e152000c 	cmp	r2, ip
    ffec:	2a000040 	bcs	100f4 <free+0x150>
    fff0:	e59c0004 	ldr	r0, [ip, #4]
    fff4:	e3100001 	tst	r0, #1
    fff8:	0a00003d 	beq	100f4 <free+0x150>
    fffc:	e2104002 	ands	r4, r0, #2
   10000:	0a00003d 	beq	100fc <free+0x158>
   10004:	e3c00001 	bic	r0, r0, #1
   10008:	e383e001 	orr	lr, r3, #1
   1000c:	e58c0004 	str	r0, [ip, #4]
   10010:	e582e004 	str	lr, [r2, #4]
   10014:	e7823003 	str	r3, [r2, r3]
   10018:	e1a001a3 	lsr	r0, r3, #3
   1001c:	e350001f 	cmp	r0, #31
   10020:	8a00007e 	bhi	10220 <free+0x27c>
   10024:	e353000f 	cmp	r3, #15
   10028:	e0813180 	add	r3, r1, r0, lsl #3
   1002c:	e2833028 	add	r3, r3, #40	; 0x28
   10030:	9a000078 	bls	10218 <free+0x274>
   10034:	e3a0c001 	mov	ip, #1
   10038:	e591e000 	ldr	lr, [r1]
   1003c:	e1a0001c 	lsl	r0, ip, r0
   10040:	e11e0000 	tst	lr, r0
   10044:	1a00006f 	bne	10208 <free+0x264>
   10048:	e1a0c003 	mov	ip, r3
   1004c:	e18e0000 	orr	r0, lr, r0
   10050:	e5810000 	str	r0, [r1]
   10054:	e5832008 	str	r2, [r3, #8]
   10058:	e58c200c 	str	r2, [ip, #12]
   1005c:	e582c008 	str	ip, [r2, #8]
   10060:	e582300c 	str	r3, [r2, #12]
   10064:	e8bd81f0 	pop	{r4, r5, r6, r7, r8, pc}
   10068:	e3540000 	cmp	r4, #0
   1006c:	08bd81f0 	popeq	{r4, r5, r6, r7, r8, pc}
   10070:	e5104008 	ldr	r4, [r0, #-8]
   10074:	e0422004 	sub	r2, r2, r4
   10078:	e0833004 	add	r3, r3, r4
   1007c:	e15e0002 	cmp	lr, r2
   10080:	8a00001b 	bhi	100f4 <free+0x150>
   10084:	e5910014 	ldr	r0, [r1, #20]
   10088:	e1500002 	cmp	r0, r2
   1008c:	0a00011b 	beq	10500 <free+0x55c>
   10090:	e1a061a4 	lsr	r6, r4, #3
   10094:	e592000c 	ldr	r0, [r2, #12]
   10098:	e356001f 	cmp	r6, #31
   1009c:	8a000079 	bhi	10288 <free+0x2e4>
   100a0:	e1500002 	cmp	r0, r2
   100a4:	e5925008 	ldr	r5, [r2, #8]
   100a8:	0a00005a 	beq	10218 <free+0x274>
   100ac:	e1520005 	cmp	r2, r5
   100b0:	0a000058 	beq	10218 <free+0x274>
   100b4:	e5927004 	ldr	r7, [r2, #4]
   100b8:	e3c44007 	bic	r4, r4, #7
   100bc:	e3c77007 	bic	r7, r7, #7
   100c0:	e1570004 	cmp	r7, r4
   100c4:	1a000053 	bne	10218 <free+0x274>
   100c8:	e0814186 	add	r4, r1, r6, lsl #3
   100cc:	e2844028 	add	r4, r4, #40	; 0x28
   100d0:	e1540005 	cmp	r4, r5
   100d4:	1a0000d6 	bne	10434 <free+0x490>
   100d8:	e1500005 	cmp	r0, r5
   100dc:	0a000125 	beq	10578 <free+0x5d4>
   100e0:	e1540000 	cmp	r4, r0
   100e4:	1a000155 	bne	10640 <free+0x69c>
   100e8:	e585000c 	str	r0, [r5, #12]
   100ec:	e5805008 	str	r5, [r0, #8]
   100f0:	eaffffbc 	b	ffe8 <free+0x44>
   100f4:	e3e00000 	mvn	r0, #0
   100f8:	ebffdfc0 	bl	8000 <exit>
   100fc:	e5916018 	ldr	r6, [r1, #24]
   10100:	e5915014 	ldr	r5, [r1, #20]
   10104:	e156000c 	cmp	r6, ip
   10108:	0a0000ed 	beq	104c4 <free+0x520>
   1010c:	e155000c 	cmp	r5, ip
   10110:	0a000105 	beq	1052c <free+0x588>
   10114:	e3c00007 	bic	r0, r0, #7
   10118:	e59c400c 	ldr	r4, [ip, #12]
   1011c:	e1a061a0 	lsr	r6, r0, #3
   10120:	e0833000 	add	r3, r3, r0
   10124:	e356001f 	cmp	r6, #31
   10128:	9a000086 	bls	10348 <free+0x3a4>
   1012c:	e154000c 	cmp	r4, ip
   10130:	e59c8018 	ldr	r8, [ip, #24]
   10134:	0a000114 	beq	1058c <free+0x5e8>
   10138:	e59c0008 	ldr	r0, [ip, #8]
   1013c:	e15e0000 	cmp	lr, r0
   10140:	8a000034 	bhi	10218 <free+0x274>
   10144:	e590500c 	ldr	r5, [r0, #12]
   10148:	e155000c 	cmp	r5, ip
   1014c:	1a000031 	bne	10218 <free+0x274>
   10150:	e5945008 	ldr	r5, [r4, #8]
   10154:	e155000c 	cmp	r5, ip
   10158:	1a00002e 	bne	10218 <free+0x274>
   1015c:	e580400c 	str	r4, [r0, #12]
   10160:	e5840008 	str	r0, [r4, #8]
   10164:	e3580000 	cmp	r8, #0
   10168:	0a000100 	beq	10570 <free+0x5cc>
   1016c:	e59c001c 	ldr	r0, [ip, #28]
   10170:	e280004c 	add	r0, r0, #76	; 0x4c
   10174:	e7915100 	ldr	r5, [r1, r0, lsl #2]
   10178:	e155000c 	cmp	r5, ip
   1017c:	07814100 	streq	r4, [r1, r0, lsl #2]
   10180:	0a000007 	beq	101a4 <free+0x200>
   10184:	e15e0008 	cmp	lr, r8
   10188:	8a000022 	bhi	10218 <free+0x274>
   1018c:	e5980010 	ldr	r0, [r8, #16]
   10190:	e150000c 	cmp	r0, ip
   10194:	05884010 	streq	r4, [r8, #16]
   10198:	15884014 	strne	r4, [r8, #20]
   1019c:	e3540000 	cmp	r4, #0
   101a0:	0a0000f2 	beq	10570 <free+0x5cc>
   101a4:	e15e0004 	cmp	lr, r4
   101a8:	8a00001a 	bhi	10218 <free+0x274>
   101ac:	e59c0010 	ldr	r0, [ip, #16]
   101b0:	e5848018 	str	r8, [r4, #24]
   101b4:	e3500000 	cmp	r0, #0
   101b8:	0a000003 	beq	101cc <free+0x228>
   101bc:	e15e0000 	cmp	lr, r0
   101c0:	8a000014 	bhi	10218 <free+0x274>
   101c4:	e5840010 	str	r0, [r4, #16]
   101c8:	e5804018 	str	r4, [r0, #24]
   101cc:	e59c0014 	ldr	r0, [ip, #20]
   101d0:	e3500000 	cmp	r0, #0
   101d4:	0a0000e5 	beq	10570 <free+0x5cc>
   101d8:	e15e0000 	cmp	lr, r0
   101dc:	8a00000d 	bhi	10218 <free+0x274>
   101e0:	e5915014 	ldr	r5, [r1, #20]
   101e4:	e5840014 	str	r0, [r4, #20]
   101e8:	e5804018 	str	r4, [r0, #24]
   101ec:	e1520005 	cmp	r2, r5
   101f0:	e3830001 	orr	r0, r3, #1
   101f4:	e5820004 	str	r0, [r2, #4]
   101f8:	e7823003 	str	r3, [r2, r3]
   101fc:	1affff85 	bne	10018 <free+0x74>
   10200:	e5813008 	str	r3, [r1, #8]
   10204:	e8bd81f0 	pop	{r4, r5, r6, r7, r8, pc}
   10208:	e5911010 	ldr	r1, [r1, #16]
   1020c:	e593c008 	ldr	ip, [r3, #8]
   10210:	e15c0001 	cmp	ip, r1
   10214:	2affff8e 	bcs	10054 <free+0xb0>
   10218:	e3e00000 	mvn	r0, #0
   1021c:	ebffdf77 	bl	8000 <exit>
   10220:	e1a0c423 	lsr	ip, r3, #8
   10224:	e35c0801 	cmp	ip, #65536	; 0x10000
   10228:	3a000056 	bcc	10388 <free+0x3e4>
   1022c:	e3a0e102 	mov	lr, #-2147483648	; 0x80000000
   10230:	e3a05f6b 	mov	r5, #428	; 0x1ac
   10234:	e3a0001f 	mov	r0, #31
   10238:	e3a0606b 	mov	r6, #107	; 0x6b
   1023c:	e5914004 	ldr	r4, [r1, #4]
   10240:	e3a0c000 	mov	ip, #0
   10244:	e582001c 	str	r0, [r2, #28]
   10248:	e582c014 	str	ip, [r2, #20]
   1024c:	e11e0004 	tst	lr, r4
   10250:	e582c010 	str	ip, [r2, #16]
   10254:	1a00007c 	bne	1044c <free+0x4a8>
   10258:	e18ee004 	orr	lr, lr, r4
   1025c:	e0813005 	add	r3, r1, r5
   10260:	e7812106 	str	r2, [r1, r6, lsl #2]
   10264:	e581e004 	str	lr, [r1, #4]
   10268:	e5823018 	str	r3, [r2, #24]
   1026c:	e582200c 	str	r2, [r2, #12]
   10270:	e5822008 	str	r2, [r2, #8]
   10274:	e5913020 	ldr	r3, [r1, #32]
   10278:	e2533001 	subs	r3, r3, #1
   1027c:	03e03000 	mvneq	r3, #0
   10280:	e5813020 	str	r3, [r1, #32]
   10284:	e8bd81f0 	pop	{r4, r5, r6, r7, r8, pc}
   10288:	e1500002 	cmp	r0, r2
   1028c:	e5927018 	ldr	r7, [r2, #24]
   10290:	0a000055 	beq	103ec <free+0x448>
   10294:	e5924008 	ldr	r4, [r2, #8]
   10298:	e15e0004 	cmp	lr, r4
   1029c:	8affffdd 	bhi	10218 <free+0x274>
   102a0:	e594500c 	ldr	r5, [r4, #12]
   102a4:	e1550002 	cmp	r5, r2
   102a8:	1affffda 	bne	10218 <free+0x274>
   102ac:	e5905008 	ldr	r5, [r0, #8]
   102b0:	e1550002 	cmp	r5, r2
   102b4:	1affffd7 	bne	10218 <free+0x274>
   102b8:	e584000c 	str	r0, [r4, #12]
   102bc:	e5804008 	str	r4, [r0, #8]
   102c0:	e3570000 	cmp	r7, #0
   102c4:	0affff47 	beq	ffe8 <free+0x44>
   102c8:	e592401c 	ldr	r4, [r2, #28]
   102cc:	e284404c 	add	r4, r4, #76	; 0x4c
   102d0:	e7915104 	ldr	r5, [r1, r4, lsl #2]
   102d4:	e1550002 	cmp	r5, r2
   102d8:	07810104 	streq	r0, [r1, r4, lsl #2]
   102dc:	0a000007 	beq	10300 <free+0x35c>
   102e0:	e15e0007 	cmp	lr, r7
   102e4:	8affffcb 	bhi	10218 <free+0x274>
   102e8:	e5974010 	ldr	r4, [r7, #16]
   102ec:	e1540002 	cmp	r4, r2
   102f0:	05870010 	streq	r0, [r7, #16]
   102f4:	15870014 	strne	r0, [r7, #20]
   102f8:	e3500000 	cmp	r0, #0
   102fc:	0affff39 	beq	ffe8 <free+0x44>
   10300:	e15e0000 	cmp	lr, r0
   10304:	8affffc3 	bhi	10218 <free+0x274>
   10308:	e5924010 	ldr	r4, [r2, #16]
   1030c:	e5807018 	str	r7, [r0, #24]
   10310:	e3540000 	cmp	r4, #0
   10314:	0a000003 	beq	10328 <free+0x384>
   10318:	e15e0004 	cmp	lr, r4
   1031c:	8affffbd 	bhi	10218 <free+0x274>
   10320:	e5804010 	str	r4, [r0, #16]
   10324:	e5840018 	str	r0, [r4, #24]
   10328:	e5924014 	ldr	r4, [r2, #20]
   1032c:	e3540000 	cmp	r4, #0
   10330:	0affff2c 	beq	ffe8 <free+0x44>
   10334:	e15e0004 	cmp	lr, r4
   10338:	8affffb6 	bhi	10218 <free+0x274>
   1033c:	e5804014 	str	r4, [r0, #20]
   10340:	e5840018 	str	r0, [r4, #24]
   10344:	eaffff27 	b	ffe8 <free+0x44>
   10348:	e154000c 	cmp	r4, ip
   1034c:	e59c0008 	ldr	r0, [ip, #8]
   10350:	0affffb0 	beq	10218 <free+0x274>
   10354:	e15c0000 	cmp	ip, r0
   10358:	0affffae 	beq	10218 <free+0x274>
   1035c:	e0817186 	add	r7, r1, r6, lsl #3
   10360:	e2877028 	add	r7, r7, #40	; 0x28
   10364:	e1570000 	cmp	r7, r0
   10368:	1a0000a9 	bne	10614 <free+0x670>
   1036c:	e1540000 	cmp	r4, r0
   10370:	0a00009d 	beq	105ec <free+0x648>
   10374:	e1540007 	cmp	r4, r7
   10378:	1a0000b6 	bne	10658 <free+0x6b4>
   1037c:	e580400c 	str	r4, [r0, #12]
   10380:	e5840008 	str	r0, [r4, #8]
   10384:	eaffff98 	b	101ec <free+0x248>
   10388:	e24c0c01 	sub	r0, ip, #256	; 0x100
   1038c:	e3a0e001 	mov	lr, #1
   10390:	e1a00820 	lsr	r0, r0, #16
   10394:	e2000008 	and	r0, r0, #8
   10398:	e1a0401c 	lsl	r4, ip, r0
   1039c:	e244ca01 	sub	ip, r4, #4096	; 0x1000
   103a0:	e1a0c82c 	lsr	ip, ip, #16
   103a4:	e20cc004 	and	ip, ip, #4
   103a8:	e1a04c14 	lsl	r4, r4, ip
   103ac:	e180c00c 	orr	ip, r0, ip
   103b0:	e2440901 	sub	r0, r4, #16384	; 0x4000
   103b4:	e1a00820 	lsr	r0, r0, #16
   103b8:	e2000002 	and	r0, r0, #2
   103bc:	e1a04014 	lsl	r4, r4, r0
   103c0:	e08cc000 	add	ip, ip, r0
   103c4:	e06cc7a4 	rsb	ip, ip, r4, lsr #15
   103c8:	e28c0015 	add	r0, ip, #21
   103cc:	e28cc00e 	add	ip, ip, #14
   103d0:	e1a00033 	lsr	r0, r3, r0
   103d4:	e000000e 	and	r0, r0, lr
   103d8:	e0800e1c 	add	r0, r0, ip, lsl lr
   103dc:	e280604c 	add	r6, r0, #76	; 0x4c
   103e0:	e1a0e01e 	lsl	lr, lr, r0
   103e4:	e1a05106 	lsl	r5, r6, #2
   103e8:	eaffff93 	b	1023c <free+0x298>
   103ec:	e5925014 	ldr	r5, [r2, #20]
   103f0:	e3550000 	cmp	r5, #0
   103f4:	12824014 	addne	r4, r2, #20
   103f8:	0a000080 	beq	10600 <free+0x65c>
   103fc:	e1a06004 	mov	r6, r4
   10400:	e1a04005 	mov	r4, r5
   10404:	e1a00005 	mov	r0, r5
   10408:	e5b45014 	ldr	r5, [r4, #20]!
   1040c:	e3550000 	cmp	r5, #0
   10410:	1afffff9 	bne	103fc <free+0x458>
   10414:	e1a04000 	mov	r4, r0
   10418:	e5b45010 	ldr	r5, [r4, #16]!
   1041c:	e3550000 	cmp	r5, #0
   10420:	1afffff5 	bne	103fc <free+0x458>
   10424:	e15e0006 	cmp	lr, r6
   10428:	8affff7a 	bhi	10218 <free+0x274>
   1042c:	e5865000 	str	r5, [r6]
   10430:	eaffffa2 	b	102c0 <free+0x31c>
   10434:	e15e0005 	cmp	lr, r5
   10438:	8affff76 	bhi	10218 <free+0x274>
   1043c:	e595700c 	ldr	r7, [r5, #12]
   10440:	e1570002 	cmp	r7, r2
   10444:	0affff23 	beq	100d8 <free+0x134>
   10448:	eaffff72 	b	10218 <free+0x274>
   1044c:	e350001f 	cmp	r0, #31
   10450:	e791e106 	ldr	lr, [r1, r6, lsl #2]
   10454:	11a0c0a0 	lsrne	ip, r0, #1
   10458:	01a0c003 	moveq	ip, r3
   1045c:	126cc019 	rsbne	ip, ip, #25
   10460:	11a0cc13 	lslne	ip, r3, ip
   10464:	ea000006 	b	10484 <free+0x4e0>
   10468:	e1a00fac 	lsr	r0, ip, #31
   1046c:	e1a0c08c 	lsl	ip, ip, #1
   10470:	e2800004 	add	r0, r0, #4
   10474:	e79e4100 	ldr	r4, [lr, r0, lsl #2]
   10478:	e3540000 	cmp	r4, #0
   1047c:	0a000032 	beq	1054c <free+0x5a8>
   10480:	e1a0e004 	mov	lr, r4
   10484:	e59e0004 	ldr	r0, [lr, #4]
   10488:	e3c00007 	bic	r0, r0, #7
   1048c:	e1500003 	cmp	r0, r3
   10490:	1afffff4 	bne	10468 <free+0x4c4>
   10494:	e59e3008 	ldr	r3, [lr, #8]
   10498:	e5910010 	ldr	r0, [r1, #16]
   1049c:	e1500003 	cmp	r0, r3
   104a0:	9150000e 	cmpls	r0, lr
   104a4:	8affff5b 	bhi	10218 <free+0x274>
   104a8:	e3a00000 	mov	r0, #0
   104ac:	e583200c 	str	r2, [r3, #12]
   104b0:	e58e2008 	str	r2, [lr, #8]
   104b4:	e5823008 	str	r3, [r2, #8]
   104b8:	e582e00c 	str	lr, [r2, #12]
   104bc:	e5820018 	str	r0, [r2, #24]
   104c0:	eaffff6b 	b	10274 <free+0x2d0>
   104c4:	e591000c 	ldr	r0, [r1, #12]
   104c8:	e1520005 	cmp	r2, r5
   104cc:	e5812018 	str	r2, [r1, #24]
   104d0:	e0833000 	add	r3, r3, r0
   104d4:	e3830001 	orr	r0, r3, #1
   104d8:	e581300c 	str	r3, [r1, #12]
   104dc:	e5820004 	str	r0, [r2, #4]
   104e0:	e591201c 	ldr	r2, [r1, #28]
   104e4:	05814014 	streq	r4, [r1, #20]
   104e8:	05814008 	streq	r4, [r1, #8]
   104ec:	e1530002 	cmp	r3, r2
   104f0:	98bd81f0 	popls	{r4, r5, r6, r7, r8, pc}
   104f4:	e3a00000 	mov	r0, #0
   104f8:	e8bd41f0 	pop	{r4, r5, r6, r7, r8, lr}
   104fc:	eafff86e 	b	e6bc <sys_trim.constprop.7>
   10500:	e59c4004 	ldr	r4, [ip, #4]
   10504:	e2045003 	and	r5, r4, #3
   10508:	e3550003 	cmp	r5, #3
   1050c:	1afffeb5 	bne	ffe8 <free+0x44>
   10510:	e3c44001 	bic	r4, r4, #1
   10514:	e3832001 	orr	r2, r3, #1
   10518:	e5813008 	str	r3, [r1, #8]
   1051c:	e58c4004 	str	r4, [ip, #4]
   10520:	e5802004 	str	r2, [r0, #4]
   10524:	e58c3000 	str	r3, [ip]
   10528:	e8bd81f0 	pop	{r4, r5, r6, r7, r8, pc}
   1052c:	e5910008 	ldr	r0, [r1, #8]
   10530:	e5812014 	str	r2, [r1, #20]
   10534:	e0833000 	add	r3, r3, r0
   10538:	e3830001 	orr	r0, r3, #1
   1053c:	e5813008 	str	r3, [r1, #8]
   10540:	e5820004 	str	r0, [r2, #4]
   10544:	e7823003 	str	r3, [r2, r3]
   10548:	e8bd81f0 	pop	{r4, r5, r6, r7, r8, pc}
   1054c:	e591c010 	ldr	ip, [r1, #16]
   10550:	e08e3100 	add	r3, lr, r0, lsl #2
   10554:	e15c0003 	cmp	ip, r3
   10558:	8affff2e 	bhi	10218 <free+0x274>
   1055c:	e78e2100 	str	r2, [lr, r0, lsl #2]
   10560:	e582e018 	str	lr, [r2, #24]
   10564:	e582200c 	str	r2, [r2, #12]
   10568:	e5822008 	str	r2, [r2, #8]
   1056c:	eaffff40 	b	10274 <free+0x2d0>
   10570:	e5915014 	ldr	r5, [r1, #20]
   10574:	eaffff1c 	b	101ec <free+0x248>
   10578:	e5910000 	ldr	r0, [r1]
   1057c:	e3a04001 	mov	r4, #1
   10580:	e1c06614 	bic	r6, r0, r4, lsl r6
   10584:	e5816000 	str	r6, [r1]
   10588:	eafffe96 	b	ffe8 <free+0x44>
   1058c:	e59c7014 	ldr	r7, [ip, #20]
   10590:	e3570000 	cmp	r7, #0
   10594:	128c0014 	addne	r0, ip, #20
   10598:	0a000023 	beq	1062c <free+0x688>
   1059c:	e1a04007 	mov	r4, r7
   105a0:	e1a06000 	mov	r6, r0
   105a4:	e1a00004 	mov	r0, r4
   105a8:	e5b05014 	ldr	r5, [r0, #20]!
   105ac:	e3550000 	cmp	r5, #0
   105b0:	0a000005 	beq	105cc <free+0x628>
   105b4:	e1a04005 	mov	r4, r5
   105b8:	e1a06000 	mov	r6, r0
   105bc:	e1a00004 	mov	r0, r4
   105c0:	e5b05014 	ldr	r5, [r0, #20]!
   105c4:	e3550000 	cmp	r5, #0
   105c8:	1afffff9 	bne	105b4 <free+0x610>
   105cc:	e1a00004 	mov	r0, r4
   105d0:	e5b07010 	ldr	r7, [r0, #16]!
   105d4:	e3570000 	cmp	r7, #0
   105d8:	1affffef 	bne	1059c <free+0x5f8>
   105dc:	e15e0006 	cmp	lr, r6
   105e0:	8affff0c 	bhi	10218 <free+0x274>
   105e4:	e5867000 	str	r7, [r6]
   105e8:	eafffedd 	b	10164 <free+0x1c0>
   105ec:	e5910000 	ldr	r0, [r1]
   105f0:	e3a0c001 	mov	ip, #1
   105f4:	e1c0661c 	bic	r6, r0, ip, lsl r6
   105f8:	e5816000 	str	r6, [r1]
   105fc:	eafffefa 	b	101ec <free+0x248>
   10600:	e5925010 	ldr	r5, [r2, #16]
   10604:	e3550000 	cmp	r5, #0
   10608:	0a000018 	beq	10670 <free+0x6cc>
   1060c:	e2824010 	add	r4, r2, #16
   10610:	eaffff79 	b	103fc <free+0x458>
   10614:	e15e0000 	cmp	lr, r0
   10618:	8afffefe 	bhi	10218 <free+0x274>
   1061c:	e590800c 	ldr	r8, [r0, #12]
   10620:	e158000c 	cmp	r8, ip
   10624:	0affff50 	beq	1036c <free+0x3c8>
   10628:	eafffefa 	b	10218 <free+0x274>
   1062c:	e59c7010 	ldr	r7, [ip, #16]
   10630:	e3570000 	cmp	r7, #0
   10634:	0a00001b 	beq	106a8 <free+0x704>
   10638:	e28c0010 	add	r0, ip, #16
   1063c:	eaffffd6 	b	1059c <free+0x5f8>
   10640:	e15e0000 	cmp	lr, r0
   10644:	8afffef3 	bhi	10218 <free+0x274>
   10648:	e5904008 	ldr	r4, [r0, #8]
   1064c:	e1540002 	cmp	r4, r2
   10650:	0afffea4 	beq	100e8 <free+0x144>
   10654:	eafffeef 	b	10218 <free+0x274>
   10658:	e15e0004 	cmp	lr, r4
   1065c:	8afffeed 	bhi	10218 <free+0x274>
   10660:	e594e008 	ldr	lr, [r4, #8]
   10664:	e15e000c 	cmp	lr, ip
   10668:	0affff43 	beq	1037c <free+0x3d8>
   1066c:	eafffee9 	b	10218 <free+0x274>
   10670:	e3570000 	cmp	r7, #0
   10674:	0afffe5b 	beq	ffe8 <free+0x44>
   10678:	e592401c 	ldr	r4, [r2, #28]
   1067c:	e284804c 	add	r8, r4, #76	; 0x4c
   10680:	e7910108 	ldr	r0, [r1, r8, lsl #2]
   10684:	e1500002 	cmp	r0, r2
   10688:	11a00005 	movne	r0, r5
   1068c:	1affff13 	bne	102e0 <free+0x33c>
   10690:	e5910004 	ldr	r0, [r1, #4]
   10694:	e3a06001 	mov	r6, #1
   10698:	e7815108 	str	r5, [r1, r8, lsl #2]
   1069c:	e1c00416 	bic	r0, r0, r6, lsl r4
   106a0:	e5810004 	str	r0, [r1, #4]
   106a4:	eafffe4f 	b	ffe8 <free+0x44>
   106a8:	e3580000 	cmp	r8, #0
   106ac:	0afffece 	beq	101ec <free+0x248>
   106b0:	e59c401c 	ldr	r4, [ip, #28]
   106b4:	e284504c 	add	r5, r4, #76	; 0x4c
   106b8:	e7910105 	ldr	r0, [r1, r5, lsl #2]
   106bc:	e150000c 	cmp	r0, ip
   106c0:	13a04000 	movne	r4, #0
   106c4:	1afffeae 	bne	10184 <free+0x1e0>
   106c8:	e5910004 	ldr	r0, [r1, #4]
   106cc:	e3a0c001 	mov	ip, #1
   106d0:	e3a0e000 	mov	lr, #0
   106d4:	e781e105 	str	lr, [r1, r5, lsl #2]
   106d8:	e5915014 	ldr	r5, [r1, #20]
   106dc:	e1c0041c 	bic	r0, r0, ip, lsl r4
   106e0:	e5810004 	str	r0, [r1, #4]
   106e4:	eafffec0 	b	101ec <free+0x248>

000106e8 <_stdio_fgetc>:
   106e8:	e3a000ff 	mov	r0, #255	; 0xff
   106ec:	e12fff1e 	bx	lr

000106f0 <_stdio_vfprintf>:
   106f0:	e1a03002 	mov	r3, r2
   106f4:	e1a02001 	mov	r2, r1
   106f8:	e1a01000 	mov	r1, r0
   106fc:	e30007c4 	movw	r0, #1988	; 0x7c4
   10700:	e3400001 	movt	r0, #1
   10704:	ea000325 	b	113a0 <_printf_engine>

00010708 <_stdio_fputc>:
   10708:	e92d4010 	push	{r4, lr}
   1070c:	e6ef1071 	uxtb	r1, r1
   10710:	e8900011 	ldm	r0, {r0, r4}
   10714:	e5943080 	ldr	r3, [r4, #128]	; 0x80
   10718:	e2832001 	add	r2, r3, #1
   1071c:	e351000a 	cmp	r1, #10
   10720:	13520080 	cmpne	r2, #128	; 0x80
   10724:	e5842080 	str	r2, [r4, #128]	; 0x80
   10728:	e7c41003 	strb	r1, [r4, r3]
   1072c:	1a000003 	bne	10740 <_stdio_fputc+0x38>
   10730:	e1a01004 	mov	r1, r4
   10734:	eb000086 	bl	10954 <write>
   10738:	e3a03000 	mov	r3, #0
   1073c:	e5843080 	str	r3, [r4, #128]	; 0x80
   10740:	e3e00102 	mvn	r0, #-2147483648	; 0x80000000
   10744:	e8bd8010 	pop	{r4, pc}

00010748 <buffered_write.part.0>:
   10748:	e92d47f0 	push	{r4, r5, r6, r7, r8, r9, sl, lr}
   1074c:	e2528000 	subs	r8, r2, #0
   10750:	0a000019 	beq	107bc <buffered_write.part.0+0x74>
   10754:	e2489001 	sub	r9, r8, #1
   10758:	e1a06000 	mov	r6, r0
   1075c:	e2415001 	sub	r5, r1, #1
   10760:	e0819009 	add	r9, r1, r9
   10764:	e3a07000 	mov	r7, #0
   10768:	ea000001 	b	10774 <buffered_write.part.0+0x2c>
   1076c:	e1550009 	cmp	r5, r9
   10770:	0a000011 	beq	107bc <buffered_write.part.0+0x74>
   10774:	e5964004 	ldr	r4, [r6, #4]
   10778:	e5f5e001 	ldrb	lr, [r5, #1]!
   1077c:	e5960000 	ldr	r0, [r6]
   10780:	e594c080 	ldr	ip, [r4, #128]	; 0x80
   10784:	e1a01004 	mov	r1, r4
   10788:	e28c3001 	add	r3, ip, #1
   1078c:	e35e000a 	cmp	lr, #10
   10790:	13530080 	cmpne	r3, #128	; 0x80
   10794:	e5843080 	str	r3, [r4, #128]	; 0x80
   10798:	e1a02003 	mov	r2, r3
   1079c:	e7c4e00c 	strb	lr, [r4, ip]
   107a0:	1afffff1 	bne	1076c <buffered_write.part.0+0x24>
   107a4:	eb00006a 	bl	10954 <write>
   107a8:	e3500000 	cmp	r0, #0
   107ac:	e5847080 	str	r7, [r4, #128]	; 0x80
   107b0:	b8bd87f0 	poplt	{r4, r5, r6, r7, r8, r9, sl, pc}
   107b4:	e1550009 	cmp	r5, r9
   107b8:	1affffed 	bne	10774 <buffered_write.part.0+0x2c>
   107bc:	e1a00008 	mov	r0, r8
   107c0:	e8bd87f0 	pop	{r4, r5, r6, r7, r8, r9, sl, pc}

000107c4 <_output_func>:
   107c4:	e92d4070 	push	{r4, r5, r6, lr}
   107c8:	e1a04002 	mov	r4, r2
   107cc:	e1a05000 	mov	r5, r0
   107d0:	eb0005ad 	bl	11e8c <strnlen>
   107d4:	e5943004 	ldr	r3, [r4, #4]
   107d8:	e3530000 	cmp	r3, #0
   107dc:	0a000004 	beq	107f4 <_output_func+0x30>
   107e0:	e1a02000 	mov	r2, r0
   107e4:	e1a01005 	mov	r1, r5
   107e8:	e1a00004 	mov	r0, r4
   107ec:	e8bd4070 	pop	{r4, r5, r6, lr}
   107f0:	eaffffd4 	b	10748 <buffered_write.part.0>
   107f4:	e3e00007 	mvn	r0, #7
   107f8:	e8bd8070 	pop	{r4, r5, r6, pc}

000107fc <_stdio_fputs>:
   107fc:	e92d4070 	push	{r4, r5, r6, lr}
   10800:	e1a04000 	mov	r4, r0
   10804:	e1a00001 	mov	r0, r1
   10808:	e1a05001 	mov	r5, r1
   1080c:	eb000592 	bl	11e5c <strlen>
   10810:	e5943004 	ldr	r3, [r4, #4]
   10814:	e3530000 	cmp	r3, #0
   10818:	0a000004 	beq	10830 <_stdio_fputs+0x34>
   1081c:	e1a02000 	mov	r2, r0
   10820:	e1a01005 	mov	r1, r5
   10824:	e1a00004 	mov	r0, r4
   10828:	e8bd4070 	pop	{r4, r5, r6, lr}
   1082c:	eaffffc5 	b	10748 <buffered_write.part.0>
   10830:	e3e00007 	mvn	r0, #7
   10834:	e8bd8070 	pop	{r4, r5, r6, pc}

00010838 <__libc_fini>:
   10838:	e92d4070 	push	{r4, r5, r6, lr}
   1083c:	e2505000 	subs	r5, r0, #0
   10840:	08bd8070 	popeq	{r4, r5, r6, pc}
   10844:	e5953000 	ldr	r3, [r5]
   10848:	e3730001 	cmn	r3, #1
   1084c:	18bd8070 	popne	{r4, r5, r6, pc}
   10850:	e5952004 	ldr	r2, [r5, #4]
   10854:	e2853004 	add	r3, r5, #4
   10858:	e3520000 	cmp	r2, #0
   1085c:	08bd8070 	popeq	{r4, r5, r6, pc}
   10860:	e3a04000 	mov	r4, #0
   10864:	e5b32004 	ldr	r2, [r3, #4]!
   10868:	e2844001 	add	r4, r4, #1
   1086c:	e3520000 	cmp	r2, #0
   10870:	1afffffb 	bne	10864 <__libc_fini+0x2c>
   10874:	e0854104 	add	r4, r5, r4, lsl #2
   10878:	e4143004 	ldr	r3, [r4], #-4
   1087c:	e3730001 	cmn	r3, #1
   10880:	0a000000 	beq	10888 <__libc_fini+0x50>
   10884:	e12fff33 	blx	r3
   10888:	e1550004 	cmp	r5, r4
   1088c:	1afffff9 	bne	10878 <__libc_fini+0x40>
   10890:	e8bd8070 	pop	{r4, r5, r6, pc}

00010894 <__libc_init>:
   10894:	e92d4010 	push	{r4, lr}
   10898:	e1a05002 	mov	r5, r2
   1089c:	e5924000 	ldr	r4, [r2]
   108a0:	e1a06001 	mov	r6, r1
   108a4:	e5943004 	ldr	r3, [r4, #4]
   108a8:	e3530000 	cmp	r3, #0
   108ac:	0a000004 	beq	108c4 <__libc_init+0x30>
   108b0:	e2844004 	add	r4, r4, #4
   108b4:	e12fff33 	blx	r3
   108b8:	e5b43004 	ldr	r3, [r4, #4]!
   108bc:	e3530000 	cmp	r3, #0
   108c0:	1afffffb 	bne	108b4 <__libc_init+0x20>
   108c4:	e5954004 	ldr	r4, [r5, #4]
   108c8:	e5943004 	ldr	r3, [r4, #4]
   108cc:	e2844004 	add	r4, r4, #4
   108d0:	e3530000 	cmp	r3, #0
   108d4:	0a000003 	beq	108e8 <__libc_init+0x54>
   108d8:	e12fff33 	blx	r3
   108dc:	e5b43004 	ldr	r3, [r4, #4]!
   108e0:	e3530000 	cmp	r3, #0
   108e4:	1afffffb 	bne	108d8 <__libc_init+0x44>
   108e8:	e5951008 	ldr	r1, [r5, #8]
   108ec:	e3510000 	cmp	r1, #0
   108f0:	1a000004 	bne	10908 <__libc_init+0x74>
   108f4:	e3a02000 	mov	r2, #0
   108f8:	e1a01002 	mov	r1, r2
   108fc:	e1a00002 	mov	r0, r2
   10900:	e12fff36 	blx	r6
   10904:	ebffddbd 	bl	8000 <exit>
   10908:	e3000838 	movw	r0, #2104	; 0x838
   1090c:	e3400001 	movt	r0, #1
   10910:	ebfff6dc 	bl	e488 <__cxa_atexit>
   10914:	e3500000 	cmp	r0, #0
   10918:	0afffff5 	beq	108f4 <__libc_init+0x60>
   1091c:	e3030498 	movw	r0, #13464	; 0x3498
   10920:	e3400001 	movt	r0, #1
   10924:	ebffffff 	bl	10928 <__libc_fatal>

00010928 <__libc_fatal>:
   10928:	e92d000f 	push	{r0, r1, r2, r3}
   1092c:	e52de004 	push	{lr}		; (str lr, [sp, #-4]!)
   10930:	e24dd00c 	sub	sp, sp, #12
   10934:	e28d3014 	add	r3, sp, #20
   10938:	e1a02003 	mov	r2, r3
   1093c:	e59d1010 	ldr	r1, [sp, #16]
   10940:	e59f0008 	ldr	r0, [pc, #8]	; 10950 <__libc_fatal+0x28>
   10944:	e58d3004 	str	r3, [sp, #4]
   10948:	eb0004ef 	bl	11d0c <vfprintf>
   1094c:	ebfff6ca 	bl	e47c <abort>
   10950:	00014048 	.word	0x00014048

00010954 <write>:
   10954:	e3a0c001 	mov	ip, #1
   10958:	ef000000 	svc	0x00000000
   1095c:	e12fff1e 	bx	lr

00010960 <brk>:
   10960:	e3a0c002 	mov	ip, #2
   10964:	ef000000 	svc	0x00000000
   10968:	e12fff1e 	bx	lr

0001096c <exit_group>:
   1096c:	e3a0c003 	mov	ip, #3
   10970:	ef000000 	svc	0x00000000
   10974:	e12fff1e 	bx	lr

00010978 <nanosleep>:
   10978:	e3a0c006 	mov	ip, #6
   1097c:	ef000000 	svc	0x00000000
   10980:	e12fff1e 	bx	lr

00010984 <port_create>:
   10984:	e3a0c010 	mov	ip, #16
   10988:	ef000000 	svc	0x00000000
   1098c:	e12fff1e 	bx	lr

00010990 <connect>:
   10990:	e3a0c011 	mov	ip, #17
   10994:	ef000000 	svc	0x00000000
   10998:	e12fff1e 	bx	lr

0001099c <accept>:
   1099c:	e3a0c012 	mov	ip, #18
   109a0:	ef000000 	svc	0x00000000
   109a4:	e12fff1e 	bx	lr

000109a8 <close>:
   109a8:	e3a0c013 	mov	ip, #19
   109ac:	ef000000 	svc	0x00000000
   109b0:	e12fff1e 	bx	lr

000109b4 <set_cookie>:
   109b4:	e3a0c014 	mov	ip, #20
   109b8:	ef000000 	svc	0x00000000
   109bc:	e12fff1e 	bx	lr

000109c0 <wait>:
   109c0:	e3a0c018 	mov	ip, #24
   109c4:	ef000000 	svc	0x00000000
   109c8:	e12fff1e 	bx	lr

000109cc <wait_any>:
   109cc:	e3a0c019 	mov	ip, #25
   109d0:	ef000000 	svc	0x00000000
   109d4:	e12fff1e 	bx	lr

000109d8 <get_msg>:
   109d8:	e3a0c020 	mov	ip, #32
   109dc:	ef000000 	svc	0x00000000
   109e0:	e12fff1e 	bx	lr

000109e4 <read_msg>:
   109e4:	e3a0c021 	mov	ip, #33	; 0x21
   109e8:	ef000000 	svc	0x00000000
   109ec:	e12fff1e 	bx	lr

000109f0 <put_msg>:
   109f0:	e3a0c022 	mov	ip, #34	; 0x22
   109f4:	ef000000 	svc	0x00000000
   109f8:	e12fff1e 	bx	lr

000109fc <send_msg>:
   109fc:	e3a0c023 	mov	ip, #35	; 0x23
   10a00:	ef000000 	svc	0x00000000
   10a04:	e12fff1e 	bx	lr

00010a08 <longlong_to_string>:
   10a08:	e92d4ff8 	push	{r3, r4, r5, r6, r7, r8, r9, sl, fp, lr}
   10a0c:	e1a08000 	mov	r8, r0
   10a10:	e59d902c 	ldr	r9, [sp, #44]	; 0x2c
   10a14:	e1a04002 	mov	r4, r2
   10a18:	e1a05003 	mov	r5, r3
   10a1c:	e59d7028 	ldr	r7, [sp, #40]	; 0x28
   10a20:	e219ab01 	ands	sl, r9, #1024	; 0x400
   10a24:	0a000003 	beq	10a38 <longlong_to_string+0x30>
   10a28:	e3520000 	cmp	r2, #0
   10a2c:	e2d53000 	sbcs	r3, r5, #0
   10a30:	a3a0a000 	movge	sl, #0
   10a34:	ba000030 	blt	10afc <longlong_to_string+0xf4>
   10a38:	e3550000 	cmp	r5, #0
   10a3c:	e2477001 	sub	r7, r7, #1
   10a40:	03540009 	cmpeq	r4, #9
   10a44:	e3a03000 	mov	r3, #0
   10a48:	e088b007 	add	fp, r8, r7
   10a4c:	e7c83007 	strb	r3, [r8, r7]
   10a50:	9a000012 	bls	10aa0 <longlong_to_string+0x98>
   10a54:	e1a00004 	mov	r0, r4
   10a58:	e1a01005 	mov	r1, r5
   10a5c:	e3a0200a 	mov	r2, #10
   10a60:	e3a03000 	mov	r3, #0
   10a64:	fa0005fd 	blx	12260 <__aeabi_uldivmod>
   10a68:	e1a00004 	mov	r0, r4
   10a6c:	e1a06002 	mov	r6, r2
   10a70:	e1a01005 	mov	r1, r5
   10a74:	e3a0200a 	mov	r2, #10
   10a78:	e3a03000 	mov	r3, #0
   10a7c:	e2866030 	add	r6, r6, #48	; 0x30
   10a80:	fa0005f6 	blx	12260 <__aeabi_uldivmod>
   10a84:	e3510000 	cmp	r1, #0
   10a88:	e2477001 	sub	r7, r7, #1
   10a8c:	03500009 	cmpeq	r0, #9
   10a90:	e1a04000 	mov	r4, r0
   10a94:	e1a05001 	mov	r5, r1
   10a98:	e56b6001 	strb	r6, [fp, #-1]!
   10a9c:	8affffec 	bhi	10a54 <longlong_to_string+0x4c>
   10aa0:	e35a0000 	cmp	sl, #0
   10aa4:	e2477001 	sub	r7, r7, #1
   10aa8:	e2844030 	add	r4, r4, #48	; 0x30
   10aac:	e0880007 	add	r0, r8, r7
   10ab0:	e7c84007 	strb	r4, [r8, r7]
   10ab4:	1a00000c 	bne	10aec <longlong_to_string+0xe4>
   10ab8:	e3190c02 	tst	r9, #512	; 0x200
   10abc:	1a000006 	bne	10adc <longlong_to_string+0xd4>
   10ac0:	e3190a02 	tst	r9, #8192	; 0x2000
   10ac4:	159d2030 	ldrne	r2, [sp, #48]	; 0x30
   10ac8:	13a03020 	movne	r3, #32
   10acc:	059d3030 	ldreq	r3, [sp, #48]	; 0x30
   10ad0:	15c23000 	strbne	r3, [r2]
   10ad4:	05c3a000 	strbeq	sl, [r3]
   10ad8:	e8bd8ff8 	pop	{r3, r4, r5, r6, r7, r8, r9, sl, fp, pc}
   10adc:	e59d2030 	ldr	r2, [sp, #48]	; 0x30
   10ae0:	e3a0302b 	mov	r3, #43	; 0x2b
   10ae4:	e5c23000 	strb	r3, [r2]
   10ae8:	e8bd8ff8 	pop	{r3, r4, r5, r6, r7, r8, r9, sl, fp, pc}
   10aec:	e59d2030 	ldr	r2, [sp, #48]	; 0x30
   10af0:	e3a0302d 	mov	r3, #45	; 0x2d
   10af4:	e5c23000 	strb	r3, [r2]
   10af8:	e8bd8ff8 	pop	{r3, r4, r5, r6, r7, r8, r9, sl, fp, pc}
   10afc:	e2724000 	rsbs	r4, r2, #0
   10b00:	e3a0a001 	mov	sl, #1
   10b04:	e2e55000 	rsc	r5, r5, #0
   10b08:	eaffffca 	b	10a38 <longlong_to_string+0x30>

00010b0c <exponent_to_string>:
   10b0c:	e3510000 	cmp	r1, #0
   10b10:	e92d4070 	push	{r4, r5, r6, lr}
   10b14:	b2611000 	rsblt	r1, r1, #0
   10b18:	b3a0302d 	movlt	r3, #45	; 0x2d
   10b1c:	a3a0302b 	movge	r3, #43	; 0x2b
   10b20:	e3510ffa 	cmp	r1, #1000	; 0x3e8
   10b24:	e1a0e000 	mov	lr, r0
   10b28:	e5c03000 	strb	r3, [r0]
   10b2c:	a3a00005 	movge	r0, #5
   10b30:	aa000002 	bge	10b40 <exponent_to_string+0x34>
   10b34:	e3510063 	cmp	r1, #99	; 0x63
   10b38:	c3a00004 	movgt	r0, #4
   10b3c:	da00000f 	ble	10b80 <exponent_to_string+0x74>
   10b40:	e30c5ccd 	movw	r5, #52429	; 0xcccd
   10b44:	e3064667 	movw	r4, #26215	; 0x6667
   10b48:	e08ee000 	add	lr, lr, r0
   10b4c:	e34c5ccc 	movt	r5, #52428	; 0xcccc
   10b50:	e3464666 	movt	r4, #26214	; 0x6666
   10b54:	e0832195 	umull	r2, r3, r5, r1
   10b58:	e1a02fc1 	asr	r2, r1, #31
   10b5c:	e0cc6194 	smull	r6, ip, r4, r1
   10b60:	e1a031a3 	lsr	r3, r3, #3
   10b64:	e0833103 	add	r3, r3, r3, lsl #2
   10b68:	e0413083 	sub	r3, r1, r3, lsl #1
   10b6c:	e072114c 	rsbs	r1, r2, ip, asr #2
   10b70:	e2833030 	add	r3, r3, #48	; 0x30
   10b74:	e56e3001 	strb	r3, [lr, #-1]!
   10b78:	1afffff5 	bne	10b54 <exponent_to_string+0x48>
   10b7c:	e8bd8070 	pop	{r4, r5, r6, pc}
   10b80:	e3510009 	cmp	r1, #9
   10b84:	c3a00003 	movgt	r0, #3
   10b88:	d3a00002 	movle	r0, #2
   10b8c:	eaffffeb 	b	10b40 <exponent_to_string+0x34>

00010b90 <_vsnprintf_output>:
   10b90:	e92d4010 	push	{r4, lr}
   10b94:	e251e000 	subs	lr, r1, #0
   10b98:	0a000016 	beq	10bf8 <_vsnprintf_output+0x68>
   10b9c:	e5d01000 	ldrb	r1, [r0]
   10ba0:	e3510000 	cmp	r1, #0
   10ba4:	0a000011 	beq	10bf0 <_vsnprintf_output+0x60>
   10ba8:	e24ee001 	sub	lr, lr, #1
   10bac:	e3a01000 	mov	r1, #0
   10bb0:	e080e00e 	add	lr, r0, lr
   10bb4:	ea000002 	b	10bc4 <_vsnprintf_output+0x34>
   10bb8:	e5f03001 	ldrb	r3, [r0, #1]!
   10bbc:	e3530000 	cmp	r3, #0
   10bc0:	0a00000a 	beq	10bf0 <_vsnprintf_output+0x60>
   10bc4:	e5923008 	ldr	r3, [r2, #8]
   10bc8:	e2811001 	add	r1, r1, #1
   10bcc:	e592c004 	ldr	ip, [r2, #4]
   10bd0:	e2834001 	add	r4, r3, #1
   10bd4:	e153000c 	cmp	r3, ip
   10bd8:	35824008 	strcc	r4, [r2, #8]
   10bdc:	3592c000 	ldrcc	ip, [r2]
   10be0:	35d04000 	ldrbcc	r4, [r0]
   10be4:	37cc4003 	strbcc	r4, [ip, r3]
   10be8:	e150000e 	cmp	r0, lr
   10bec:	1afffff1 	bne	10bb8 <_vsnprintf_output+0x28>
   10bf0:	e1a00001 	mov	r0, r1
   10bf4:	e8bd8010 	pop	{r4, pc}
   10bf8:	e1a0000e 	mov	r0, lr
   10bfc:	e8bd8010 	pop	{r4, pc}

00010c00 <double_to_hexstring.isra.0>:
   10c00:	e92d4ff0 	push	{r4, r5, r6, r7, r8, r9, sl, fp, lr}
   10c04:	e3a06000 	mov	r6, #0
   10c08:	ec532b10 	vmov	r2, r3, d0
   10c0c:	e3a07000 	mov	r7, #0
   10c10:	e1520006 	cmp	r2, r6
   10c14:	e1a05000 	mov	r5, r0
   10c18:	e0d30007 	sbcs	r0, r3, r7
   10c1c:	e7ea2a53 	ubfx	r2, r3, #20, #11
   10c20:	b3a0002d 	movlt	r0, #45	; 0x2d
   10c24:	e7f37053 	ubfx	r7, r3, #0, #20
   10c28:	b5c50000 	strblt	r0, [r5]
   10c2c:	e30007ff 	movw	r0, #2047	; 0x7ff
   10c30:	b3a03001 	movlt	r3, #1
   10c34:	a3a03000 	movge	r3, #0
   10c38:	e1520000 	cmp	r2, r0
   10c3c:	e24dd014 	sub	sp, sp, #20
   10c40:	e2011c01 	and	r1, r1, #256	; 0x100
   10c44:	ee106a10 	vmov	r6, s0
   10c48:	e58d1004 	str	r1, [sp, #4]
   10c4c:	0a000028 	beq	10cf4 <double_to_hexstring.isra.0+0xf4>
   10c50:	e3520000 	cmp	r2, #0
   10c54:	1a000015 	bne	10cb0 <double_to_hexstring.isra.0+0xb0>
   10c58:	e1962007 	orrs	r2, r6, r7
   10c5c:	e59d2004 	ldr	r2, [sp, #4]
   10c60:	1a000040 	bne	10d68 <double_to_hexstring.isra.0+0x168>
   10c64:	e3520000 	cmp	r2, #0
   10c68:	1a0000c3 	bne	10f7c <double_to_hexstring.isra.0+0x37c>
   10c6c:	e0850003 	add	r0, r5, r3
   10c70:	e59fc334 	ldr	ip, [pc, #820]	; 10fac <double_to_hexstring.isra.0+0x3ac>
   10c74:	e3a02078 	mov	r2, #120	; 0x78
   10c78:	e3a01030 	mov	r1, #48	; 0x30
   10c7c:	ea000000 	b	10c84 <double_to_hexstring.isra.0+0x84>
   10c80:	e5fc2001 	ldrb	r2, [ip, #1]!
   10c84:	e3520000 	cmp	r2, #0
   10c88:	e4c01001 	strb	r1, [r0], #1
   10c8c:	e2833001 	add	r3, r3, #1
   10c90:	e1a01002 	mov	r1, r2
   10c94:	1afffff9 	bne	10c80 <double_to_hexstring.isra.0+0x80>
   10c98:	e0853003 	add	r3, r5, r3
   10c9c:	e3a02000 	mov	r2, #0
   10ca0:	e1a00005 	mov	r0, r5
   10ca4:	e5c32000 	strb	r2, [r3]
   10ca8:	e28dd014 	add	sp, sp, #20
   10cac:	e8bd8ff0 	pop	{r4, r5, r6, r7, r8, r9, sl, fp, pc}
   10cb0:	e59d1004 	ldr	r1, [sp, #4]
   10cb4:	e2422fff 	sub	r2, r2, #1020	; 0x3fc
   10cb8:	e2422003 	sub	r2, r2, #3
   10cbc:	e58d200c 	str	r2, [sp, #12]
   10cc0:	e3510000 	cmp	r1, #0
   10cc4:	0a000034 	beq	10d9c <double_to_hexstring.isra.0+0x19c>
   10cc8:	e59fc2e0 	ldr	ip, [pc, #736]	; 10fb0 <double_to_hexstring.isra.0+0x3b0>
   10ccc:	e0850003 	add	r0, r5, r3
   10cd0:	e3a02058 	mov	r2, #88	; 0x58
   10cd4:	e3a01030 	mov	r1, #48	; 0x30
   10cd8:	e3520000 	cmp	r2, #0
   10cdc:	e4c01001 	strb	r1, [r0], #1
   10ce0:	e2833001 	add	r3, r3, #1
   10ce4:	e1a01002 	mov	r1, r2
   10ce8:	0a000036 	beq	10dc8 <double_to_hexstring.isra.0+0x1c8>
   10cec:	e5fc2001 	ldrb	r2, [ip, #1]!
   10cf0:	eafffff8 	b	10cd8 <double_to_hexstring.isra.0+0xd8>
   10cf4:	e1962007 	orrs	r2, r6, r7
   10cf8:	1a00000c 	bne	10d30 <double_to_hexstring.isra.0+0x130>
   10cfc:	e3510000 	cmp	r1, #0
   10d00:	1a000087 	bne	10f24 <double_to_hexstring.isra.0+0x324>
   10d04:	e59fc2a8 	ldr	ip, [pc, #680]	; 10fb4 <double_to_hexstring.isra.0+0x3b4>
   10d08:	e0850003 	add	r0, r5, r3
   10d0c:	e3a0206e 	mov	r2, #110	; 0x6e
   10d10:	e3a01069 	mov	r1, #105	; 0x69
   10d14:	e3520000 	cmp	r2, #0
   10d18:	e4c01001 	strb	r1, [r0], #1
   10d1c:	e2833001 	add	r3, r3, #1
   10d20:	e1a01002 	mov	r1, r2
   10d24:	0affffdb 	beq	10c98 <double_to_hexstring.isra.0+0x98>
   10d28:	e5fc2001 	ldrb	r2, [ip, #1]!
   10d2c:	eafffff8 	b	10d14 <double_to_hexstring.isra.0+0x114>
   10d30:	e59d2004 	ldr	r2, [sp, #4]
   10d34:	e3520000 	cmp	r2, #0
   10d38:	1a00006e 	bne	10ef8 <double_to_hexstring.isra.0+0x2f8>
   10d3c:	e59fc274 	ldr	ip, [pc, #628]	; 10fb8 <double_to_hexstring.isra.0+0x3b8>
   10d40:	e0850003 	add	r0, r5, r3
   10d44:	e3a02061 	mov	r2, #97	; 0x61
   10d48:	e3a0106e 	mov	r1, #110	; 0x6e
   10d4c:	e3520000 	cmp	r2, #0
   10d50:	e4c01001 	strb	r1, [r0], #1
   10d54:	e2833001 	add	r3, r3, #1
   10d58:	e1a01002 	mov	r1, r2
   10d5c:	0affffcd 	beq	10c98 <double_to_hexstring.isra.0+0x98>
   10d60:	e5fc2001 	ldrb	r2, [ip, #1]!
   10d64:	eafffff8 	b	10d4c <double_to_hexstring.isra.0+0x14c>
   10d68:	e3520000 	cmp	r2, #0
   10d6c:	1a000077 	bne	10f50 <double_to_hexstring.isra.0+0x350>
   10d70:	e59fc244 	ldr	ip, [pc, #580]	; 10fbc <double_to_hexstring.isra.0+0x3bc>
   10d74:	e0850003 	add	r0, r5, r3
   10d78:	e3a02065 	mov	r2, #101	; 0x65
   10d7c:	e3a01064 	mov	r1, #100	; 0x64
   10d80:	e3520000 	cmp	r2, #0
   10d84:	e4c01001 	strb	r1, [r0], #1
   10d88:	e2833001 	add	r3, r3, #1
   10d8c:	e1a01002 	mov	r1, r2
   10d90:	0affffc0 	beq	10c98 <double_to_hexstring.isra.0+0x98>
   10d94:	e5fc2001 	ldrb	r2, [ip, #1]!
   10d98:	eafffff8 	b	10d80 <double_to_hexstring.isra.0+0x180>
   10d9c:	e59fc21c 	ldr	ip, [pc, #540]	; 10fc0 <double_to_hexstring.isra.0+0x3c0>
   10da0:	e0850003 	add	r0, r5, r3
   10da4:	e3a02078 	mov	r2, #120	; 0x78
   10da8:	e3a01030 	mov	r1, #48	; 0x30
   10dac:	e3520000 	cmp	r2, #0
   10db0:	e4c01001 	strb	r1, [r0], #1
   10db4:	e2833001 	add	r3, r3, #1
   10db8:	e1a01002 	mov	r1, r2
   10dbc:	0a000049 	beq	10ee8 <double_to_hexstring.isra.0+0x2e8>
   10dc0:	e5fc2001 	ldrb	r2, [ip, #1]!
   10dc4:	eafffff8 	b	10dac <double_to_hexstring.isra.0+0x1ac>
   10dc8:	e303250c 	movw	r2, #13580	; 0x350c
   10dcc:	e3402001 	movt	r2, #1
   10dd0:	e58d2008 	str	r2, [sp, #8]
   10dd4:	e3a0a000 	mov	sl, #0
   10dd8:	e3a01030 	mov	r1, #48	; 0x30
   10ddc:	e1a0c00a 	mov	ip, sl
   10de0:	e1a0e001 	mov	lr, r1
   10de4:	ea000002 	b	10df4 <double_to_hexstring.isra.0+0x1f4>
   10de8:	e2411004 	sub	r1, r1, #4
   10dec:	e3710004 	cmn	r1, #4
   10df0:	0a00002d 	beq	10eac <double_to_hexstring.isra.0+0x2ac>
   10df4:	e1a02136 	lsr	r2, r6, r1
   10df8:	e2610020 	rsb	r0, r1, #32
   10dfc:	e2418020 	sub	r8, r1, #32
   10e00:	e1822017 	orr	r2, r2, r7, lsl r0
   10e04:	e2834001 	add	r4, r3, #1
   10e08:	e0850004 	add	r0, r5, r4
   10e0c:	e1822837 	orr	r2, r2, r7, lsr r8
   10e10:	e0859003 	add	r9, r5, r3
   10e14:	e212200f 	ands	r2, r2, #15
   10e18:	028cc001 	addeq	ip, ip, #1
   10e1c:	0afffff1 	beq	10de8 <double_to_hexstring.isra.0+0x1e8>
   10e20:	e35a0000 	cmp	sl, #0
   10e24:	e283a002 	add	sl, r3, #2
   10e28:	e085b00a 	add	fp, r5, sl
   10e2c:	1a000008 	bne	10e54 <double_to_hexstring.isra.0+0x254>
   10e30:	e2838003 	add	r8, r3, #3
   10e34:	e3a0302e 	mov	r3, #46	; 0x2e
   10e38:	e5c93000 	strb	r3, [r9]
   10e3c:	e1a03004 	mov	r3, r4
   10e40:	e1a09000 	mov	r9, r0
   10e44:	e1a0400a 	mov	r4, sl
   10e48:	e1a0000b 	mov	r0, fp
   10e4c:	e1a0a008 	mov	sl, r8
   10e50:	e085b008 	add	fp, r5, r8
   10e54:	e35c0000 	cmp	ip, #0
   10e58:	0a00001c 	beq	10ed0 <double_to_hexstring.isra.0+0x2d0>
   10e5c:	e085400c 	add	r4, r5, ip
   10e60:	e0850003 	add	r0, r5, r3
   10e64:	e0844003 	add	r4, r4, r3
   10e68:	e4c0e001 	strb	lr, [r0], #1
   10e6c:	e1540000 	cmp	r4, r0
   10e70:	1afffffc 	bne	10e68 <double_to_hexstring.isra.0+0x268>
   10e74:	e08cc003 	add	ip, ip, r3
   10e78:	e28c3001 	add	r3, ip, #1
   10e7c:	e28c4002 	add	r4, ip, #2
   10e80:	e0859003 	add	r9, r5, r3
   10e84:	e085800c 	add	r8, r5, ip
   10e88:	e0850004 	add	r0, r5, r4
   10e8c:	e59dc008 	ldr	ip, [sp, #8]
   10e90:	e2411004 	sub	r1, r1, #4
   10e94:	e3710004 	cmn	r1, #4
   10e98:	e3a0a001 	mov	sl, #1
   10e9c:	e7dc2002 	ldrb	r2, [ip, r2]
   10ea0:	e3a0c000 	mov	ip, #0
   10ea4:	e5c82000 	strb	r2, [r8]
   10ea8:	1affffd1 	bne	10df4 <double_to_hexstring.isra.0+0x1f4>
   10eac:	e59d3004 	ldr	r3, [sp, #4]
   10eb0:	e59d100c 	ldr	r1, [sp, #12]
   10eb4:	e3530000 	cmp	r3, #0
   10eb8:	03a03070 	moveq	r3, #112	; 0x70
   10ebc:	13a03050 	movne	r3, #80	; 0x50
   10ec0:	e5c93000 	strb	r3, [r9]
   10ec4:	ebffff10 	bl	10b0c <exponent_to_string>
   10ec8:	e0803004 	add	r3, r0, r4
   10ecc:	eaffff71 	b	10c98 <double_to_hexstring.isra.0+0x98>
   10ed0:	e1a08009 	mov	r8, r9
   10ed4:	e1a03004 	mov	r3, r4
   10ed8:	e1a09000 	mov	r9, r0
   10edc:	e1a0400a 	mov	r4, sl
   10ee0:	e1a0000b 	mov	r0, fp
   10ee4:	eaffffe8 	b	10e8c <double_to_hexstring.isra.0+0x28c>
   10ee8:	e30324fc 	movw	r2, #13564	; 0x34fc
   10eec:	e3402001 	movt	r2, #1
   10ef0:	e58d2008 	str	r2, [sp, #8]
   10ef4:	eaffffb6 	b	10dd4 <double_to_hexstring.isra.0+0x1d4>
   10ef8:	e59fc0c4 	ldr	ip, [pc, #196]	; 10fc4 <double_to_hexstring.isra.0+0x3c4>
   10efc:	e0850003 	add	r0, r5, r3
   10f00:	e3a02041 	mov	r2, #65	; 0x41
   10f04:	e3a0104e 	mov	r1, #78	; 0x4e
   10f08:	e3520000 	cmp	r2, #0
   10f0c:	e4c01001 	strb	r1, [r0], #1
   10f10:	e2833001 	add	r3, r3, #1
   10f14:	e1a01002 	mov	r1, r2
   10f18:	0affff5e 	beq	10c98 <double_to_hexstring.isra.0+0x98>
   10f1c:	e5fc2001 	ldrb	r2, [ip, #1]!
   10f20:	eafffff8 	b	10f08 <double_to_hexstring.isra.0+0x308>
   10f24:	e59fc09c 	ldr	ip, [pc, #156]	; 10fc8 <double_to_hexstring.isra.0+0x3c8>
   10f28:	e0850003 	add	r0, r5, r3
   10f2c:	e3a0204e 	mov	r2, #78	; 0x4e
   10f30:	e3a01049 	mov	r1, #73	; 0x49
   10f34:	e3520000 	cmp	r2, #0
   10f38:	e4c01001 	strb	r1, [r0], #1
   10f3c:	e2833001 	add	r3, r3, #1
   10f40:	e1a01002 	mov	r1, r2
   10f44:	0affff53 	beq	10c98 <double_to_hexstring.isra.0+0x98>
   10f48:	e5fc2001 	ldrb	r2, [ip, #1]!
   10f4c:	eafffff8 	b	10f34 <double_to_hexstring.isra.0+0x334>
   10f50:	e59fc074 	ldr	ip, [pc, #116]	; 10fcc <double_to_hexstring.isra.0+0x3cc>
   10f54:	e0850003 	add	r0, r5, r3
   10f58:	e3a02045 	mov	r2, #69	; 0x45
   10f5c:	e3a01044 	mov	r1, #68	; 0x44
   10f60:	e3520000 	cmp	r2, #0
   10f64:	e4c01001 	strb	r1, [r0], #1
   10f68:	e2833001 	add	r3, r3, #1
   10f6c:	e1a01002 	mov	r1, r2
   10f70:	0affff48 	beq	10c98 <double_to_hexstring.isra.0+0x98>
   10f74:	e5fc2001 	ldrb	r2, [ip, #1]!
   10f78:	eafffff8 	b	10f60 <double_to_hexstring.isra.0+0x360>
   10f7c:	e59fc04c 	ldr	ip, [pc, #76]	; 10fd0 <double_to_hexstring.isra.0+0x3d0>
   10f80:	e0850003 	add	r0, r5, r3
   10f84:	e3a02058 	mov	r2, #88	; 0x58
   10f88:	e3a01030 	mov	r1, #48	; 0x30
   10f8c:	ea000000 	b	10f94 <double_to_hexstring.isra.0+0x394>
   10f90:	e5fc2001 	ldrb	r2, [ip, #1]!
   10f94:	e3520000 	cmp	r2, #0
   10f98:	e4c01001 	strb	r1, [r0], #1
   10f9c:	e2833001 	add	r3, r3, #1
   10fa0:	e1a01002 	mov	r1, r2
   10fa4:	1afffff9 	bne	10f90 <double_to_hexstring.isra.0+0x390>
   10fa8:	eaffff3a 	b	10c98 <double_to_hexstring.isra.0+0x98>
   10fac:	000134c9 	.word	0x000134c9
   10fb0:	000134e5 	.word	0x000134e5
   10fb4:	000134b9 	.word	0x000134b9
   10fb8:	000134c1 	.word	0x000134c1
   10fbc:	000134d9 	.word	0x000134d9
   10fc0:	000134e1 	.word	0x000134e1
   10fc4:	000134c5 	.word	0x000134c5
   10fc8:	000134bd 	.word	0x000134bd
   10fcc:	000134dd 	.word	0x000134dd
   10fd0:	000134d1 	.word	0x000134d1

00010fd4 <longlong_to_hexstring.constprop.1>:
   10fd4:	e92d4010 	push	{r4, lr}
   10fd8:	e30314fc 	movw	r1, #13564	; 0x34fc
   10fdc:	e59dc008 	ldr	ip, [sp, #8]
   10fe0:	e3401001 	movt	r1, #1
   10fe4:	e303450c 	movw	r4, #13580	; 0x350c
   10fe8:	e3404001 	movt	r4, #1
   10fec:	e31c0c01 	tst	ip, #256	; 0x100
   10ff0:	e280c01e 	add	ip, r0, #30
   10ff4:	01a04001 	moveq	r4, r1
   10ff8:	e3a01000 	mov	r1, #0
   10ffc:	e5c0101f 	strb	r1, [r0, #31]
   11000:	e1a01222 	lsr	r1, r2, #4
   11004:	e1a00223 	lsr	r0, r3, #4
   11008:	e1811e03 	orr	r1, r1, r3, lsl #28
   1100c:	e202e00f 	and	lr, r2, #15
   11010:	e1a03000 	mov	r3, r0
   11014:	e1a02001 	mov	r2, r1
   11018:	e7d4100e 	ldrb	r1, [r4, lr]
   1101c:	e192e003 	orrs	lr, r2, r3
   11020:	e1a0000c 	mov	r0, ip
   11024:	e44c1001 	strb	r1, [ip], #-1
   11028:	1afffff4 	bne	11000 <longlong_to_hexstring.constprop.1+0x2c>
   1102c:	e8bd8010 	pop	{r4, pc}

00011030 <double_to_string.constprop.2>:
   11030:	e92d47f0 	push	{r4, r5, r6, r7, r8, r9, sl, lr}
   11034:	e1a0a000 	mov	sl, r0
   11038:	ec576b10 	vmov	r6, r7, d0
   1103c:	e24dd018 	sub	sp, sp, #24
   11040:	e3560000 	cmp	r6, #0
   11044:	e1a03007 	mov	r3, r7
   11048:	e2d72000 	sbcs	r2, r7, #0
   1104c:	e7ea2a57 	ubfx	r2, r7, #20, #11
   11050:	b3a0302d 	movlt	r3, #45	; 0x2d
   11054:	e1a05007 	mov	r5, r7
   11058:	b5c03000 	strblt	r3, [r0]
   1105c:	e30007ff 	movw	r0, #2047	; 0x7ff
   11060:	e7f39057 	ubfx	r9, r7, #0, #20
   11064:	b3a03001 	movlt	r3, #1
   11068:	b2277102 	eorlt	r7, r7, #-2147483648	; 0x80000000
   1106c:	a3a03000 	movge	r3, #0
   11070:	e1520000 	cmp	r2, r0
   11074:	ee104a10 	vmov	r4, s0
   11078:	ee108a10 	vmov	r8, s0
   1107c:	0a000024 	beq	11114 <double_to_string.constprop.2+0xe4>
   11080:	e3520000 	cmp	r2, #0
   11084:	1a00000e 	bne	110c4 <double_to_string.constprop.2+0x94>
   11088:	e1982009 	orrs	r2, r8, r9
   1108c:	0a00003f 	beq	11190 <double_to_string.constprop.2+0x160>
   11090:	e3110c01 	tst	r1, #256	; 0x100
   11094:	1a00008f 	bne	112d8 <double_to_string.constprop.2+0x2a8>
   11098:	e59fc2e0 	ldr	ip, [pc, #736]	; 11380 <double_to_string.constprop.2+0x350>
   1109c:	e08a0003 	add	r0, sl, r3
   110a0:	e3a02065 	mov	r2, #101	; 0x65
   110a4:	e3a01064 	mov	r1, #100	; 0x64
   110a8:	e3520000 	cmp	r2, #0
   110ac:	e4c01001 	strb	r1, [r0], #1
   110b0:	e2833001 	add	r3, r3, #1
   110b4:	e1a01002 	mov	r1, r2
   110b8:	0a000010 	beq	11100 <double_to_string.constprop.2+0xd0>
   110bc:	e5fc2001 	ldrb	r2, [ip, #1]!
   110c0:	eafffff8 	b	110a8 <double_to_string.constprop.2+0x78>
   110c4:	e2420ff2 	sub	r0, r2, #968	; 0x3c8
   110c8:	e2400003 	sub	r0, r0, #3
   110cc:	e3500068 	cmp	r0, #104	; 0x68
   110d0:	9a00003a 	bls	111c0 <double_to_string.constprop.2+0x190>
   110d4:	e59fc2a8 	ldr	ip, [pc, #680]	; 11384 <double_to_string.constprop.2+0x354>
   110d8:	e08a0003 	add	r0, sl, r3
   110dc:	e3a02072 	mov	r2, #114	; 0x72
   110e0:	e3a0103c 	mov	r1, #60	; 0x3c
   110e4:	ea000000 	b	110ec <double_to_string.constprop.2+0xbc>
   110e8:	e5fc2001 	ldrb	r2, [ip, #1]!
   110ec:	e3520000 	cmp	r2, #0
   110f0:	e4c01001 	strb	r1, [r0], #1
   110f4:	e2833001 	add	r3, r3, #1
   110f8:	e1a01002 	mov	r1, r2
   110fc:	1afffff9 	bne	110e8 <double_to_string.constprop.2+0xb8>
   11100:	e1a0000a 	mov	r0, sl
   11104:	e3a02000 	mov	r2, #0
   11108:	e7ca2003 	strb	r2, [sl, r3]
   1110c:	e28dd018 	add	sp, sp, #24
   11110:	e8bd87f0 	pop	{r4, r5, r6, r7, r8, r9, sl, pc}
   11114:	e1982009 	orrs	r2, r8, r9
   11118:	e2011c01 	and	r1, r1, #256	; 0x100
   1111c:	1a00000d 	bne	11158 <double_to_string.constprop.2+0x128>
   11120:	e3510000 	cmp	r1, #0
   11124:	1a00005f 	bne	112a8 <double_to_string.constprop.2+0x278>
   11128:	e08a0003 	add	r0, sl, r3
   1112c:	e59fc254 	ldr	ip, [pc, #596]	; 11388 <double_to_string.constprop.2+0x358>
   11130:	e3a0206e 	mov	r2, #110	; 0x6e
   11134:	e3a01069 	mov	r1, #105	; 0x69
   11138:	ea000000 	b	11140 <double_to_string.constprop.2+0x110>
   1113c:	e5fc2001 	ldrb	r2, [ip, #1]!
   11140:	e3520000 	cmp	r2, #0
   11144:	e4c01001 	strb	r1, [r0], #1
   11148:	e2833001 	add	r3, r3, #1
   1114c:	e1a01002 	mov	r1, r2
   11150:	1afffff9 	bne	1113c <double_to_string.constprop.2+0x10c>
   11154:	eaffffe9 	b	11100 <double_to_string.constprop.2+0xd0>
   11158:	e3510000 	cmp	r1, #0
   1115c:	1a000045 	bne	11278 <double_to_string.constprop.2+0x248>
   11160:	e08a0003 	add	r0, sl, r3
   11164:	e59fc220 	ldr	ip, [pc, #544]	; 1138c <double_to_string.constprop.2+0x35c>
   11168:	e3a02061 	mov	r2, #97	; 0x61
   1116c:	e3a0106e 	mov	r1, #110	; 0x6e
   11170:	ea000000 	b	11178 <double_to_string.constprop.2+0x148>
   11174:	e5fc2001 	ldrb	r2, [ip, #1]!
   11178:	e3520000 	cmp	r2, #0
   1117c:	e4c01001 	strb	r1, [r0], #1
   11180:	e2833001 	add	r3, r3, #1
   11184:	e1a01002 	mov	r1, r2
   11188:	1afffff9 	bne	11174 <double_to_string.constprop.2+0x144>
   1118c:	eaffffdb 	b	11100 <double_to_string.constprop.2+0xd0>
   11190:	e59fc1f8 	ldr	ip, [pc, #504]	; 11390 <double_to_string.constprop.2+0x360>
   11194:	e08a0003 	add	r0, sl, r3
   11198:	e3a0202e 	mov	r2, #46	; 0x2e
   1119c:	e3a01030 	mov	r1, #48	; 0x30
   111a0:	ea000000 	b	111a8 <double_to_string.constprop.2+0x178>
   111a4:	e5fc2001 	ldrb	r2, [ip, #1]!
   111a8:	e3520000 	cmp	r2, #0
   111ac:	e4c01001 	strb	r1, [r0], #1
   111b0:	e2833001 	add	r3, r3, #1
   111b4:	e1a01002 	mov	r1, r2
   111b8:	1afffff9 	bne	111a4 <double_to_string.constprop.2+0x174>
   111bc:	eaffffcf 	b	11100 <double_to_string.constprop.2+0xd0>
   111c0:	e28ac018 	add	ip, sl, #24
   111c4:	e3a00030 	mov	r0, #48	; 0x30
   111c8:	e3a0e000 	mov	lr, #0
   111cc:	e1a0300a 	mov	r3, sl
   111d0:	e5e3e01f 	strb	lr, [r3, #31]!
   111d4:	e5630001 	strb	r0, [r3, #-1]!
   111d8:	e153000c 	cmp	r3, ip
   111dc:	1afffffc 	bne	111d4 <double_to_string.constprop.2+0x1a4>
   111e0:	e2423fff 	sub	r3, r2, #1020	; 0x3fc
   111e4:	e2433003 	sub	r3, r3, #3
   111e8:	e3530000 	cmp	r3, #0
   111ec:	b3a09017 	movlt	r9, #23
   111f0:	b5ca0017 	strblt	r0, [sl, #23]
   111f4:	aa000042 	bge	11304 <double_to_string.constprop.2+0x2d4>
   111f8:	ed9f6b5e 	vldr	d6, [pc, #376]	; 11378 <double_to_string.constprop.2+0x348>
   111fc:	e3a0302e 	mov	r3, #46	; 0x2e
   11200:	eeb67b00 	vmov.f64	d7, #96	; 0x3f000000  0.5
   11204:	ec476b15 	vmov	d5, r6, r7
   11208:	e5ca3020 	strb	r3, [sl, #32]
   1120c:	ee057b06 	vmla.f64	d7, d5, d6
   11210:	eefc7bc7 	vcvt.u32.f64	s15, d7
   11214:	ee171a90 	vmov	r1, s15
   11218:	e3510000 	cmp	r1, #0
   1121c:	0a00000a 	beq	1124c <double_to_string.constprop.2+0x21c>
   11220:	e30ccccd 	movw	ip, #52429	; 0xcccd
   11224:	e28a0027 	add	r0, sl, #39	; 0x27
   11228:	e34ccccc 	movt	ip, #52428	; 0xcccc
   1122c:	e083219c 	umull	r2, r3, ip, r1
   11230:	e1a031a3 	lsr	r3, r3, #3
   11234:	e0832103 	add	r2, r3, r3, lsl #2
   11238:	e0412082 	sub	r2, r1, r2, lsl #1
   1123c:	e2531000 	subs	r1, r3, #0
   11240:	e2823030 	add	r3, r2, #48	; 0x30
   11244:	e5603001 	strb	r3, [r0, #-1]!
   11248:	1afffff7 	bne	1122c <double_to_string.constprop.2+0x1fc>
   1124c:	e3540000 	cmp	r4, #0
   11250:	e2d53000 	sbcs	r3, r5, #0
   11254:	a08a0009 	addge	r0, sl, r9
   11258:	aaffffab 	bge	1110c <double_to_string.constprop.2+0xdc>
   1125c:	e3590000 	cmp	r9, #0
   11260:	12490001 	subne	r0, r9, #1
   11264:	13a0302d 	movne	r3, #45	; 0x2d
   11268:	17ca3000 	strbne	r3, [sl, r0]
   1126c:	01a0000a 	moveq	r0, sl
   11270:	108a0000 	addne	r0, sl, r0
   11274:	eaffffa4 	b	1110c <double_to_string.constprop.2+0xdc>
   11278:	e59fc114 	ldr	ip, [pc, #276]	; 11394 <double_to_string.constprop.2+0x364>
   1127c:	e08a0003 	add	r0, sl, r3
   11280:	e3a02041 	mov	r2, #65	; 0x41
   11284:	e3a0104e 	mov	r1, #78	; 0x4e
   11288:	ea000000 	b	11290 <double_to_string.constprop.2+0x260>
   1128c:	e5fc2001 	ldrb	r2, [ip, #1]!
   11290:	e3520000 	cmp	r2, #0
   11294:	e4c01001 	strb	r1, [r0], #1
   11298:	e2833001 	add	r3, r3, #1
   1129c:	e1a01002 	mov	r1, r2
   112a0:	1afffff9 	bne	1128c <double_to_string.constprop.2+0x25c>
   112a4:	eaffff95 	b	11100 <double_to_string.constprop.2+0xd0>
   112a8:	e59fc0e8 	ldr	ip, [pc, #232]	; 11398 <double_to_string.constprop.2+0x368>
   112ac:	e08a0003 	add	r0, sl, r3
   112b0:	e3a0204e 	mov	r2, #78	; 0x4e
   112b4:	e3a01049 	mov	r1, #73	; 0x49
   112b8:	ea000000 	b	112c0 <double_to_string.constprop.2+0x290>
   112bc:	e5fc2001 	ldrb	r2, [ip, #1]!
   112c0:	e3520000 	cmp	r2, #0
   112c4:	e4c01001 	strb	r1, [r0], #1
   112c8:	e2833001 	add	r3, r3, #1
   112cc:	e1a01002 	mov	r1, r2
   112d0:	1afffff9 	bne	112bc <double_to_string.constprop.2+0x28c>
   112d4:	eaffff89 	b	11100 <double_to_string.constprop.2+0xd0>
   112d8:	e59fc0bc 	ldr	ip, [pc, #188]	; 1139c <double_to_string.constprop.2+0x36c>
   112dc:	e08a0003 	add	r0, sl, r3
   112e0:	e3a02045 	mov	r2, #69	; 0x45
   112e4:	e3a01044 	mov	r1, #68	; 0x44
   112e8:	e3520000 	cmp	r2, #0
   112ec:	e4c01001 	strb	r1, [r0], #1
   112f0:	e2833001 	add	r3, r3, #1
   112f4:	e1a01002 	mov	r1, r2
   112f8:	0affff80 	beq	11100 <double_to_string.constprop.2+0xd0>
   112fc:	e5fc2001 	ldrb	r2, [ip, #1]!
   11300:	eafffff8 	b	112e8 <double_to_string.constprop.2+0x2b8>
   11304:	e2633034 	rsb	r3, r3, #52	; 0x34
   11308:	e3892601 	orr	r2, r9, #1048576	; 0x100000
   1130c:	e1a08338 	lsr	r8, r8, r3
   11310:	e263c020 	rsb	ip, r3, #32
   11314:	e2430020 	sub	r0, r3, #32
   11318:	e1a09332 	lsr	r9, r2, r3
   1131c:	e1888c12 	orr	r8, r8, r2, lsl ip
   11320:	e58d1004 	str	r1, [sp, #4]
   11324:	e3a0c000 	mov	ip, #0
   11328:	e1888032 	orr	r8, r8, r2, lsr r0
   1132c:	e28d1018 	add	r1, sp, #24
   11330:	e3a00019 	mov	r0, #25
   11334:	e561c001 	strb	ip, [r1, #-1]!
   11338:	e1a03009 	mov	r3, r9
   1133c:	e1a02008 	mov	r2, r8
   11340:	e58d1008 	str	r1, [sp, #8]
   11344:	e58d0000 	str	r0, [sp]
   11348:	e1a0000a 	mov	r0, sl
   1134c:	ebfffdad 	bl	10a08 <longlong_to_string>
   11350:	e1a01009 	mov	r1, r9
   11354:	e040900a 	sub	r9, r0, sl
   11358:	e1a00008 	mov	r0, r8
   1135c:	fa0003a4 	blx	121f4 <__aeabi_ul2d>
   11360:	ec476b17 	vmov	d7, r6, r7
   11364:	ec410b16 	vmov	d6, r0, r1
   11368:	ee377b46 	vsub.f64	d7, d7, d6
   1136c:	ec576b17 	vmov	r6, r7, d7
   11370:	eaffffa0 	b	111f8 <double_to_string.constprop.2+0x1c8>
   11374:	e320f000 	nop	{0}
   11378:	00000000 	.word	0x00000000
   1137c:	412e8480 	.word	0x412e8480
   11380:	000134d9 	.word	0x000134d9
   11384:	000134f5 	.word	0x000134f5
   11388:	000134b9 	.word	0x000134b9
   1138c:	000134c1 	.word	0x000134c1
   11390:	000134e9 	.word	0x000134e9
   11394:	000134c5 	.word	0x000134c5
   11398:	000134bd 	.word	0x000134bd
   1139c:	000134dd 	.word	0x000134dd

000113a0 <_printf_engine>:
   113a0:	e92d4ff0 	push	{r4, r5, r6, r7, r8, r9, sl, fp, lr}
   113a4:	e303c4b0 	movw	ip, #13488	; 0x34b0
   113a8:	e1a0b000 	mov	fp, r0
   113ac:	e3a06000 	mov	r6, #0
   113b0:	e1a07001 	mov	r7, r1
   113b4:	e1a00002 	mov	r0, r2
   113b8:	e24dd04c 	sub	sp, sp, #76	; 0x4c
   113bc:	e340c001 	movt	ip, #1
   113c0:	e58d3010 	str	r3, [sp, #16]
   113c4:	e58dc014 	str	ip, [sp, #20]
   113c8:	e5d01000 	ldrb	r1, [r0]
   113cc:	e3a03000 	mov	r3, #0
   113d0:	e2804001 	add	r4, r0, #1
   113d4:	e5cd3027 	strb	r3, [sp, #39]	; 0x27
   113d8:	e3510000 	cmp	r1, #0
   113dc:	0a000008 	beq	11404 <_printf_engine+0x64>
   113e0:	e3510025 	cmp	r1, #37	; 0x25
   113e4:	1a000002 	bne	113f4 <_printf_engine+0x54>
   113e8:	ea00000c 	b	11420 <_printf_engine+0x80>
   113ec:	e3530025 	cmp	r3, #37	; 0x25
   113f0:	0a00000b 	beq	11424 <_printf_engine+0x84>
   113f4:	e0441000 	sub	r1, r4, r0
   113f8:	e4d43001 	ldrb	r3, [r4], #1
   113fc:	e3530000 	cmp	r3, #0
   11400:	1afffff9 	bne	113ec <_printf_engine+0x4c>
   11404:	e1a02007 	mov	r2, r7
   11408:	e12fff3b 	blx	fp
   1140c:	e2503000 	subs	r3, r0, #0
   11410:	aa00006c 	bge	115c8 <_printf_engine+0x228>
   11414:	e1a00003 	mov	r0, r3
   11418:	e28dd04c 	add	sp, sp, #76	; 0x4c
   1141c:	e8bd8ff0 	pop	{r4, r5, r6, r7, r8, r9, sl, fp, pc}
   11420:	e3a01000 	mov	r1, #0
   11424:	e1a02007 	mov	r2, r7
   11428:	e12fff3b 	blx	fp
   1142c:	e2503000 	subs	r3, r0, #0
   11430:	bafffff7 	blt	11414 <_printf_engine+0x74>
   11434:	e3a05000 	mov	r5, #0
   11438:	e0866003 	add	r6, r6, r3
   1143c:	e1a0a005 	mov	sl, r5
   11440:	e4d49001 	ldrb	r9, [r4], #1
   11444:	e3590000 	cmp	r9, #0
   11448:	0a00005f 	beq	115cc <_printf_engine+0x22c>
   1144c:	e2493020 	sub	r3, r9, #32
   11450:	e353005a 	cmp	r3, #90	; 0x5a
   11454:	979ff103 	ldrls	pc, [pc, r3, lsl #2]
   11458:	ea000163 	b	119ec <_printf_engine+0x64c>
   1145c:	000118a8 	.word	0x000118a8
   11460:	000119ec 	.word	0x000119ec
   11464:	000119ec 	.word	0x000119ec
   11468:	00011870 	.word	0x00011870
   1146c:	000119ec 	.word	0x000119ec
   11470:	00011878 	.word	0x00011878
   11474:	000119ec 	.word	0x000119ec
   11478:	000119ec 	.word	0x000119ec
   1147c:	000119ec 	.word	0x000119ec
   11480:	000119ec 	.word	0x000119ec
   11484:	000119ec 	.word	0x000119ec
   11488:	000118b0 	.word	0x000118b0
   1148c:	000119ec 	.word	0x000119ec
   11490:	000118b8 	.word	0x000118b8
   11494:	00011440 	.word	0x00011440
   11498:	000119ec 	.word	0x000119ec
   1149c:	000118c0 	.word	0x000118c0
   114a0:	000118c0 	.word	0x000118c0
   114a4:	000118c0 	.word	0x000118c0
   114a8:	000118c0 	.word	0x000118c0
   114ac:	000118c0 	.word	0x000118c0
   114b0:	000118c0 	.word	0x000118c0
   114b4:	000118c0 	.word	0x000118c0
   114b8:	000118c0 	.word	0x000118c0
   114bc:	000118c0 	.word	0x000118c0
   114c0:	000118c0 	.word	0x000118c0
   114c4:	000119ec 	.word	0x000119ec
   114c8:	000119ec 	.word	0x000119ec
   114cc:	000119ec 	.word	0x000119ec
   114d0:	000119ec 	.word	0x000119ec
   114d4:	000119ec 	.word	0x000119ec
   114d8:	000119ec 	.word	0x000119ec
   114dc:	000119ec 	.word	0x000119ec
   114e0:	000117cc 	.word	0x000117cc
   114e4:	000119ec 	.word	0x000119ec
   114e8:	000119ec 	.word	0x000119ec
   114ec:	000119ec 	.word	0x000119ec
   114f0:	000119ec 	.word	0x000119ec
   114f4:	00011734 	.word	0x00011734
   114f8:	000119ec 	.word	0x000119ec
   114fc:	000119ec 	.word	0x000119ec
   11500:	000119ec 	.word	0x000119ec
   11504:	000119ec 	.word	0x000119ec
   11508:	000119ec 	.word	0x000119ec
   1150c:	000119ec 	.word	0x000119ec
   11510:	000119ec 	.word	0x000119ec
   11514:	000119ec 	.word	0x000119ec
   11518:	000119ec 	.word	0x000119ec
   1151c:	000119ec 	.word	0x000119ec
   11520:	000119ec 	.word	0x000119ec
   11524:	000119ec 	.word	0x000119ec
   11528:	000119ec 	.word	0x000119ec
   1152c:	000119ec 	.word	0x000119ec
   11530:	000119ec 	.word	0x000119ec
   11534:	000119ec 	.word	0x000119ec
   11538:	000119ec 	.word	0x000119ec
   1153c:	000119a8 	.word	0x000119a8
   11540:	000119ec 	.word	0x000119ec
   11544:	000119ec 	.word	0x000119ec
   11548:	000119ec 	.word	0x000119ec
   1154c:	000119ec 	.word	0x000119ec
   11550:	000119ec 	.word	0x000119ec
   11554:	000119ec 	.word	0x000119ec
   11558:	000119ec 	.word	0x000119ec
   1155c:	000119ec 	.word	0x000119ec
   11560:	000117d0 	.word	0x000117d0
   11564:	000119ec 	.word	0x000119ec
   11568:	000118dc 	.word	0x000118dc
   1156c:	00011914 	.word	0x00011914
   11570:	000119ec 	.word	0x000119ec
   11574:	00011738 	.word	0x00011738
   11578:	000119ec 	.word	0x000119ec
   1157c:	00011954 	.word	0x00011954
   11580:	00011914 	.word	0x00011914
   11584:	000119c0 	.word	0x000119c0
   11588:	000119ec 	.word	0x000119ec
   1158c:	00011944 	.word	0x00011944
   11590:	000119ec 	.word	0x000119ec
   11594:	000117fc 	.word	0x000117fc
   11598:	000119ec 	.word	0x000119ec
   1159c:	000115dc 	.word	0x000115dc
   115a0:	000119ec 	.word	0x000119ec
   115a4:	000119ec 	.word	0x000119ec
   115a8:	000119c8 	.word	0x000119c8
   115ac:	000119b8 	.word	0x000119b8
   115b0:	00011964 	.word	0x00011964
   115b4:	000119ec 	.word	0x000119ec
   115b8:	000119ec 	.word	0x000119ec
   115bc:	000115e0 	.word	0x000115e0
   115c0:	000119ec 	.word	0x000119ec
   115c4:	00011868 	.word	0x00011868
   115c8:	e0866003 	add	r6, r6, r3
   115cc:	e1a03006 	mov	r3, r6
   115d0:	e1a00003 	mov	r0, r3
   115d4:	e28dd04c 	add	sp, sp, #76	; 0x4c
   115d8:	e8bd8ff0 	pop	{r4, r5, r6, r7, r8, r9, sl, fp, pc}
   115dc:	e38aa081 	orr	sl, sl, #129	; 0x81
   115e0:	e31a0002 	tst	sl, #2
   115e4:	0a00008f 	beq	11828 <_printf_engine+0x488>
   115e8:	e59d3010 	ldr	r3, [sp, #16]
   115ec:	e2833007 	add	r3, r3, #7
   115f0:	e3c33007 	bic	r3, r3, #7
   115f4:	e2832008 	add	r2, r3, #8
   115f8:	e58d2010 	str	r2, [sp, #16]
   115fc:	e1c320d0 	ldrd	r2, [r3]
   11600:	e58da000 	str	sl, [sp]
   11604:	e28d0028 	add	r0, sp, #40	; 0x28
   11608:	ebfffe71 	bl	10fd4 <longlong_to_hexstring.constprop.1>
   1160c:	e31a0080 	tst	sl, #128	; 0x80
   11610:	e1a09000 	mov	r9, r0
   11614:	0a000051 	beq	11760 <_printf_engine+0x3c0>
   11618:	e3a03030 	mov	r3, #48	; 0x30
   1161c:	e28d8048 	add	r8, sp, #72	; 0x48
   11620:	e5683024 	strb	r3, [r8, #-36]!	; 0xffffffdc
   11624:	e1a02007 	mov	r2, r7
   11628:	e1a00008 	mov	r0, r8
   1162c:	e3a01001 	mov	r1, #1
   11630:	e12fff3b 	blx	fp
   11634:	e2503000 	subs	r3, r0, #0
   11638:	baffff75 	blt	11414 <_printf_engine+0x74>
   1163c:	e31a0c01 	tst	sl, #256	; 0x100
   11640:	e1a00008 	mov	r0, r8
   11644:	03a0c078 	moveq	ip, #120	; 0x78
   11648:	13a0c058 	movne	ip, #88	; 0x58
   1164c:	e1a02007 	mov	r2, r7
   11650:	e3a01001 	mov	r1, #1
   11654:	e5cdc024 	strb	ip, [sp, #36]	; 0x24
   11658:	e0836006 	add	r6, r3, r6
   1165c:	e12fff3b 	blx	fp
   11660:	e2503000 	subs	r3, r0, #0
   11664:	baffff6a 	blt	11414 <_printf_engine+0x74>
   11668:	e31a0b02 	tst	sl, #2048	; 0x800
   1166c:	e0836006 	add	r6, r3, r6
   11670:	e1a00009 	mov	r0, r9
   11674:	1a00003c 	bne	1176c <_printf_engine+0x3cc>
   11678:	e20a8a01 	and	r8, sl, #4096	; 0x1000
   1167c:	e58d8018 	str	r8, [sp, #24]
   11680:	eb0001f5 	bl	11e5c <strlen>
   11684:	e5dd3027 	ldrb	r3, [sp, #39]	; 0x27
   11688:	e1a0a000 	mov	sl, r0
   1168c:	e3530000 	cmp	r3, #0
   11690:	0a000070 	beq	11858 <_printf_engine+0x4b8>
   11694:	e3550000 	cmp	r5, #0
   11698:	0a000102 	beq	11aa8 <_printf_engine+0x708>
   1169c:	e3580000 	cmp	r8, #0
   116a0:	e2455001 	sub	r5, r5, #1
   116a4:	0a00016c 	beq	11c5c <_printf_engine+0x8bc>
   116a8:	e28d8048 	add	r8, sp, #72	; 0x48
   116ac:	e1a02007 	mov	r2, r7
   116b0:	e5683024 	strb	r3, [r8, #-36]!	; 0xffffffdc
   116b4:	e3a01001 	mov	r1, #1
   116b8:	e1a00008 	mov	r0, r8
   116bc:	e12fff3b 	blx	fp
   116c0:	e2503000 	subs	r3, r0, #0
   116c4:	baffff52 	blt	11414 <_printf_engine+0x74>
   116c8:	e15a0005 	cmp	sl, r5
   116cc:	e0866003 	add	r6, r6, r3
   116d0:	2a0000e7 	bcs	11a74 <_printf_engine+0x6d4>
   116d4:	e59d3018 	ldr	r3, [sp, #24]
   116d8:	e58d401c 	str	r4, [sp, #28]
   116dc:	e1a0400a 	mov	r4, sl
   116e0:	e1a0a008 	mov	sl, r8
   116e4:	e3530000 	cmp	r3, #0
   116e8:	13a03030 	movne	r3, #48	; 0x30
   116ec:	03a03020 	moveq	r3, #32
   116f0:	e1a08003 	mov	r8, r3
   116f4:	ea000001 	b	11700 <_printf_engine+0x360>
   116f8:	e1540005 	cmp	r4, r5
   116fc:	0a0000cc 	beq	11a34 <_printf_engine+0x694>
   11700:	e1a02007 	mov	r2, r7
   11704:	e3a01001 	mov	r1, #1
   11708:	e1a0000a 	mov	r0, sl
   1170c:	e5cd8024 	strb	r8, [sp, #36]	; 0x24
   11710:	e12fff3b 	blx	fp
   11714:	e3500000 	cmp	r0, #0
   11718:	e2455001 	sub	r5, r5, #1
   1171c:	e0866000 	add	r6, r6, r0
   11720:	aafffff4 	bge	116f8 <_printf_engine+0x358>
   11724:	e1a03000 	mov	r3, r0
   11728:	e1a00003 	mov	r0, r3
   1172c:	e28dd04c 	add	sp, sp, #76	; 0x4c
   11730:	e8bd8ff0 	pop	{r4, r5, r6, r7, r8, r9, sl, fp, pc}
   11734:	e38aac01 	orr	sl, sl, #256	; 0x100
   11738:	e59d3010 	ldr	r3, [sp, #16]
   1173c:	e1a0100a 	mov	r1, sl
   11740:	e28d0028 	add	r0, sp, #40	; 0x28
   11744:	e2833007 	add	r3, r3, #7
   11748:	e3c33007 	bic	r3, r3, #7
   1174c:	ed930b00 	vldr	d0, [r3]
   11750:	e2833008 	add	r3, r3, #8
   11754:	e58d3010 	str	r3, [sp, #16]
   11758:	ebfffe34 	bl	11030 <double_to_string.constprop.2>
   1175c:	e1a09000 	mov	r9, r0
   11760:	e31a0b02 	tst	sl, #2048	; 0x800
   11764:	e1a00009 	mov	r0, r9
   11768:	0affffc2 	beq	11678 <_printf_engine+0x2d8>
   1176c:	e1a02007 	mov	r2, r7
   11770:	e3e01000 	mvn	r1, #0
   11774:	e12fff3b 	blx	fp
   11778:	e2503000 	subs	r3, r0, #0
   1177c:	baffff24 	blt	11414 <_printf_engine+0x74>
   11780:	e1530005 	cmp	r3, r5
   11784:	e1a09003 	mov	r9, r3
   11788:	e0866003 	add	r6, r6, r3
   1178c:	2a000023 	bcs	11820 <_printf_engine+0x480>
   11790:	e28d8024 	add	r8, sp, #36	; 0x24
   11794:	e3a0a020 	mov	sl, #32
   11798:	ea000001 	b	117a4 <_printf_engine+0x404>
   1179c:	e1590005 	cmp	r9, r5
   117a0:	0a00001e 	beq	11820 <_printf_engine+0x480>
   117a4:	e1a02007 	mov	r2, r7
   117a8:	e3a01001 	mov	r1, #1
   117ac:	e1a00008 	mov	r0, r8
   117b0:	e5cda024 	strb	sl, [sp, #36]	; 0x24
   117b4:	e12fff3b 	blx	fp
   117b8:	e3500000 	cmp	r0, #0
   117bc:	e2455001 	sub	r5, r5, #1
   117c0:	e0866000 	add	r6, r6, r0
   117c4:	aafffff4 	bge	1179c <_printf_engine+0x3fc>
   117c8:	eaffffd5 	b	11724 <_printf_engine+0x384>
   117cc:	e38aac01 	orr	sl, sl, #256	; 0x100
   117d0:	e59d3010 	ldr	r3, [sp, #16]
   117d4:	e1a0100a 	mov	r1, sl
   117d8:	e28d0028 	add	r0, sp, #40	; 0x28
   117dc:	e2833007 	add	r3, r3, #7
   117e0:	e3c33007 	bic	r3, r3, #7
   117e4:	ed930b00 	vldr	d0, [r3]
   117e8:	e2833008 	add	r3, r3, #8
   117ec:	e58d3010 	str	r3, [sp, #16]
   117f0:	ebfffd02 	bl	10c00 <double_to_hexstring.isra.0>
   117f4:	e1a09000 	mov	r9, r0
   117f8:	eaffffd8 	b	11760 <_printf_engine+0x3c0>
   117fc:	e59d3010 	ldr	r3, [sp, #16]
   11800:	e31a0002 	tst	sl, #2
   11804:	e2832004 	add	r2, r3, #4
   11808:	e5933000 	ldr	r3, [r3]
   1180c:	0a0000c3 	beq	11b20 <_printf_engine+0x780>
   11810:	e58d2010 	str	r2, [sp, #16]
   11814:	e3a02000 	mov	r2, #0
   11818:	e5836000 	str	r6, [r3]
   1181c:	e5832004 	str	r2, [r3, #4]
   11820:	e1a00004 	mov	r0, r4
   11824:	eafffee7 	b	113c8 <_printf_engine+0x28>
   11828:	e31a0001 	tst	sl, #1
   1182c:	1a000097 	bne	11a90 <_printf_engine+0x6f0>
   11830:	e31a0008 	tst	sl, #8
   11834:	1a0000c6 	bne	11b54 <_printf_engine+0x7b4>
   11838:	e31a0004 	tst	sl, #4
   1183c:	0a0000d6 	beq	11b9c <_printf_engine+0x7fc>
   11840:	e59d1010 	ldr	r1, [sp, #16]
   11844:	e3a03000 	mov	r3, #0
   11848:	e1d120b0 	ldrh	r2, [r1]
   1184c:	e2811004 	add	r1, r1, #4
   11850:	e58d1010 	str	r1, [sp, #16]
   11854:	eaffff69 	b	11600 <_printf_engine+0x260>
   11858:	e1550000 	cmp	r5, r0
   1185c:	9a000075 	bls	11a38 <_printf_engine+0x698>
   11860:	e28d8024 	add	r8, sp, #36	; 0x24
   11864:	eaffff9a 	b	116d4 <_printf_engine+0x334>
   11868:	e38aa010 	orr	sl, sl, #16
   1186c:	eafffef3 	b	11440 <_printf_engine+0xa0>
   11870:	e38aa080 	orr	sl, sl, #128	; 0x80
   11874:	eafffef1 	b	11440 <_printf_engine+0xa0>
   11878:	e3a03025 	mov	r3, #37	; 0x25
   1187c:	e28d8048 	add	r8, sp, #72	; 0x48
   11880:	e5683024 	strb	r3, [r8, #-36]!	; 0xffffffdc
   11884:	e1a02007 	mov	r2, r7
   11888:	e1a00008 	mov	r0, r8
   1188c:	e3a01001 	mov	r1, #1
   11890:	e12fff3b 	blx	fp
   11894:	e2503000 	subs	r3, r0, #0
   11898:	bafffedd 	blt	11414 <_printf_engine+0x74>
   1189c:	e0836006 	add	r6, r3, r6
   118a0:	e1a00004 	mov	r0, r4
   118a4:	eafffec7 	b	113c8 <_printf_engine+0x28>
   118a8:	e38aaa02 	orr	sl, sl, #8192	; 0x2000
   118ac:	eafffee3 	b	11440 <_printf_engine+0xa0>
   118b0:	e38aac02 	orr	sl, sl, #512	; 0x200
   118b4:	eafffee1 	b	11440 <_printf_engine+0xa0>
   118b8:	e38aab02 	orr	sl, sl, #2048	; 0x800
   118bc:	eafffedf 	b	11440 <_printf_engine+0xa0>
   118c0:	e3590030 	cmp	r9, #48	; 0x30
   118c4:	03550000 	cmpeq	r5, #0
   118c8:	e0855105 	add	r5, r5, r5, lsl #2
   118cc:	e2499030 	sub	r9, r9, #48	; 0x30
   118d0:	038aaa01 	orreq	sl, sl, #4096	; 0x1000
   118d4:	e0895085 	add	r5, r9, r5, lsl #1
   118d8:	eafffed8 	b	11440 <_printf_engine+0xa0>
   118dc:	e59d5010 	ldr	r5, [sp, #16]
   118e0:	e28d8048 	add	r8, sp, #72	; 0x48
   118e4:	e1a02007 	mov	r2, r7
   118e8:	e3a01001 	mov	r1, #1
   118ec:	e5953000 	ldr	r3, [r5]
   118f0:	e5683024 	strb	r3, [r8, #-36]!	; 0xffffffdc
   118f4:	e1a00008 	mov	r0, r8
   118f8:	e12fff3b 	blx	fp
   118fc:	e2503000 	subs	r3, r0, #0
   11900:	bafffec3 	blt	11414 <_printf_engine+0x74>
   11904:	e2852004 	add	r2, r5, #4
   11908:	e0866003 	add	r6, r6, r3
   1190c:	e58d2010 	str	r2, [sp, #16]
   11910:	eaffffc2 	b	11820 <_printf_engine+0x480>
   11914:	e31a0002 	tst	sl, #2
   11918:	1a000066 	bne	11ab8 <_printf_engine+0x718>
   1191c:	e31a0001 	tst	sl, #1
   11920:	1a000097 	bne	11b84 <_printf_engine+0x7e4>
   11924:	e31a0008 	tst	sl, #8
   11928:	0a0000a4 	beq	11bc0 <_printf_engine+0x820>
   1192c:	e59d1010 	ldr	r1, [sp, #16]
   11930:	e1d120d0 	ldrsb	r2, [r1]
   11934:	e2811004 	add	r1, r1, #4
   11938:	e58d1010 	str	r1, [sp, #16]
   1193c:	e1a03fc2 	asr	r3, r2, #31
   11940:	ea000062 	b	11ad0 <_printf_engine+0x730>
   11944:	e31a0001 	tst	sl, #1
   11948:	138aa002 	orrne	sl, sl, #2
   1194c:	e38aa001 	orr	sl, sl, #1
   11950:	eafffeba 	b	11440 <_printf_engine+0xa0>
   11954:	e31a0004 	tst	sl, #4
   11958:	138aa008 	orrne	sl, sl, #8
   1195c:	e38aa004 	orr	sl, sl, #4
   11960:	eafffeb6 	b	11440 <_printf_engine+0xa0>
   11964:	e31a0002 	tst	sl, #2
   11968:	0a000062 	beq	11af8 <_printf_engine+0x758>
   1196c:	e59d3010 	ldr	r3, [sp, #16]
   11970:	e2833007 	add	r3, r3, #7
   11974:	e3c33007 	bic	r3, r3, #7
   11978:	e2832008 	add	r2, r3, #8
   1197c:	e58d2010 	str	r2, [sp, #16]
   11980:	e1c320d0 	ldrd	r2, [r3]
   11984:	e28d0027 	add	r0, sp, #39	; 0x27
   11988:	e3a01020 	mov	r1, #32
   1198c:	e58d0008 	str	r0, [sp, #8]
   11990:	e28d0028 	add	r0, sp, #40	; 0x28
   11994:	e58da004 	str	sl, [sp, #4]
   11998:	e58d1000 	str	r1, [sp]
   1199c:	ebfffc19 	bl	10a08 <longlong_to_string>
   119a0:	e1a09000 	mov	r9, r0
   119a4:	eaffff6d 	b	11760 <_printf_engine+0x3c0>
   119a8:	e38aac01 	orr	sl, sl, #256	; 0x100
   119ac:	e31a0002 	tst	sl, #2
   119b0:	0affff9c 	beq	11828 <_printf_engine+0x488>
   119b4:	eaffff0b 	b	115e8 <_printf_engine+0x248>
   119b8:	e38aa040 	orr	sl, sl, #64	; 0x40
   119bc:	eafffe9f 	b	11440 <_printf_engine+0xa0>
   119c0:	e38aa020 	orr	sl, sl, #32
   119c4:	eafffe9d 	b	11440 <_printf_engine+0xa0>
   119c8:	e59d3010 	ldr	r3, [sp, #16]
   119cc:	e3caaa01 	bic	sl, sl, #4096	; 0x1000
   119d0:	e5939000 	ldr	r9, [r3]
   119d4:	e2833004 	add	r3, r3, #4
   119d8:	e58d3010 	str	r3, [sp, #16]
   119dc:	e59d3014 	ldr	r3, [sp, #20]
   119e0:	e3590000 	cmp	r9, #0
   119e4:	01a09003 	moveq	r9, r3
   119e8:	eaffff5c 	b	11760 <_printf_engine+0x3c0>
   119ec:	e3a03025 	mov	r3, #37	; 0x25
   119f0:	e28d8048 	add	r8, sp, #72	; 0x48
   119f4:	e5683024 	strb	r3, [r8, #-36]!	; 0xffffffdc
   119f8:	e1a02007 	mov	r2, r7
   119fc:	e1a00008 	mov	r0, r8
   11a00:	e3a01001 	mov	r1, #1
   11a04:	e12fff3b 	blx	fp
   11a08:	e2505000 	subs	r5, r0, #0
   11a0c:	ba000090 	blt	11c54 <_printf_engine+0x8b4>
   11a10:	e1a00008 	mov	r0, r8
   11a14:	e1a02007 	mov	r2, r7
   11a18:	e3a01001 	mov	r1, #1
   11a1c:	e5cd9024 	strb	r9, [sp, #36]	; 0x24
   11a20:	e12fff3b 	blx	fp
   11a24:	e2503000 	subs	r3, r0, #0
   11a28:	bafffe79 	blt	11414 <_printf_engine+0x74>
   11a2c:	e0856006 	add	r6, r5, r6
   11a30:	eaffff99 	b	1189c <_printf_engine+0x4fc>
   11a34:	e59d401c 	ldr	r4, [sp, #28]
   11a38:	e59d3018 	ldr	r3, [sp, #24]
   11a3c:	e3530000 	cmp	r3, #0
   11a40:	1a00000b 	bne	11a74 <_printf_engine+0x6d4>
   11a44:	e5dd3027 	ldrb	r3, [sp, #39]	; 0x27
   11a48:	e3530000 	cmp	r3, #0
   11a4c:	0a000008 	beq	11a74 <_printf_engine+0x6d4>
   11a50:	e28d8048 	add	r8, sp, #72	; 0x48
   11a54:	e1a02007 	mov	r2, r7
   11a58:	e5683024 	strb	r3, [r8, #-36]!	; 0xffffffdc
   11a5c:	e3a01001 	mov	r1, #1
   11a60:	e1a00008 	mov	r0, r8
   11a64:	e12fff3b 	blx	fp
   11a68:	e2503000 	subs	r3, r0, #0
   11a6c:	bafffe68 	blt	11414 <_printf_engine+0x74>
   11a70:	e0866003 	add	r6, r6, r3
   11a74:	e1a00009 	mov	r0, r9
   11a78:	e1a02007 	mov	r2, r7
   11a7c:	e3e01000 	mvn	r1, #0
   11a80:	e12fff3b 	blx	fp
   11a84:	e2503000 	subs	r3, r0, #0
   11a88:	bafffe61 	blt	11414 <_printf_engine+0x74>
   11a8c:	eaffff82 	b	1189c <_printf_engine+0x4fc>
   11a90:	e59d3010 	ldr	r3, [sp, #16]
   11a94:	e5932000 	ldr	r2, [r3]
   11a98:	e2833004 	add	r3, r3, #4
   11a9c:	e58d3010 	str	r3, [sp, #16]
   11aa0:	e3a03000 	mov	r3, #0
   11aa4:	eafffed5 	b	11600 <_printf_engine+0x260>
   11aa8:	e59d2018 	ldr	r2, [sp, #24]
   11aac:	e3520000 	cmp	r2, #0
   11ab0:	1afffefc 	bne	116a8 <_printf_engine+0x308>
   11ab4:	eaffffe5 	b	11a50 <_printf_engine+0x6b0>
   11ab8:	e59d3010 	ldr	r3, [sp, #16]
   11abc:	e2833007 	add	r3, r3, #7
   11ac0:	e3c33007 	bic	r3, r3, #7
   11ac4:	e2832008 	add	r2, r3, #8
   11ac8:	e58d2010 	str	r2, [sp, #16]
   11acc:	e1c320d0 	ldrd	r2, [r3]
   11ad0:	e28d0027 	add	r0, sp, #39	; 0x27
   11ad4:	e3a01020 	mov	r1, #32
   11ad8:	e38aab01 	orr	sl, sl, #1024	; 0x400
   11adc:	e58d0008 	str	r0, [sp, #8]
   11ae0:	e58da004 	str	sl, [sp, #4]
   11ae4:	e28d0028 	add	r0, sp, #40	; 0x28
   11ae8:	e58d1000 	str	r1, [sp]
   11aec:	ebfffbc5 	bl	10a08 <longlong_to_string>
   11af0:	e1a09000 	mov	r9, r0
   11af4:	eaffff19 	b	11760 <_printf_engine+0x3c0>
   11af8:	e31a0001 	tst	sl, #1
   11afc:	1a00001a 	bne	11b6c <_printf_engine+0x7cc>
   11b00:	e31a0008 	tst	sl, #8
   11b04:	0a000035 	beq	11be0 <_printf_engine+0x840>
   11b08:	e59d1010 	ldr	r1, [sp, #16]
   11b0c:	e3a03000 	mov	r3, #0
   11b10:	e5d12000 	ldrb	r2, [r1]
   11b14:	e2811004 	add	r1, r1, #4
   11b18:	e58d1010 	str	r1, [sp, #16]
   11b1c:	eaffff98 	b	11984 <_printf_engine+0x5e4>
   11b20:	e31a0001 	tst	sl, #1
   11b24:	1a000007 	bne	11b48 <_printf_engine+0x7a8>
   11b28:	e31a0008 	tst	sl, #8
   11b2c:	15c36000 	strbne	r6, [r3]
   11b30:	158d2010 	strne	r2, [sp, #16]
   11b34:	1affff39 	bne	11820 <_printf_engine+0x480>
   11b38:	e31a0004 	tst	sl, #4
   11b3c:	11c360b0 	strhne	r6, [r3]
   11b40:	158d2010 	strne	r2, [sp, #16]
   11b44:	1affff35 	bne	11820 <_printf_engine+0x480>
   11b48:	e5836000 	str	r6, [r3]
   11b4c:	e58d2010 	str	r2, [sp, #16]
   11b50:	eaffff32 	b	11820 <_printf_engine+0x480>
   11b54:	e59d1010 	ldr	r1, [sp, #16]
   11b58:	e3a03000 	mov	r3, #0
   11b5c:	e5d12000 	ldrb	r2, [r1]
   11b60:	e2811004 	add	r1, r1, #4
   11b64:	e58d1010 	str	r1, [sp, #16]
   11b68:	eafffea4 	b	11600 <_printf_engine+0x260>
   11b6c:	e59d3010 	ldr	r3, [sp, #16]
   11b70:	e5932000 	ldr	r2, [r3]
   11b74:	e2833004 	add	r3, r3, #4
   11b78:	e58d3010 	str	r3, [sp, #16]
   11b7c:	e3a03000 	mov	r3, #0
   11b80:	eaffff7f 	b	11984 <_printf_engine+0x5e4>
   11b84:	e59d3010 	ldr	r3, [sp, #16]
   11b88:	e5932000 	ldr	r2, [r3]
   11b8c:	e2833004 	add	r3, r3, #4
   11b90:	e58d3010 	str	r3, [sp, #16]
   11b94:	e1a03fc2 	asr	r3, r2, #31
   11b98:	eaffffcc 	b	11ad0 <_printf_engine+0x730>
   11b9c:	e31a0010 	tst	sl, #16
   11ba0:	1affffba 	bne	11a90 <_printf_engine+0x6f0>
   11ba4:	e31a0020 	tst	sl, #32
   11ba8:	e59d3010 	ldr	r3, [sp, #16]
   11bac:	1afffe8e 	bne	115ec <_printf_engine+0x24c>
   11bb0:	e4932004 	ldr	r2, [r3], #4
   11bb4:	e58d3010 	str	r3, [sp, #16]
   11bb8:	e3a03000 	mov	r3, #0
   11bbc:	eafffe8f 	b	11600 <_printf_engine+0x260>
   11bc0:	e31a0004 	tst	sl, #4
   11bc4:	0a00000d 	beq	11c00 <_printf_engine+0x860>
   11bc8:	e59d1010 	ldr	r1, [sp, #16]
   11bcc:	e1d120f0 	ldrsh	r2, [r1]
   11bd0:	e2811004 	add	r1, r1, #4
   11bd4:	e58d1010 	str	r1, [sp, #16]
   11bd8:	e1a03fc2 	asr	r3, r2, #31
   11bdc:	eaffffbb 	b	11ad0 <_printf_engine+0x730>
   11be0:	e31a0004 	tst	sl, #4
   11be4:	0a000011 	beq	11c30 <_printf_engine+0x890>
   11be8:	e59d1010 	ldr	r1, [sp, #16]
   11bec:	e3a03000 	mov	r3, #0
   11bf0:	e1d120b0 	ldrh	r2, [r1]
   11bf4:	e2811004 	add	r1, r1, #4
   11bf8:	e58d1010 	str	r1, [sp, #16]
   11bfc:	eaffff60 	b	11984 <_printf_engine+0x5e4>
   11c00:	e31a0010 	tst	sl, #16
   11c04:	1affffde 	bne	11b84 <_printf_engine+0x7e4>
   11c08:	e31a0020 	tst	sl, #32
   11c0c:	1affffa9 	bne	11ab8 <_printf_engine+0x718>
   11c10:	e59d2010 	ldr	r2, [sp, #16]
   11c14:	e31a0040 	tst	sl, #64	; 0x40
   11c18:	e2823004 	add	r3, r2, #4
   11c1c:	059d2010 	ldreq	r2, [sp, #16]
   11c20:	e5922000 	ldr	r2, [r2]
   11c24:	e58d3010 	str	r3, [sp, #16]
   11c28:	e1a03fc2 	asr	r3, r2, #31
   11c2c:	eaffffa7 	b	11ad0 <_printf_engine+0x730>
   11c30:	e31a0010 	tst	sl, #16
   11c34:	1affffcc 	bne	11b6c <_printf_engine+0x7cc>
   11c38:	e31a0020 	tst	sl, #32
   11c3c:	e59d3010 	ldr	r3, [sp, #16]
   11c40:	1affff4a 	bne	11970 <_printf_engine+0x5d0>
   11c44:	e4932004 	ldr	r2, [r3], #4
   11c48:	e58d3010 	str	r3, [sp, #16]
   11c4c:	e3a03000 	mov	r3, #0
   11c50:	eaffff4b 	b	11984 <_printf_engine+0x5e4>
   11c54:	e1a03005 	mov	r3, r5
   11c58:	eafffded 	b	11414 <_printf_engine+0x74>
   11c5c:	e1500005 	cmp	r0, r5
   11c60:	3afffefe 	bcc	11860 <_printf_engine+0x4c0>
   11c64:	eaffff77 	b	11a48 <_printf_engine+0x6a8>

00011c68 <vsnprintf>:
   11c68:	e92d4070 	push	{r4, r5, r6, lr}
   11c6c:	e1a04000 	mov	r4, r0
   11c70:	e24dd010 	sub	sp, sp, #16
   11c74:	e3000b90 	movw	r0, #2960	; 0xb90
   11c78:	e1a05001 	mov	r5, r1
   11c7c:	e3a06000 	mov	r6, #0
   11c80:	e28d1004 	add	r1, sp, #4
   11c84:	e3400001 	movt	r0, #1
   11c88:	e1cd40f4 	strd	r4, [sp, #4]
   11c8c:	e58d600c 	str	r6, [sp, #12]
   11c90:	ebfffdc2 	bl	113a0 <_printf_engine>
   11c94:	e59d300c 	ldr	r3, [sp, #12]
   11c98:	e1530005 	cmp	r3, r5
   11c9c:	20844005 	addcs	r4, r4, r5
   11ca0:	37c46000 	strbcc	r6, [r4, r0]
   11ca4:	25446001 	strbcs	r6, [r4, #-1]
   11ca8:	e28dd010 	add	sp, sp, #16
   11cac:	e8bd8070 	pop	{r4, r5, r6, pc}

00011cb0 <sprintf>:
   11cb0:	e92d000e 	push	{r1, r2, r3}
   11cb4:	e3e01102 	mvn	r1, #-2147483648	; 0x80000000
   11cb8:	e52de004 	push	{lr}		; (str lr, [sp, #-4]!)
   11cbc:	e24dd008 	sub	sp, sp, #8
   11cc0:	e28dc010 	add	ip, sp, #16
   11cc4:	e1a0300c 	mov	r3, ip
   11cc8:	e59d200c 	ldr	r2, [sp, #12]
   11ccc:	e58dc004 	str	ip, [sp, #4]
   11cd0:	ebffffe4 	bl	11c68 <vsnprintf>
   11cd4:	e28dd008 	add	sp, sp, #8
   11cd8:	e49de004 	pop	{lr}		; (ldr lr, [sp], #4)
   11cdc:	e28dd00c 	add	sp, sp, #12
   11ce0:	e12fff1e 	bx	lr

00011ce4 <rand>:
   11ce4:	e3043074 	movw	r3, #16500	; 0x4074
   11ce8:	e306160d 	movw	r1, #26125	; 0x660d
   11cec:	e3403001 	movt	r3, #1
   11cf0:	e30f235f 	movw	r2, #62303	; 0xf35f
   11cf4:	e5930000 	ldr	r0, [r3]
   11cf8:	e3401019 	movt	r1, #25
   11cfc:	e3432c6e 	movt	r2, #15470	; 0x3c6e
   11d00:	e0202091 	mla	r0, r1, r0, r2
   11d04:	e5830000 	str	r0, [r3]
   11d08:	e12fff1e 	bx	lr

00011d0c <vfprintf>:
   11d0c:	e5903010 	ldr	r3, [r0, #16]
   11d10:	e5900000 	ldr	r0, [r0]
   11d14:	e12fff13 	bx	r3

00011d18 <fprintf>:
   11d18:	e92d000e 	push	{r1, r2, r3}
   11d1c:	e92d4010 	push	{r4, lr}
   11d20:	e24dd00c 	sub	sp, sp, #12
   11d24:	e28d3018 	add	r3, sp, #24
   11d28:	e1a02003 	mov	r2, r3
   11d2c:	e5904010 	ldr	r4, [r0, #16]
   11d30:	e59d1014 	ldr	r1, [sp, #20]
   11d34:	e5900000 	ldr	r0, [r0]
   11d38:	e58d3004 	str	r3, [sp, #4]
   11d3c:	e12fff34 	blx	r4
   11d40:	e28dd00c 	add	sp, sp, #12
   11d44:	e8bd4010 	pop	{r4, lr}
   11d48:	e28dd00c 	add	sp, sp, #12
   11d4c:	e12fff1e 	bx	lr

00011d50 <raise>:
   11d50:	e12fff1e 	bx	lr

00011d54 <memcmp>:
   11d54:	e3520000 	cmp	r2, #0
   11d58:	0a000012 	beq	11da8 <memcmp+0x54>
   11d5c:	e5d1c000 	ldrb	ip, [r1]
   11d60:	e5d03000 	ldrb	r3, [r0]
   11d64:	e043300c 	sub	r3, r3, ip
   11d68:	e6af3073 	sxtb	r3, r3
   11d6c:	e3530000 	cmp	r3, #0
   11d70:	02422001 	subeq	r2, r2, #1
   11d74:	0081c002 	addeq	ip, r1, r2
   11d78:	0a000006 	beq	11d98 <memcmp+0x44>
   11d7c:	ea00000b 	b	11db0 <memcmp+0x5c>
   11d80:	e5f02001 	ldrb	r2, [r0, #1]!
   11d84:	e5f13001 	ldrb	r3, [r1, #1]!
   11d88:	e0422003 	sub	r2, r2, r3
   11d8c:	e6af2072 	sxtb	r2, r2
   11d90:	e3520000 	cmp	r2, #0
   11d94:	1a000003 	bne	11da8 <memcmp+0x54>
   11d98:	e151000c 	cmp	r1, ip
   11d9c:	1afffff7 	bne	11d80 <memcmp+0x2c>
   11da0:	e3a00000 	mov	r0, #0
   11da4:	e12fff1e 	bx	lr
   11da8:	e1a00002 	mov	r0, r2
   11dac:	e12fff1e 	bx	lr
   11db0:	e1a00003 	mov	r0, r3
   11db4:	e12fff1e 	bx	lr

00011db8 <memset>:
   11db8:	e2603000 	rsb	r3, r0, #0
   11dbc:	e2033003 	and	r3, r3, #3
   11dc0:	e1530002 	cmp	r3, r2
   11dc4:	2a00001b 	bcs	11e38 <memset+0x80>
   11dc8:	e92d4010 	push	{r4, lr}
   11dcc:	e6ef4071 	uxtb	r4, r1
   11dd0:	e3530000 	cmp	r3, #0
   11dd4:	e184e404 	orr	lr, r4, r4, lsl #8
   11dd8:	e0422003 	sub	r2, r2, r3
   11ddc:	01a03000 	moveq	r3, r0
   11de0:	e18ee80e 	orr	lr, lr, lr, lsl #16
   11de4:	0a000004 	beq	11dfc <memset+0x44>
   11de8:	e080c003 	add	ip, r0, r3
   11dec:	e1a03000 	mov	r3, r0
   11df0:	e4c34001 	strb	r4, [r3], #1
   11df4:	e15c0003 	cmp	ip, r3
   11df8:	1afffffc 	bne	11df0 <memset+0x38>
   11dfc:	e1b0c122 	lsrs	ip, r2, #2
   11e00:	0a000003 	beq	11e14 <memset+0x5c>
   11e04:	e083c10c 	add	ip, r3, ip, lsl #2
   11e08:	e483e004 	str	lr, [r3], #4
   11e0c:	e15c0003 	cmp	ip, r3
   11e10:	1afffffc 	bne	11e08 <memset+0x50>
   11e14:	e2022003 	and	r2, r2, #3
   11e18:	e3520000 	cmp	r2, #0
   11e1c:	08bd8010 	popeq	{r4, pc}
   11e20:	e6ef1071 	uxtb	r1, r1
   11e24:	e0832002 	add	r2, r3, r2
   11e28:	e4c31001 	strb	r1, [r3], #1
   11e2c:	e1520003 	cmp	r2, r3
   11e30:	1afffffc 	bne	11e28 <memset+0x70>
   11e34:	e8bd8010 	pop	{r4, pc}
   11e38:	e3520000 	cmp	r2, #0
   11e3c:	e1a03000 	mov	r3, r0
   11e40:	012fff1e 	bxeq	lr
   11e44:	e6ef1071 	uxtb	r1, r1
   11e48:	e0802002 	add	r2, r0, r2
   11e4c:	e4c31001 	strb	r1, [r3], #1
   11e50:	e1520003 	cmp	r2, r3
   11e54:	1afffffc 	bne	11e4c <memset+0x94>
   11e58:	e12fff1e 	bx	lr

00011e5c <strlen>:
   11e5c:	e5d03000 	ldrb	r3, [r0]
   11e60:	e3530000 	cmp	r3, #0
   11e64:	0a000006 	beq	11e84 <strlen+0x28>
   11e68:	e1a03000 	mov	r3, r0
   11e6c:	e3a00000 	mov	r0, #0
   11e70:	e5f32001 	ldrb	r2, [r3, #1]!
   11e74:	e2800001 	add	r0, r0, #1
   11e78:	e3520000 	cmp	r2, #0
   11e7c:	1afffffb 	bne	11e70 <strlen+0x14>
   11e80:	e12fff1e 	bx	lr
   11e84:	e1a00003 	mov	r0, r3
   11e88:	e12fff1e 	bx	lr

00011e8c <strnlen>:
   11e8c:	e3510000 	cmp	r1, #0
   11e90:	0a000010 	beq	11ed8 <strnlen+0x4c>
   11e94:	e5d03000 	ldrb	r3, [r0]
   11e98:	e3530000 	cmp	r3, #0
   11e9c:	0a00000f 	beq	11ee0 <strnlen+0x54>
   11ea0:	e0801001 	add	r1, r0, r1
   11ea4:	e2803001 	add	r3, r0, #1
   11ea8:	ea000003 	b	11ebc <strnlen+0x30>
   11eac:	e5d3c000 	ldrb	ip, [r3]
   11eb0:	e35c0000 	cmp	ip, #0
   11eb4:	0a000005 	beq	11ed0 <strnlen+0x44>
   11eb8:	e1a03002 	mov	r3, r2
   11ebc:	e1510003 	cmp	r1, r3
   11ec0:	e2832001 	add	r2, r3, #1
   11ec4:	1afffff8 	bne	11eac <strnlen+0x20>
   11ec8:	e0410000 	sub	r0, r1, r0
   11ecc:	e12fff1e 	bx	lr
   11ed0:	e0430000 	sub	r0, r3, r0
   11ed4:	e12fff1e 	bx	lr
   11ed8:	e1a00001 	mov	r0, r1
   11edc:	e12fff1e 	bx	lr
   11ee0:	e1a00003 	mov	r0, r3
   11ee4:	e12fff1e 	bx	lr

00011ee8 <__aeabi_drsub>:
   11ee8:	f081 4100 	eor.w	r1, r1, #2147483648	; 0x80000000
   11eec:	e002      	b.n	11ef4 <__adddf3>
   11eee:	bf00      	nop

00011ef0 <__aeabi_dsub>:
   11ef0:	f083 4300 	eor.w	r3, r3, #2147483648	; 0x80000000

00011ef4 <__adddf3>:
   11ef4:	b530      	push	{r4, r5, lr}
   11ef6:	ea4f 0441 	mov.w	r4, r1, lsl #1
   11efa:	ea4f 0543 	mov.w	r5, r3, lsl #1
   11efe:	ea94 0f05 	teq	r4, r5
   11f02:	bf08      	it	eq
   11f04:	ea90 0f02 	teqeq	r0, r2
   11f08:	bf1f      	itttt	ne
   11f0a:	ea54 0c00 	orrsne.w	ip, r4, r0
   11f0e:	ea55 0c02 	orrsne.w	ip, r5, r2
   11f12:	ea7f 5c64 	mvnsne.w	ip, r4, asr #21
   11f16:	ea7f 5c65 	mvnsne.w	ip, r5, asr #21
   11f1a:	f000 80e2 	beq.w	120e2 <__adddf3+0x1ee>
   11f1e:	ea4f 5454 	mov.w	r4, r4, lsr #21
   11f22:	ebd4 5555 	rsbs	r5, r4, r5, lsr #21
   11f26:	bfb8      	it	lt
   11f28:	426d      	neglt	r5, r5
   11f2a:	dd0c      	ble.n	11f46 <__adddf3+0x52>
   11f2c:	442c      	add	r4, r5
   11f2e:	ea80 0202 	eor.w	r2, r0, r2
   11f32:	ea81 0303 	eor.w	r3, r1, r3
   11f36:	ea82 0000 	eor.w	r0, r2, r0
   11f3a:	ea83 0101 	eor.w	r1, r3, r1
   11f3e:	ea80 0202 	eor.w	r2, r0, r2
   11f42:	ea81 0303 	eor.w	r3, r1, r3
   11f46:	2d36      	cmp	r5, #54	; 0x36
   11f48:	bf88      	it	hi
   11f4a:	bd30      	pophi	{r4, r5, pc}
   11f4c:	f011 4f00 	tst.w	r1, #2147483648	; 0x80000000
   11f50:	ea4f 3101 	mov.w	r1, r1, lsl #12
   11f54:	f44f 1c80 	mov.w	ip, #1048576	; 0x100000
   11f58:	ea4c 3111 	orr.w	r1, ip, r1, lsr #12
   11f5c:	d002      	beq.n	11f64 <__adddf3+0x70>
   11f5e:	4240      	negs	r0, r0
   11f60:	eb61 0141 	sbc.w	r1, r1, r1, lsl #1
   11f64:	f013 4f00 	tst.w	r3, #2147483648	; 0x80000000
   11f68:	ea4f 3303 	mov.w	r3, r3, lsl #12
   11f6c:	ea4c 3313 	orr.w	r3, ip, r3, lsr #12
   11f70:	d002      	beq.n	11f78 <__adddf3+0x84>
   11f72:	4252      	negs	r2, r2
   11f74:	eb63 0343 	sbc.w	r3, r3, r3, lsl #1
   11f78:	ea94 0f05 	teq	r4, r5
   11f7c:	f000 80a7 	beq.w	120ce <__adddf3+0x1da>
   11f80:	f1a4 0401 	sub.w	r4, r4, #1
   11f84:	f1d5 0e20 	rsbs	lr, r5, #32
   11f88:	db0d      	blt.n	11fa6 <__adddf3+0xb2>
   11f8a:	fa02 fc0e 	lsl.w	ip, r2, lr
   11f8e:	fa22 f205 	lsr.w	r2, r2, r5
   11f92:	1880      	adds	r0, r0, r2
   11f94:	f141 0100 	adc.w	r1, r1, #0
   11f98:	fa03 f20e 	lsl.w	r2, r3, lr
   11f9c:	1880      	adds	r0, r0, r2
   11f9e:	fa43 f305 	asr.w	r3, r3, r5
   11fa2:	4159      	adcs	r1, r3
   11fa4:	e00e      	b.n	11fc4 <__adddf3+0xd0>
   11fa6:	f1a5 0520 	sub.w	r5, r5, #32
   11faa:	f10e 0e20 	add.w	lr, lr, #32
   11fae:	2a01      	cmp	r2, #1
   11fb0:	fa03 fc0e 	lsl.w	ip, r3, lr
   11fb4:	bf28      	it	cs
   11fb6:	f04c 0c02 	orrcs.w	ip, ip, #2
   11fba:	fa43 f305 	asr.w	r3, r3, r5
   11fbe:	18c0      	adds	r0, r0, r3
   11fc0:	eb51 71e3 	adcs.w	r1, r1, r3, asr #31
   11fc4:	f001 4500 	and.w	r5, r1, #2147483648	; 0x80000000
   11fc8:	d507      	bpl.n	11fda <__adddf3+0xe6>
   11fca:	f04f 0e00 	mov.w	lr, #0
   11fce:	f1dc 0c00 	rsbs	ip, ip, #0
   11fd2:	eb7e 0000 	sbcs.w	r0, lr, r0
   11fd6:	eb6e 0101 	sbc.w	r1, lr, r1
   11fda:	f5b1 1f80 	cmp.w	r1, #1048576	; 0x100000
   11fde:	d31b      	bcc.n	12018 <__adddf3+0x124>
   11fe0:	f5b1 1f00 	cmp.w	r1, #2097152	; 0x200000
   11fe4:	d30c      	bcc.n	12000 <__adddf3+0x10c>
   11fe6:	0849      	lsrs	r1, r1, #1
   11fe8:	ea5f 0030 	movs.w	r0, r0, rrx
   11fec:	ea4f 0c3c 	mov.w	ip, ip, rrx
   11ff0:	f104 0401 	add.w	r4, r4, #1
   11ff4:	ea4f 5244 	mov.w	r2, r4, lsl #21
   11ff8:	f512 0f80 	cmn.w	r2, #4194304	; 0x400000
   11ffc:	f080 809a 	bcs.w	12134 <__adddf3+0x240>
   12000:	f1bc 4f00 	cmp.w	ip, #2147483648	; 0x80000000
   12004:	bf08      	it	eq
   12006:	ea5f 0c50 	movseq.w	ip, r0, lsr #1
   1200a:	f150 0000 	adcs.w	r0, r0, #0
   1200e:	eb41 5104 	adc.w	r1, r1, r4, lsl #20
   12012:	ea41 0105 	orr.w	r1, r1, r5
   12016:	bd30      	pop	{r4, r5, pc}
   12018:	ea5f 0c4c 	movs.w	ip, ip, lsl #1
   1201c:	4140      	adcs	r0, r0
   1201e:	eb41 0101 	adc.w	r1, r1, r1
   12022:	f411 1f80 	tst.w	r1, #1048576	; 0x100000
   12026:	f1a4 0401 	sub.w	r4, r4, #1
   1202a:	d1e9      	bne.n	12000 <__adddf3+0x10c>
   1202c:	f091 0f00 	teq	r1, #0
   12030:	bf04      	itt	eq
   12032:	4601      	moveq	r1, r0
   12034:	2000      	moveq	r0, #0
   12036:	fab1 f381 	clz	r3, r1
   1203a:	bf08      	it	eq
   1203c:	3320      	addeq	r3, #32
   1203e:	f1a3 030b 	sub.w	r3, r3, #11
   12042:	f1b3 0220 	subs.w	r2, r3, #32
   12046:	da0c      	bge.n	12062 <__adddf3+0x16e>
   12048:	320c      	adds	r2, #12
   1204a:	dd08      	ble.n	1205e <__adddf3+0x16a>
   1204c:	f102 0c14 	add.w	ip, r2, #20
   12050:	f1c2 020c 	rsb	r2, r2, #12
   12054:	fa01 f00c 	lsl.w	r0, r1, ip
   12058:	fa21 f102 	lsr.w	r1, r1, r2
   1205c:	e00c      	b.n	12078 <__adddf3+0x184>
   1205e:	f102 0214 	add.w	r2, r2, #20
   12062:	bfd8      	it	le
   12064:	f1c2 0c20 	rsble	ip, r2, #32
   12068:	fa01 f102 	lsl.w	r1, r1, r2
   1206c:	fa20 fc0c 	lsr.w	ip, r0, ip
   12070:	bfdc      	itt	le
   12072:	ea41 010c 	orrle.w	r1, r1, ip
   12076:	4090      	lslle	r0, r2
   12078:	1ae4      	subs	r4, r4, r3
   1207a:	bfa2      	ittt	ge
   1207c:	eb01 5104 	addge.w	r1, r1, r4, lsl #20
   12080:	4329      	orrge	r1, r5
   12082:	bd30      	popge	{r4, r5, pc}
   12084:	ea6f 0404 	mvn.w	r4, r4
   12088:	3c1f      	subs	r4, #31
   1208a:	da1c      	bge.n	120c6 <__adddf3+0x1d2>
   1208c:	340c      	adds	r4, #12
   1208e:	dc0e      	bgt.n	120ae <__adddf3+0x1ba>
   12090:	f104 0414 	add.w	r4, r4, #20
   12094:	f1c4 0220 	rsb	r2, r4, #32
   12098:	fa20 f004 	lsr.w	r0, r0, r4
   1209c:	fa01 f302 	lsl.w	r3, r1, r2
   120a0:	ea40 0003 	orr.w	r0, r0, r3
   120a4:	fa21 f304 	lsr.w	r3, r1, r4
   120a8:	ea45 0103 	orr.w	r1, r5, r3
   120ac:	bd30      	pop	{r4, r5, pc}
   120ae:	f1c4 040c 	rsb	r4, r4, #12
   120b2:	f1c4 0220 	rsb	r2, r4, #32
   120b6:	fa20 f002 	lsr.w	r0, r0, r2
   120ba:	fa01 f304 	lsl.w	r3, r1, r4
   120be:	ea40 0003 	orr.w	r0, r0, r3
   120c2:	4629      	mov	r1, r5
   120c4:	bd30      	pop	{r4, r5, pc}
   120c6:	fa21 f004 	lsr.w	r0, r1, r4
   120ca:	4629      	mov	r1, r5
   120cc:	bd30      	pop	{r4, r5, pc}
   120ce:	f094 0f00 	teq	r4, #0
   120d2:	f483 1380 	eor.w	r3, r3, #1048576	; 0x100000
   120d6:	bf06      	itte	eq
   120d8:	f481 1180 	eoreq.w	r1, r1, #1048576	; 0x100000
   120dc:	3401      	addeq	r4, #1
   120de:	3d01      	subne	r5, #1
   120e0:	e74e      	b.n	11f80 <__adddf3+0x8c>
   120e2:	ea7f 5c64 	mvns.w	ip, r4, asr #21
   120e6:	bf18      	it	ne
   120e8:	ea7f 5c65 	mvnsne.w	ip, r5, asr #21
   120ec:	d029      	beq.n	12142 <__adddf3+0x24e>
   120ee:	ea94 0f05 	teq	r4, r5
   120f2:	bf08      	it	eq
   120f4:	ea90 0f02 	teqeq	r0, r2
   120f8:	d005      	beq.n	12106 <__adddf3+0x212>
   120fa:	ea54 0c00 	orrs.w	ip, r4, r0
   120fe:	bf04      	itt	eq
   12100:	4619      	moveq	r1, r3
   12102:	4610      	moveq	r0, r2
   12104:	bd30      	pop	{r4, r5, pc}
   12106:	ea91 0f03 	teq	r1, r3
   1210a:	bf1e      	ittt	ne
   1210c:	2100      	movne	r1, #0
   1210e:	2000      	movne	r0, #0
   12110:	bd30      	popne	{r4, r5, pc}
   12112:	ea5f 5c54 	movs.w	ip, r4, lsr #21
   12116:	d105      	bne.n	12124 <__adddf3+0x230>
   12118:	0040      	lsls	r0, r0, #1
   1211a:	4149      	adcs	r1, r1
   1211c:	bf28      	it	cs
   1211e:	f041 4100 	orrcs.w	r1, r1, #2147483648	; 0x80000000
   12122:	bd30      	pop	{r4, r5, pc}
   12124:	f514 0480 	adds.w	r4, r4, #4194304	; 0x400000
   12128:	bf3c      	itt	cc
   1212a:	f501 1180 	addcc.w	r1, r1, #1048576	; 0x100000
   1212e:	bd30      	popcc	{r4, r5, pc}
   12130:	f001 4500 	and.w	r5, r1, #2147483648	; 0x80000000
   12134:	f045 41fe 	orr.w	r1, r5, #2130706432	; 0x7f000000
   12138:	f441 0170 	orr.w	r1, r1, #15728640	; 0xf00000
   1213c:	f04f 0000 	mov.w	r0, #0
   12140:	bd30      	pop	{r4, r5, pc}
   12142:	ea7f 5c64 	mvns.w	ip, r4, asr #21
   12146:	bf1a      	itte	ne
   12148:	4619      	movne	r1, r3
   1214a:	4610      	movne	r0, r2
   1214c:	ea7f 5c65 	mvnseq.w	ip, r5, asr #21
   12150:	bf1c      	itt	ne
   12152:	460b      	movne	r3, r1
   12154:	4602      	movne	r2, r0
   12156:	ea50 3401 	orrs.w	r4, r0, r1, lsl #12
   1215a:	bf06      	itte	eq
   1215c:	ea52 3503 	orrseq.w	r5, r2, r3, lsl #12
   12160:	ea91 0f03 	teqeq	r1, r3
   12164:	f441 2100 	orrne.w	r1, r1, #524288	; 0x80000
   12168:	bd30      	pop	{r4, r5, pc}
   1216a:	bf00      	nop

0001216c <__aeabi_ui2d>:
   1216c:	f090 0f00 	teq	r0, #0
   12170:	bf04      	itt	eq
   12172:	2100      	moveq	r1, #0
   12174:	4770      	bxeq	lr
   12176:	b530      	push	{r4, r5, lr}
   12178:	f44f 6480 	mov.w	r4, #1024	; 0x400
   1217c:	f104 0432 	add.w	r4, r4, #50	; 0x32
   12180:	f04f 0500 	mov.w	r5, #0
   12184:	f04f 0100 	mov.w	r1, #0
   12188:	e750      	b.n	1202c <__adddf3+0x138>
   1218a:	bf00      	nop

0001218c <__aeabi_i2d>:
   1218c:	f090 0f00 	teq	r0, #0
   12190:	bf04      	itt	eq
   12192:	2100      	moveq	r1, #0
   12194:	4770      	bxeq	lr
   12196:	b530      	push	{r4, r5, lr}
   12198:	f44f 6480 	mov.w	r4, #1024	; 0x400
   1219c:	f104 0432 	add.w	r4, r4, #50	; 0x32
   121a0:	f010 4500 	ands.w	r5, r0, #2147483648	; 0x80000000
   121a4:	bf48      	it	mi
   121a6:	4240      	negmi	r0, r0
   121a8:	f04f 0100 	mov.w	r1, #0
   121ac:	e73e      	b.n	1202c <__adddf3+0x138>
   121ae:	bf00      	nop

000121b0 <__aeabi_f2d>:
   121b0:	0042      	lsls	r2, r0, #1
   121b2:	ea4f 01e2 	mov.w	r1, r2, asr #3
   121b6:	ea4f 0131 	mov.w	r1, r1, rrx
   121ba:	ea4f 7002 	mov.w	r0, r2, lsl #28
   121be:	bf1f      	itttt	ne
   121c0:	f012 437f 	andsne.w	r3, r2, #4278190080	; 0xff000000
   121c4:	f093 4f7f 	teqne	r3, #4278190080	; 0xff000000
   121c8:	f081 5160 	eorne.w	r1, r1, #939524096	; 0x38000000
   121cc:	4770      	bxne	lr
   121ce:	f032 427f 	bics.w	r2, r2, #4278190080	; 0xff000000
   121d2:	bf08      	it	eq
   121d4:	4770      	bxeq	lr
   121d6:	f093 4f7f 	teq	r3, #4278190080	; 0xff000000
   121da:	bf04      	itt	eq
   121dc:	f441 2100 	orreq.w	r1, r1, #524288	; 0x80000
   121e0:	4770      	bxeq	lr
   121e2:	b530      	push	{r4, r5, lr}
   121e4:	f44f 7460 	mov.w	r4, #896	; 0x380
   121e8:	f001 4500 	and.w	r5, r1, #2147483648	; 0x80000000
   121ec:	f021 4100 	bic.w	r1, r1, #2147483648	; 0x80000000
   121f0:	e71c      	b.n	1202c <__adddf3+0x138>
   121f2:	bf00      	nop

000121f4 <__aeabi_ul2d>:
   121f4:	ea50 0201 	orrs.w	r2, r0, r1
   121f8:	bf08      	it	eq
   121fa:	4770      	bxeq	lr
   121fc:	b530      	push	{r4, r5, lr}
   121fe:	f04f 0500 	mov.w	r5, #0
   12202:	e00a      	b.n	1221a <__aeabi_l2d+0x16>

00012204 <__aeabi_l2d>:
   12204:	ea50 0201 	orrs.w	r2, r0, r1
   12208:	bf08      	it	eq
   1220a:	4770      	bxeq	lr
   1220c:	b530      	push	{r4, r5, lr}
   1220e:	f011 4500 	ands.w	r5, r1, #2147483648	; 0x80000000
   12212:	d502      	bpl.n	1221a <__aeabi_l2d+0x16>
   12214:	4240      	negs	r0, r0
   12216:	eb61 0141 	sbc.w	r1, r1, r1, lsl #1
   1221a:	f44f 6480 	mov.w	r4, #1024	; 0x400
   1221e:	f104 0432 	add.w	r4, r4, #50	; 0x32
   12222:	ea5f 5c91 	movs.w	ip, r1, lsr #22
   12226:	f43f aed8 	beq.w	11fda <__adddf3+0xe6>
   1222a:	f04f 0203 	mov.w	r2, #3
   1222e:	ea5f 0cdc 	movs.w	ip, ip, lsr #3
   12232:	bf18      	it	ne
   12234:	3203      	addne	r2, #3
   12236:	ea5f 0cdc 	movs.w	ip, ip, lsr #3
   1223a:	bf18      	it	ne
   1223c:	3203      	addne	r2, #3
   1223e:	eb02 02dc 	add.w	r2, r2, ip, lsr #3
   12242:	f1c2 0320 	rsb	r3, r2, #32
   12246:	fa00 fc03 	lsl.w	ip, r0, r3
   1224a:	fa20 f002 	lsr.w	r0, r0, r2
   1224e:	fa01 fe03 	lsl.w	lr, r1, r3
   12252:	ea40 000e 	orr.w	r0, r0, lr
   12256:	fa21 f102 	lsr.w	r1, r1, r2
   1225a:	4414      	add	r4, r2
   1225c:	e6bd      	b.n	11fda <__adddf3+0xe6>
   1225e:	bf00      	nop

00012260 <__aeabi_uldivmod>:
   12260:	b953      	cbnz	r3, 12278 <__aeabi_uldivmod+0x18>
   12262:	b94a      	cbnz	r2, 12278 <__aeabi_uldivmod+0x18>
   12264:	2900      	cmp	r1, #0
   12266:	bf08      	it	eq
   12268:	2800      	cmpeq	r0, #0
   1226a:	bf1c      	itt	ne
   1226c:	f04f 31ff 	movne.w	r1, #4294967295	; 0xffffffff
   12270:	f04f 30ff 	movne.w	r0, #4294967295	; 0xffffffff
   12274:	f000 b80c 	b.w	12290 <__aeabi_idiv0>
   12278:	f1ad 0c08 	sub.w	ip, sp, #8
   1227c:	e96d ce04 	strd	ip, lr, [sp, #-16]!
   12280:	f000 f80c 	bl	1229c <__udivmoddi4>
   12284:	f8dd e004 	ldr.w	lr, [sp, #4]
   12288:	e9dd 2302 	ldrd	r2, r3, [sp, #8]
   1228c:	b004      	add	sp, #16
   1228e:	4770      	bx	lr

00012290 <__aeabi_idiv0>:
   12290:	b502      	push	{r1, lr}
   12292:	f04f 0008 	mov.w	r0, #8
   12296:	f7ff ed5c 	blx	11d50 <raise>
   1229a:	bd02      	pop	{r1, pc}

0001229c <__udivmoddi4>:
   1229c:	4299      	cmp	r1, r3
   1229e:	e92d 4ff0 	stmdb	sp!, {r4, r5, r6, r7, r8, r9, sl, fp, lr}
   122a2:	bf08      	it	eq
   122a4:	4290      	cmpeq	r0, r2
   122a6:	4604      	mov	r4, r0
   122a8:	bf38      	it	cc
   122aa:	2000      	movcc	r0, #0
   122ac:	460d      	mov	r5, r1
   122ae:	f8dd e024 	ldr.w	lr, [sp, #36]	; 0x24
   122b2:	bf38      	it	cc
   122b4:	4601      	movcc	r1, r0
   122b6:	d368      	bcc.n	1238a <__udivmoddi4+0xee>
   122b8:	4692      	mov	sl, r2
   122ba:	469b      	mov	fp, r3
   122bc:	fab3 fc83 	clz	ip, r3
   122c0:	2b00      	cmp	r3, #0
   122c2:	d06d      	beq.n	123a0 <__udivmoddi4+0x104>
   122c4:	fab5 f185 	clz	r1, r5
   122c8:	2d00      	cmp	r5, #0
   122ca:	d065      	beq.n	12398 <__udivmoddi4+0xfc>
   122cc:	ebac 0c01 	sub.w	ip, ip, r1
   122d0:	f1ac 0820 	sub.w	r8, ip, #32
   122d4:	fa0b f70c 	lsl.w	r7, fp, ip
   122d8:	fa0a f108 	lsl.w	r1, sl, r8
   122dc:	f1cc 0920 	rsb	r9, ip, #32
   122e0:	fa2a f309 	lsr.w	r3, sl, r9
   122e4:	fa0a f60c 	lsl.w	r6, sl, ip
   122e8:	430f      	orrs	r7, r1
   122ea:	431f      	orrs	r7, r3
   122ec:	42bd      	cmp	r5, r7
   122ee:	bf08      	it	eq
   122f0:	42b4      	cmpeq	r4, r6
   122f2:	bf3c      	itt	cc
   122f4:	2000      	movcc	r0, #0
   122f6:	4601      	movcc	r1, r0
   122f8:	d30a      	bcc.n	12310 <__udivmoddi4+0x74>
   122fa:	2001      	movs	r0, #1
   122fc:	1ba4      	subs	r4, r4, r6
   122fe:	fa00 f108 	lsl.w	r1, r0, r8
   12302:	fa20 f309 	lsr.w	r3, r0, r9
   12306:	fa00 f00c 	lsl.w	r0, r0, ip
   1230a:	eb65 0507 	sbc.w	r5, r5, r7
   1230e:	4319      	orrs	r1, r3
   12310:	f1bc 0f00 	cmp.w	ip, #0
   12314:	d039      	beq.n	1238a <__udivmoddi4+0xee>
   12316:	087f      	lsrs	r7, r7, #1
   12318:	ea4f 0636 	mov.w	r6, r6, rrx
   1231c:	4662      	mov	r2, ip
   1231e:	e00a      	b.n	12336 <__udivmoddi4+0x9a>
   12320:	1ba3      	subs	r3, r4, r6
   12322:	eb65 0a07 	sbc.w	sl, r5, r7
   12326:	18db      	adds	r3, r3, r3
   12328:	eb4a 0a0a 	adc.w	sl, sl, sl
   1232c:	1c5c      	adds	r4, r3, #1
   1232e:	f14a 0500 	adc.w	r5, sl, #0
   12332:	3a01      	subs	r2, #1
   12334:	d007      	beq.n	12346 <__udivmoddi4+0xaa>
   12336:	42bd      	cmp	r5, r7
   12338:	bf08      	it	eq
   1233a:	42b4      	cmpeq	r4, r6
   1233c:	d2f0      	bcs.n	12320 <__udivmoddi4+0x84>
   1233e:	1924      	adds	r4, r4, r4
   12340:	416d      	adcs	r5, r5
   12342:	3a01      	subs	r2, #1
   12344:	d1f7      	bne.n	12336 <__udivmoddi4+0x9a>
   12346:	fa24 f30c 	lsr.w	r3, r4, ip
   1234a:	fa05 f909 	lsl.w	r9, r5, r9
   1234e:	fa25 f20c 	lsr.w	r2, r5, ip
   12352:	fa25 f808 	lsr.w	r8, r5, r8
   12356:	1900      	adds	r0, r0, r4
   12358:	ea43 0309 	orr.w	r3, r3, r9
   1235c:	ea43 0408 	orr.w	r4, r3, r8
   12360:	eb45 0101 	adc.w	r1, r5, r1
   12364:	4615      	mov	r5, r2
   12366:	f1ac 0220 	sub.w	r2, ip, #32
   1236a:	fa05 f30c 	lsl.w	r3, r5, ip
   1236e:	fa04 f60c 	lsl.w	r6, r4, ip
   12372:	fa04 f202 	lsl.w	r2, r4, r2
   12376:	f1cc 0c20 	rsb	ip, ip, #32
   1237a:	fa24 fc0c 	lsr.w	ip, r4, ip
   1237e:	4313      	orrs	r3, r2
   12380:	1b80      	subs	r0, r0, r6
   12382:	ea43 030c 	orr.w	r3, r3, ip
   12386:	eb61 0103 	sbc.w	r1, r1, r3
   1238a:	f1be 0f00 	cmp.w	lr, #0
   1238e:	d001      	beq.n	12394 <__udivmoddi4+0xf8>
   12390:	e9ce 4500 	strd	r4, r5, [lr]
   12394:	e8bd 8ff0 	ldmia.w	sp!, {r4, r5, r6, r7, r8, r9, sl, fp, pc}
   12398:	fab4 f184 	clz	r1, r4
   1239c:	3120      	adds	r1, #32
   1239e:	e795      	b.n	122cc <__udivmoddi4+0x30>
   123a0:	fab2 fc82 	clz	ip, r2
   123a4:	fab5 f185 	clz	r1, r5
   123a8:	f10c 0c20 	add.w	ip, ip, #32
   123ac:	2d00      	cmp	r5, #0
   123ae:	d18d      	bne.n	122cc <__udivmoddi4+0x30>
   123b0:	e7f2      	b.n	12398 <__udivmoddi4+0xfc>
   123b2:	bf00      	nop
